TN:
SF:/usr/include/c++/8/array
FN:55,_ZNSt14__array_traitsINSt7__cxx1112basic_stringIcSt11char_traitsIcESaIcEEELm3EE6_S_refERA3_KS5_m
FN:185,_ZNSt5arrayINSt7__cxx1112basic_stringIcSt11char_traitsIcESaIcEEELm3EEixEm
FNDA:0,_ZNSt14__array_traitsINSt7__cxx1112basic_stringIcSt11char_traitsIcESaIcEEELm3EE6_S_refERA3_KS5_m
FNDA:0,_ZNSt5arrayINSt7__cxx1112basic_stringIcSt11char_traitsIcESaIcEEELm3EEixEm
FNF:2
FNH:0
DA:55,0
DA:56,0
DA:185,0
DA:186,0
LF:4
LH:0
end_of_record
SF:/usr/include/c++/8/bits/alloc_traits.h
FN:435,_ZNSt16allocator_traitsISaIPN4Json9OurReader9ErrorInfoEEE8allocateERS4_m
FN:435,_ZNSt16allocator_traitsISaIN4Json9OurReader15StructuredErrorEEE8allocateERS3_m
FN:435,_ZNSt16allocator_traitsISaIN4Json6Reader9ErrorInfoEEE8allocateERS3_m
FN:435,_ZNSt16allocator_traitsISaIN4Json6Reader15StructuredErrorEEE8allocateERS3_m
FN:435,_ZNSt16allocator_traitsISaIPN4Json6Reader9ErrorInfoEEE8allocateERS4_m
FN:435,_ZNSt16allocator_traitsISaISt13_Rb_tree_nodeISt4pairIKN4Json5Value8CZStringES3_EEEE8allocateERS8_m
FN:435,_ZNSt16allocator_traitsISaIPPN4Json5ValueEEE8allocateERS4_m
FN:435,_ZNSt16allocator_traitsISaISt13_Rb_tree_nodeINSt7__cxx1112basic_stringIcSt11char_traitsIcESaIcEEEEEE8allocateERS8_m
FN:435,_ZNSt16allocator_traitsISaINSt7__cxx1112basic_stringIcSt11char_traitsIcESaIcEEEEE8allocateERS6_m
FN:435,_ZNSt16allocator_traitsISaIPKN4Json12PathArgumentEEE8allocateERS4_m
FN:435,_ZNSt16allocator_traitsISaIN4Json9OurReader9ErrorInfoEEE8allocateERS3_m
FN:435,_ZNSt16allocator_traitsISaIPN4Json5ValueEEE8allocateERS3_m
FN:435,_ZNSt16allocator_traitsISaIcEE8allocateERS0_m
FN:435,_ZNSt16allocator_traitsISaIN4Json12PathArgumentEEE8allocateERS2_m
FN:461,_ZNSt16allocator_traitsISaISt13_Rb_tree_nodeISt4pairIKN4Json5Value8CZStringES3_EEEE10deallocateERS8_PS7_m
FN:461,_ZNSt16allocator_traitsISaIN4Json6Reader15StructuredErrorEEE10deallocateERS3_PS2_m
FN:461,_ZNSt16allocator_traitsISaIPKN4Json12PathArgumentEEE10deallocateERS4_PS3_m
FN:461,_ZNSt16allocator_traitsISaIcEE10deallocateERS0_Pcm
FN:461,_ZNSt16allocator_traitsISaIN4Json6Reader9ErrorInfoEEE10deallocateERS3_PS2_m
FN:461,_ZNSt16allocator_traitsISaIN4Json12PathArgumentEEE10deallocateERS2_PS1_m
FN:461,_ZNSt16allocator_traitsISaISt13_Rb_tree_nodeINSt7__cxx1112basic_stringIcSt11char_traitsIcESaIcEEEEEE10deallocateERS8_PS7_m
FN:461,_ZNSt16allocator_traitsISaIPN4Json9OurReader9ErrorInfoEEE10deallocateERS4_PS3_m
FN:461,_ZNSt16allocator_traitsISaIN4Json9OurReader15StructuredErrorEEE10deallocateERS3_PS2_m
FN:461,_ZNSt16allocator_traitsISaIPPN4Json5ValueEEE10deallocateERS4_PS3_m
FN:461,_ZNSt16allocator_traitsISaIPN4Json5ValueEEE10deallocateERS3_PS2_m
FN:461,_ZNSt16allocator_traitsISaIPN4Json6Reader9ErrorInfoEEE10deallocateERS4_PS3_m
FN:461,_ZNSt16allocator_traitsISaIN4Json9OurReader9ErrorInfoEEE10deallocateERS3_PS2_m
FN:461,_ZNSt16allocator_traitsISaINSt7__cxx1112basic_stringIcSt11char_traitsIcESaIcEEEEE10deallocateERS6_PS5_m
FN:474,_ZNSt16allocator_traitsISaISt13_Rb_tree_nodeINSt7__cxx1112basic_stringIcSt11char_traitsIcESaIcEEEEEE9constructIS6_JS6_EEEvRS8_PT_DpOT0_
FN:474,_ZNSt16allocator_traitsISaINSt7__cxx1112basic_stringIcSt11char_traitsIcESaIcEEEEE9constructIS5_JS5_EEEvRS6_PT_DpOT0_
FN:474,_ZNSt16allocator_traitsISaIN4Json9OurReader9ErrorInfoEEE9constructIS2_JRKS2_EEEvRS3_PT_DpOT0_
FN:474,_ZNSt16allocator_traitsISaIPKN4Json12PathArgumentEEE9constructIS3_JS3_EEEvRS4_PT_DpOT0_
FN:474,_ZNSt16allocator_traitsISaIN4Json12PathArgumentEEE9constructIS1_JS1_EEEvRS2_PT_DpOT0_
FN:474,_ZNSt16allocator_traitsISaIN4Json6Reader9ErrorInfoEEE9constructIS2_JRKS2_EEEvRS3_PT_DpOT0_
FN:474,_ZNSt16allocator_traitsISaINSt7__cxx1112basic_stringIcSt11char_traitsIcESaIcEEEEE9constructIS5_JRKS5_EEEvRS6_PT_DpOT0_
FN:474,_ZNSt16allocator_traitsISaIPN4Json5ValueEEE9constructIS2_JS2_EEEvRS3_PT_DpOT0_
FN:474,_ZNSt16allocator_traitsISaISt13_Rb_tree_nodeISt4pairIKN4Json5Value8CZStringES3_EEEE9constructIS6_JRS6_EEEvRS8_PT_DpOT0_
FN:474,_ZNSt16allocator_traitsISaIN4Json9OurReader15StructuredErrorEEE9constructIS2_JRKS2_EEEvRS3_PT_DpOT0_
FN:474,_ZNSt16allocator_traitsISaISt13_Rb_tree_nodeISt4pairIKN4Json5Value8CZStringES3_EEEE9constructIS6_JRKS6_EEEvRS8_PT_DpOT0_
FN:474,_ZNSt16allocator_traitsISaISt13_Rb_tree_nodeISt4pairIKN4Json5Value8CZStringES3_EEEE9constructIS6_JRKSt21piecewise_construct_tSt5tupleIJRS5_EESE_IJEEEEEvRS8_PT_DpOT0_
FN:474,_ZNSt16allocator_traitsISaIN4Json12PathArgumentEEE9constructIS1_JRKS1_EEEvRS2_PT_DpOT0_
FN:474,_ZNSt16allocator_traitsISaIN4Json6Reader15StructuredErrorEEE9constructIS2_JRKS2_EEEvRS3_PT_DpOT0_
FN:486,_ZNSt16allocator_traitsISaIN4Json6Reader15StructuredErrorEEE7destroyIS2_EEvRS3_PT_
FN:486,_ZNSt16allocator_traitsISaIPN4Json5ValueEEE7destroyIS2_EEvRS3_PT_
FN:486,_ZNSt16allocator_traitsISaISt13_Rb_tree_nodeINSt7__cxx1112basic_stringIcSt11char_traitsIcESaIcEEEEEE7destroyIS6_EEvRS8_PT_
FN:486,_ZNSt16allocator_traitsISaIPKN4Json12PathArgumentEEE7destroyIS3_EEvRS4_PT_
FN:486,_ZNSt16allocator_traitsISaISt13_Rb_tree_nodeISt4pairIKN4Json5Value8CZStringES3_EEEE7destroyIS6_EEvRS8_PT_
FN:486,_ZNSt16allocator_traitsISaIN4Json12PathArgumentEEE7destroyIS1_EEvRS2_PT_
FN:486,_ZNSt16allocator_traitsISaIN4Json9OurReader15StructuredErrorEEE7destroyIS2_EEvRS3_PT_
FN:486,_ZNSt16allocator_traitsISaINSt7__cxx1112basic_stringIcSt11char_traitsIcESaIcEEEEE7destroyIS5_EEvRS6_PT_
FN:495,_ZNSt16allocator_traitsISaIN4Json9OurReader15StructuredErrorEEE8max_sizeERKS3_
FN:495,_ZNSt16allocator_traitsISaINSt7__cxx1112basic_stringIcSt11char_traitsIcESaIcEEEEE8max_sizeERKS6_
FN:495,_ZNSt16allocator_traitsISaIN4Json12PathArgumentEEE8max_sizeERKS2_
FN:495,_ZNSt16allocator_traitsISaIN4Json9OurReader9ErrorInfoEEE8max_sizeERKS3_
FN:495,_ZNSt16allocator_traitsISaIcEE8max_sizeERKS0_
FN:495,_ZNSt16allocator_traitsISaIN4Json6Reader9ErrorInfoEEE8max_sizeERKS3_
FN:495,_ZNSt16allocator_traitsISaIPKN4Json12PathArgumentEEE8max_sizeERKS4_
FN:495,_ZNSt16allocator_traitsISaIN4Json6Reader15StructuredErrorEEE8max_sizeERKS3_
FN:504,_ZNSt16allocator_traitsISaISt13_Rb_tree_nodeISt4pairIKN4Json5Value8CZStringES3_EEEE37select_on_container_copy_constructionERKS8_
FN:504,_ZNSt16allocator_traitsISaIcEE37select_on_container_copy_constructionERKS0_
FN:516,_ZSt18__do_alloc_on_copyISaIcEEvRT_RKS1_St17integral_constantIbLb0EE
FN:520,_ZSt15__alloc_on_copyISaIcEEvRT_RKS1_
FN:535,_ZSt18__do_alloc_on_moveISaIcEEvRT_S2_St17integral_constantIbLb1EE
FN:543,_ZSt15__alloc_on_moveISaIcEEvRT_S2_
FNDA:0,_ZNSt16allocator_traitsISaISt13_Rb_tree_nodeINSt7__cxx1112basic_stringIcSt11char_traitsIcESaIcEEEEEE8allocateERS8_m
FNDA:2,_ZNSt16allocator_traitsISaIPN4Json5ValueEEE8allocateERS3_m
FNDA:2,_ZNSt16allocator_traitsISaIPPN4Json5ValueEEE8allocateERS4_m
FNDA:4798,_ZNSt16allocator_traitsISaISt13_Rb_tree_nodeISt4pairIKN4Json5Value8CZStringES3_EEEE8allocateERS8_m
FNDA:2,_ZNSt16allocator_traitsISaIPN4Json9OurReader9ErrorInfoEEE8allocateERS4_m
FNDA:0,_ZNSt16allocator_traitsISaIPN4Json6Reader9ErrorInfoEEE8allocateERS4_m
FNDA:0,_ZNSt16allocator_traitsISaIN4Json12PathArgumentEEE8allocateERS2_m
FNDA:0,_ZNSt16allocator_traitsISaIPKN4Json12PathArgumentEEE8allocateERS4_m
FNDA:0,_ZNSt16allocator_traitsISaINSt7__cxx1112basic_stringIcSt11char_traitsIcESaIcEEEEE8allocateERS6_m
FNDA:0,_ZNSt16allocator_traitsISaIN4Json9OurReader15StructuredErrorEEE8allocateERS3_m
FNDA:2,_ZNSt16allocator_traitsISaIN4Json9OurReader9ErrorInfoEEE8allocateERS3_m
FNDA:0,_ZNSt16allocator_traitsISaIN4Json6Reader15StructuredErrorEEE8allocateERS3_m
FNDA:0,_ZNSt16allocator_traitsISaIN4Json6Reader9ErrorInfoEEE8allocateERS3_m
FNDA:0,_ZNSt16allocator_traitsISaIcEE8allocateERS0_m
FNDA:4798,_ZNSt16allocator_traitsISaISt13_Rb_tree_nodeISt4pairIKN4Json5Value8CZStringES3_EEEE10deallocateERS8_PS7_m
FNDA:0,_ZNSt16allocator_traitsISaISt13_Rb_tree_nodeINSt7__cxx1112basic_stringIcSt11char_traitsIcESaIcEEEEEE10deallocateERS8_PS7_m
FNDA:2,_ZNSt16allocator_traitsISaIPN4Json5ValueEEE10deallocateERS3_PS2_m
FNDA:0,_ZNSt16allocator_traitsISaIN4Json12PathArgumentEEE10deallocateERS2_PS1_m
FNDA:0,_ZNSt16allocator_traitsISaIN4Json9OurReader15StructuredErrorEEE10deallocateERS3_PS2_m
FNDA:2,_ZNSt16allocator_traitsISaIN4Json9OurReader9ErrorInfoEEE10deallocateERS3_PS2_m
FNDA:2,_ZNSt16allocator_traitsISaIPN4Json9OurReader9ErrorInfoEEE10deallocateERS4_PS3_m
FNDA:0,_ZNSt16allocator_traitsISaIN4Json6Reader15StructuredErrorEEE10deallocateERS3_PS2_m
FNDA:0,_ZNSt16allocator_traitsISaIN4Json6Reader9ErrorInfoEEE10deallocateERS3_PS2_m
FNDA:0,_ZNSt16allocator_traitsISaIPN4Json6Reader9ErrorInfoEEE10deallocateERS4_PS3_m
FNDA:2,_ZNSt16allocator_traitsISaIPPN4Json5ValueEEE10deallocateERS4_PS3_m
FNDA:0,_ZNSt16allocator_traitsISaIPKN4Json12PathArgumentEEE10deallocateERS4_PS3_m
FNDA:0,_ZNSt16allocator_traitsISaINSt7__cxx1112basic_stringIcSt11char_traitsIcESaIcEEEEE10deallocateERS6_PS5_m
FNDA:0,_ZNSt16allocator_traitsISaIcEE10deallocateERS0_Pcm
FNDA:2972,_ZNSt16allocator_traitsISaISt13_Rb_tree_nodeISt4pairIKN4Json5Value8CZStringES3_EEEE9constructIS6_JRKS6_EEEvRS8_PT_DpOT0_
FNDA:0,_ZNSt16allocator_traitsISaISt13_Rb_tree_nodeINSt7__cxx1112basic_stringIcSt11char_traitsIcESaIcEEEEEE9constructIS6_JS6_EEEvRS8_PT_DpOT0_
FNDA:0,_ZNSt16allocator_traitsISaISt13_Rb_tree_nodeISt4pairIKN4Json5Value8CZStringES3_EEEE9constructIS6_JRKSt21piecewise_construct_tSt5tupleIJRS5_EESE_IJEEEEEvRS8_PT_DpOT0_
FNDA:1826,_ZNSt16allocator_traitsISaISt13_Rb_tree_nodeISt4pairIKN4Json5Value8CZStringES3_EEEE9constructIS6_JRS6_EEEvRS8_PT_DpOT0_
FNDA:1808,_ZNSt16allocator_traitsISaIPN4Json5ValueEEE9constructIS2_JS2_EEEvRS3_PT_DpOT0_
FNDA:0,_ZNSt16allocator_traitsISaIN4Json12PathArgumentEEE9constructIS1_JS1_EEEvRS2_PT_DpOT0_
FNDA:0,_ZNSt16allocator_traitsISaIPKN4Json12PathArgumentEEE9constructIS3_JS3_EEEvRS4_PT_DpOT0_
FNDA:0,_ZNSt16allocator_traitsISaINSt7__cxx1112basic_stringIcSt11char_traitsIcESaIcEEEEE9constructIS5_JS5_EEEvRS6_PT_DpOT0_
FNDA:0,_ZNSt16allocator_traitsISaINSt7__cxx1112basic_stringIcSt11char_traitsIcESaIcEEEEE9constructIS5_JRKS5_EEEvRS6_PT_DpOT0_
FNDA:0,_ZNSt16allocator_traitsISaIN4Json12PathArgumentEEE9constructIS1_JRKS1_EEEvRS2_PT_DpOT0_
FNDA:0,_ZNSt16allocator_traitsISaIN4Json9OurReader15StructuredErrorEEE9constructIS2_JRKS2_EEEvRS3_PT_DpOT0_
FNDA:0,_ZNSt16allocator_traitsISaIN4Json9OurReader9ErrorInfoEEE9constructIS2_JRKS2_EEEvRS3_PT_DpOT0_
FNDA:0,_ZNSt16allocator_traitsISaIN4Json6Reader15StructuredErrorEEE9constructIS2_JRKS2_EEEvRS3_PT_DpOT0_
FNDA:0,_ZNSt16allocator_traitsISaIN4Json6Reader9ErrorInfoEEE9constructIS2_JRKS2_EEEvRS3_PT_DpOT0_
FNDA:4798,_ZNSt16allocator_traitsISaISt13_Rb_tree_nodeISt4pairIKN4Json5Value8CZStringES3_EEEE7destroyIS6_EEvRS8_PT_
FNDA:0,_ZNSt16allocator_traitsISaISt13_Rb_tree_nodeINSt7__cxx1112basic_stringIcSt11char_traitsIcESaIcEEEEEE7destroyIS6_EEvRS8_PT_
FNDA:0,_ZNSt16allocator_traitsISaIPKN4Json12PathArgumentEEE7destroyIS3_EEvRS4_PT_
FNDA:0,_ZNSt16allocator_traitsISaINSt7__cxx1112basic_stringIcSt11char_traitsIcESaIcEEEEE7destroyIS5_EEvRS6_PT_
FNDA:0,_ZNSt16allocator_traitsISaIN4Json12PathArgumentEEE7destroyIS1_EEvRS2_PT_
FNDA:0,_ZNSt16allocator_traitsISaIN4Json9OurReader15StructuredErrorEEE7destroyIS2_EEvRS3_PT_
FNDA:0,_ZNSt16allocator_traitsISaIN4Json6Reader15StructuredErrorEEE7destroyIS2_EEvRS3_PT_
FNDA:1808,_ZNSt16allocator_traitsISaIPN4Json5ValueEEE7destroyIS2_EEvRS3_PT_
FNDA:0,_ZNSt16allocator_traitsISaIN4Json9OurReader9ErrorInfoEEE8max_sizeERKS3_
FNDA:0,_ZNSt16allocator_traitsISaIN4Json6Reader9ErrorInfoEEE8max_sizeERKS3_
FNDA:0,_ZNSt16allocator_traitsISaIN4Json12PathArgumentEEE8max_sizeERKS2_
FNDA:0,_ZNSt16allocator_traitsISaIN4Json9OurReader15StructuredErrorEEE8max_sizeERKS3_
FNDA:0,_ZNSt16allocator_traitsISaIN4Json6Reader15StructuredErrorEEE8max_sizeERKS3_
FNDA:0,_ZNSt16allocator_traitsISaIcEE8max_sizeERKS0_
FNDA:0,_ZNSt16allocator_traitsISaIPKN4Json12PathArgumentEEE8max_sizeERKS4_
FNDA:0,_ZNSt16allocator_traitsISaINSt7__cxx1112basic_stringIcSt11char_traitsIcESaIcEEEEE8max_sizeERKS6_
FNDA:628,_ZNSt16allocator_traitsISaISt13_Rb_tree_nodeISt4pairIKN4Json5Value8CZStringES3_EEEE37select_on_container_copy_constructionERKS8_
FNDA:0,_ZNSt16allocator_traitsISaIcEE37select_on_container_copy_constructionERKS0_
FNDA:0,_ZSt18__do_alloc_on_copyISaIcEEvRT_RKS1_St17integral_constantIbLb0EE
FNDA:0,_ZSt15__alloc_on_copyISaIcEEvRT_RKS1_
FNDA:0,_ZSt18__do_alloc_on_moveISaIcEEvRT_S2_St17integral_constantIbLb1EE
FNDA:0,_ZSt15__alloc_on_moveISaIcEEvRT_S2_
FNF:64
FNH:16
DA:435,4806
DA:436,4806
DA:437,0
DA:438,0
DA:439,2
DA:440,2
DA:441,2
DA:442,2
DA:443,4798
DA:444,4798
DA:445,2
DA:446,2
DA:447,0
DA:448,0
DA:449,0
DA:450,0
DA:451,0
DA:452,0
DA:453,0
DA:454,0
DA:455,0
DA:456,0
DA:457,2
DA:458,2
DA:459,0
DA:460,0
DA:461,0
DA:462,0
DA:463,0
DA:464,0
DA:489,4806
DA:490,4806
DA:491,4798
DA:492,4798
DA:493,0
DA:494,0
DA:495,2
DA:496,2
DA:497,0
DA:498,0
DA:499,0
DA:500,0
DA:501,2
DA:502,2
DA:503,2
DA:504,2
DA:505,0
DA:506,0
DA:507,0
DA:508,0
DA:509,0
DA:510,0
DA:511,2
DA:512,2
DA:513,0
DA:514,0
DA:515,0
DA:516,0
DA:517,0
DA:518,0
DA:530,6606
DA:531,6606
DA:532,2972
DA:533,2972
DA:534,0
DA:535,0
DA:536,0
DA:537,0
DA:538,1826
DA:539,1826
DA:540,1808
DA:541,1808
DA:542,0
DA:543,0
DA:544,0
DA:545,0
DA:546,0
DA:547,0
DA:548,0
DA:549,0
DA:550,0
DA:551,0
DA:552,0
DA:553,0
DA:554,0
DA:555,0
DA:556,0
DA:557,0
DA:558,0
DA:559,0
DA:570,6606
DA:571,6606
DA:572,4798
DA:573,4798
DA:574,0
DA:575,0
DA:576,0
DA:577,0
DA:578,0
DA:579,0
DA:580,0
DA:581,0
DA:582,0
DA:583,0
DA:584,0
DA:585,0
DA:586,1808
DA:587,1808
DA:595,0
DA:596,0
DA:597,0
DA:598,0
DA:599,0
DA:600,0
DA:601,0
DA:602,0
DA:603,0
DA:604,0
DA:605,0
DA:606,0
DA:607,0
DA:608,0
DA:609,0
DA:610,0
DA:611,0
DA:612,0
DA:620,628
DA:621,628
DA:622,628
DA:623,628
DA:624,0
DA:625,0
DA:636,0
DA:637,0
DA:640,0
DA:644,0
DA:645,0
DA:655,0
DA:656,0
DA:663,0
DA:667,0
DA:668,0
LF:142
LH:42
end_of_record
SF:/usr/include/c++/8/bits/allocator.h
FN:131,_ZNSaISt13_Rb_tree_nodeINSt7__cxx1112basic_stringIcSt11char_traitsIcESaIcEEEEEC2Ev
FN:131,_ZNSaIN4Json6Reader9ErrorInfoEEC2Ev
FN:131,_ZNSaISt13_Rb_tree_nodeISt4pairIKN4Json5Value8CZStringES2_EEEC2Ev
FN:131,_ZNSaIPKN4Json12PathArgumentEEC2Ev
FN:131,_ZNSaIN4Json12PathArgumentEEC2Ev
FN:131,_ZNSaIPN4Json5ValueEEC2Ev
FN:131,_ZNSaIN4Json9OurReader9ErrorInfoEEC2Ev
FN:131,_ZNSaINSt7__cxx1112basic_stringIcSt11char_traitsIcESaIcEEEEC2Ev
FN:131,_ZNSaIN4Json9OurReader15StructuredErrorEEC2Ev
FN:131,_ZNSaIN4Json6Reader15StructuredErrorEEC2Ev
FN:133,_ZNSaINSt7__cxx1112basic_stringIcSt11char_traitsIcESaIcEEEEC2ERKS5_
FN:133,_ZNSaISt13_Rb_tree_nodeISt4pairIKN4Json5Value8CZStringES2_EEEC2ERKS7_
FN:137,_ZNSaIPN4Json6Reader9ErrorInfoEEC2IS1_EERKSaIT_E
FN:137,_ZNSaIPN4Json9OurReader9ErrorInfoEEC2IS1_EERKSaIT_E
FN:137,_ZNSaIPPN4Json5ValueEEC2IS1_EERKSaIT_E
FN:139,_ZNSaIN4Json9OurReader9ErrorInfoEED2Ev
FN:139,_ZNSaIN4Json6Reader9ErrorInfoEED2Ev
FN:139,_ZNSaINSt7__cxx1112basic_stringIcSt11char_traitsIcESaIcEEEED2Ev
FN:139,_ZNSaIN4Json9OurReader15StructuredErrorEED2Ev
FN:139,_ZNSaIPN4Json6Reader9ErrorInfoEED2Ev
FN:139,_ZNSaIPPN4Json5ValueEED2Ev
FN:139,_ZNSaIPKN4Json12PathArgumentEED2Ev
FN:139,_ZNSaIPN4Json5ValueEED2Ev
FN:139,_ZNSaIN4Json6Reader15StructuredErrorEED2Ev
FN:139,_ZNSaIPN4Json9OurReader9ErrorInfoEED2Ev
FN:139,_ZNSaISt13_Rb_tree_nodeINSt7__cxx1112basic_stringIcSt11char_traitsIcESaIcEEEEED2Ev
FN:139,_ZNSaIN4Json12PathArgumentEED2Ev
FN:139,_ZNSaISt13_Rb_tree_nodeISt4pairIKN4Json5Value8CZStringES2_EEED2Ev
FN:152,_ZSteqIcEbRKSaIT_ES3_
FN:164,_ZStneIcEbRKSaIT_ES3_
FNDA:2,_ZNSaIPN4Json5ValueEEC2Ev
FNDA:0,_ZNSaIPKN4Json12PathArgumentEEC2Ev
FNDA:0,_ZNSaIN4Json12PathArgumentEEC2Ev
FNDA:0,_ZNSaINSt7__cxx1112basic_stringIcSt11char_traitsIcESaIcEEEEC2Ev
FNDA:0,_ZNSaIN4Json9OurReader15StructuredErrorEEC2Ev
FNDA:2,_ZNSaIN4Json9OurReader9ErrorInfoEEC2Ev
FNDA:0,_ZNSaIN4Json6Reader15StructuredErrorEEC2Ev
FNDA:0,_ZNSaIN4Json6Reader9ErrorInfoEEC2Ev
FNDA:418,_ZNSaISt13_Rb_tree_nodeISt4pairIKN4Json5Value8CZStringES2_EEEC2Ev
FNDA:0,_ZNSaISt13_Rb_tree_nodeINSt7__cxx1112basic_stringIcSt11char_traitsIcESaIcEEEEEC2Ev
FNDA:0,_ZNSaINSt7__cxx1112basic_stringIcSt11char_traitsIcESaIcEEEEC2ERKS5_
FNDA:628,_ZNSaISt13_Rb_tree_nodeISt4pairIKN4Json5Value8CZStringES2_EEEC2ERKS7_
FNDA:4,_ZNSaIPN4Json9OurReader9ErrorInfoEEC2IS1_EERKSaIT_E
FNDA:0,_ZNSaIPN4Json6Reader9ErrorInfoEEC2IS1_EERKSaIT_E
FNDA:4,_ZNSaIPPN4Json5ValueEEC2IS1_EERKSaIT_E
FNDA:4,_ZNSaIPN4Json9OurReader9ErrorInfoEED2Ev
FNDA:0,_ZNSaIPN4Json6Reader9ErrorInfoEED2Ev
FNDA:4,_ZNSaIPPN4Json5ValueEED2Ev
FNDA:0,_ZNSaIPKN4Json12PathArgumentEED2Ev
FNDA:0,_ZNSaIN4Json12PathArgumentEED2Ev
FNDA:0,_ZNSaINSt7__cxx1112basic_stringIcSt11char_traitsIcESaIcEEEED2Ev
FNDA:0,_ZNSaIN4Json9OurReader15StructuredErrorEED2Ev
FNDA:2,_ZNSaIN4Json9OurReader9ErrorInfoEED2Ev
FNDA:0,_ZNSaIN4Json6Reader15StructuredErrorEED2Ev
FNDA:0,_ZNSaIN4Json6Reader9ErrorInfoEED2Ev
FNDA:2,_ZNSaIPN4Json5ValueEED2Ev
FNDA:1046,_ZNSaISt13_Rb_tree_nodeISt4pairIKN4Json5Value8CZStringES2_EEED2Ev
FNDA:0,_ZNSaISt13_Rb_tree_nodeINSt7__cxx1112basic_stringIcSt11char_traitsIcESaIcEEEEED2Ev
FNDA:0,_ZSteqIcEbRKSaIT_ES3_
FNDA:0,_ZStneIcEbRKSaIT_ES3_
FNF:30
FNH:11
DA:131,422
DA:133,628
DA:134,628
DA:135,0
DA:136,0
DA:137,628
DA:138,628
DA:141,8
DA:143,1058
DA:156,0
DA:158,0
DA:168,0
DA:170,0
LF:13
LH:7
end_of_record
SF:/usr/include/c++/8/bits/basic_string.h
FN:145,_ZNSt7__cxx1112basic_stringIcSt11char_traitsIcESaIcEE12_Alloc_hiderC2EPcRKS3_
FN:148,_ZNSt7__cxx1112basic_stringIcSt11char_traitsIcESaIcEE12_Alloc_hiderC2EPcOS3_
FN:167,_ZNSt7__cxx1112basic_stringIcSt11char_traitsIcESaIcEE7_M_dataEPc
FN:171,_ZNSt7__cxx1112basic_stringIcSt11char_traitsIcESaIcEE9_M_lengthEm
FN:175,_ZNKSt7__cxx1112basic_stringIcSt11char_traitsIcESaIcEE7_M_dataEv
FN:179,_ZNSt7__cxx1112basic_stringIcSt11char_traitsIcESaIcEE13_M_local_dataEv
FN:189,_ZNKSt7__cxx1112basic_stringIcSt11char_traitsIcESaIcEE13_M_local_dataEv
FN:199,_ZNSt7__cxx1112basic_stringIcSt11char_traitsIcESaIcEE11_M_capacityEm
FN:203,_ZNSt7__cxx1112basic_stringIcSt11char_traitsIcESaIcEE13_M_set_lengthEm
FN:210,_ZNKSt7__cxx1112basic_stringIcSt11char_traitsIcESaIcEE11_M_is_localEv
FN:218,_ZNSt7__cxx1112basic_stringIcSt11char_traitsIcESaIcEE10_M_disposeEv
FN:225,_ZNSt7__cxx1112basic_stringIcSt11char_traitsIcESaIcEE10_M_destroyEm
FN:232,_ZNSt7__cxx1112basic_stringIcSt11char_traitsIcESaIcEE16_M_construct_auxIPKcEEvT_S8_St12__false_type
FN:232,_ZNSt7__cxx1112basic_stringIcSt11char_traitsIcESaIcEE16_M_construct_auxIPcEEvT_S7_St12__false_type
FN:252,_ZNSt7__cxx1112basic_stringIcSt11char_traitsIcESaIcEE12_M_constructIPcEEvT_S7_
FN:252,_ZNSt7__cxx1112basic_stringIcSt11char_traitsIcESaIcEE12_M_constructIPKcEEvT_S8_
FN:275,_ZNSt7__cxx1112basic_stringIcSt11char_traitsIcESaIcEE16_M_get_allocatorEv
FN:279,_ZNKSt7__cxx1112basic_stringIcSt11char_traitsIcESaIcEE16_M_get_allocatorEv
FN:299,_ZNKSt7__cxx1112basic_stringIcSt11char_traitsIcESaIcEE8_M_checkEmPKc
FN:309,_ZNKSt7__cxx1112basic_stringIcSt11char_traitsIcESaIcEE15_M_check_lengthEmmPKc
FN:318,_ZNKSt7__cxx1112basic_stringIcSt11char_traitsIcESaIcEE8_M_limitEmm
FN:326,_ZNKSt7__cxx1112basic_stringIcSt11char_traitsIcESaIcEE11_M_disjunctEPKc
FN:335,_ZNSt7__cxx1112basic_stringIcSt11char_traitsIcESaIcEE7_S_copyEPcPKcm
FN:344,_ZNSt7__cxx1112basic_stringIcSt11char_traitsIcESaIcEE7_S_moveEPcPKcm
FN:353,_ZNSt7__cxx1112basic_stringIcSt11char_traitsIcESaIcEE9_S_assignEPcmc
FN:381,_ZNSt7__cxx1112basic_stringIcSt11char_traitsIcESaIcEE13_S_copy_charsEPcS5_S5_
FN:385,_ZNSt7__cxx1112basic_stringIcSt11char_traitsIcESaIcEE13_S_copy_charsEPcPKcS7_
FN:390,_ZNSt7__cxx1112basic_stringIcSt11char_traitsIcESaIcEE10_S_compareEmm
FN:420,_ZNSt7__cxx1112basic_stringIcSt11char_traitsIcESaIcEEC2Ev
FN:437,_ZNSt7__cxx1112basic_stringIcSt11char_traitsIcESaIcEEC2ERKS4_
FN:499,_ZNSt7__cxx1112basic_stringIcSt11char_traitsIcESaIcEEC2EPKcmRKS3_
FN:514,_ZNSt7__cxx1112basic_stringIcSt11char_traitsIcESaIcEEC2IS3_EEPKcRKS3_
FN:529,_ZNSt7__cxx1112basic_stringIcSt11char_traitsIcESaIcEEC2IS3_EEmcRKS3_
FN:541,_ZNSt7__cxx1112basic_stringIcSt11char_traitsIcESaIcEEC2EOS4_
FN:614,_ZNSt7__cxx1112basic_stringIcSt11char_traitsIcESaIcEEC2IPKcvEET_S8_RKS3_
FN:656,_ZNSt7__cxx1112basic_stringIcSt11char_traitsIcESaIcEED2Ev
FN:664,_ZNSt7__cxx1112basic_stringIcSt11char_traitsIcESaIcEEaSERKS4_
FN:703,_ZNSt7__cxx1112basic_stringIcSt11char_traitsIcESaIcEEaSEPKc
FN:732,_ZNSt7__cxx1112basic_stringIcSt11char_traitsIcESaIcEEaSEOS4_
FN:826,_ZNSt7__cxx1112basic_stringIcSt11char_traitsIcESaIcEE5beginEv
FN:834,_ZNKSt7__cxx1112basic_stringIcSt11char_traitsIcESaIcEE5beginEv
FN:842,_ZNSt7__cxx1112basic_stringIcSt11char_traitsIcESaIcEE3endEv
FN:850,_ZNKSt7__cxx1112basic_stringIcSt11char_traitsIcESaIcEE3endEv
FN:930,_ZNKSt7__cxx1112basic_stringIcSt11char_traitsIcESaIcEE4sizeEv
FN:936,_ZNKSt7__cxx1112basic_stringIcSt11char_traitsIcESaIcEE6lengthEv
FN:941,_ZNKSt7__cxx1112basic_stringIcSt11char_traitsIcESaIcEE8max_sizeEv
FN:968,_ZNSt7__cxx1112basic_stringIcSt11char_traitsIcESaIcEE6resizeEm
FN:993,_ZNKSt7__cxx1112basic_stringIcSt11char_traitsIcESaIcEE8capacityEv
FN:1023,_ZNSt7__cxx1112basic_stringIcSt11char_traitsIcESaIcEE5clearEv
FN:1031,_ZNKSt7__cxx1112basic_stringIcSt11char_traitsIcESaIcEE5emptyEv
FN:1063,_ZNSt7__cxx1112basic_stringIcSt11char_traitsIcESaIcEEixEm
FN:1143,_ZNSt7__cxx1112basic_stringIcSt11char_traitsIcESaIcEE4backEv
FN:1168,_ZNSt7__cxx1112basic_stringIcSt11char_traitsIcESaIcEEpLERKS4_
FN:1177,_ZNSt7__cxx1112basic_stringIcSt11char_traitsIcESaIcEEpLEPKc
FN:1186,_ZNSt7__cxx1112basic_stringIcSt11char_traitsIcESaIcEEpLEc
FN:1221,_ZNSt7__cxx1112basic_stringIcSt11char_traitsIcESaIcEE6appendERKS4_
FN:1250,_ZNSt7__cxx1112basic_stringIcSt11char_traitsIcESaIcEE6appendEPKcm
FN:1263,_ZNSt7__cxx1112basic_stringIcSt11char_traitsIcESaIcEE6appendEPKc
FN:1280,_ZNSt7__cxx1112basic_stringIcSt11char_traitsIcESaIcEE6appendEmc
FN:1349,_ZNSt7__cxx1112basic_stringIcSt11char_traitsIcESaIcEE9push_backEc
FN:1364,_ZNSt7__cxx1112basic_stringIcSt11char_traitsIcESaIcEE6assignERKS4_
FN:1435,_ZNSt7__cxx1112basic_stringIcSt11char_traitsIcESaIcEE6assignEPKc
FN:1470,_ZNSt7__cxx1112basic_stringIcSt11char_traitsIcESaIcEE6assignIN9__gnu_cxx17__normal_iteratorIPKcS4_EEvEERS4_T_SC_
FN:1696,_ZNSt7__cxx1112basic_stringIcSt11char_traitsIcESaIcEE6insertEmPKc
FN:1836,_ZNSt7__cxx1112basic_stringIcSt11char_traitsIcESaIcEE5eraseEN9__gnu_cxx17__normal_iteratorIPKcS4_EES9_
FN:1855,_ZNSt7__cxx1112basic_stringIcSt11char_traitsIcESaIcEE8pop_backEv
FN:1927,_ZNSt7__cxx1112basic_stringIcSt11char_traitsIcESaIcEE7replaceEmmPKcm
FN:2147,_ZNSt7__cxx1112basic_stringIcSt11char_traitsIcESaIcEE7replaceEN9__gnu_cxx17__normal_iteratorIPKcS4_EES9_S9_S9_
FN:2290,_ZNKSt7__cxx1112basic_stringIcSt11char_traitsIcESaIcEE5c_strEv
FN:2302,_ZNKSt7__cxx1112basic_stringIcSt11char_traitsIcESaIcEE4dataEv
FN:2313,_ZNSt7__cxx1112basic_stringIcSt11char_traitsIcESaIcEE4dataEv
FN:2843,_ZNKSt7__cxx1112basic_stringIcSt11char_traitsIcESaIcEE7compareERKS4_
FN:6016,_ZStplIcSt11char_traitsIcESaIcEENSt7__cxx1112basic_stringIT_T0_T1_EEPKS5_OS8_
FN:6028,_ZStplIcSt11char_traitsIcESaIcEENSt7__cxx1112basic_stringIT_T0_T1_EEOS8_PKS5_
FN:6082,_ZSteqIcSt11char_traitsIcESaIcEEbRKNSt7__cxx1112basic_stringIT_T0_T1_EEPKS5_
FN:6133,_ZStltIcSt11char_traitsIcESaIcEEbRKNSt7__cxx1112basic_stringIT_T0_T1_EESA_
FNDA:0,_ZNSt7__cxx1112basic_stringIcSt11char_traitsIcESaIcEE12_Alloc_hiderC2EPcRKS3_
FNDA:0,_ZNSt7__cxx1112basic_stringIcSt11char_traitsIcESaIcEE12_Alloc_hiderC2EPcOS3_
FNDA:0,_ZNSt7__cxx1112basic_stringIcSt11char_traitsIcESaIcEE7_M_dataEPc
FNDA:0,_ZNSt7__cxx1112basic_stringIcSt11char_traitsIcESaIcEE9_M_lengthEm
FNDA:0,_ZNKSt7__cxx1112basic_stringIcSt11char_traitsIcESaIcEE7_M_dataEv
FNDA:0,_ZNSt7__cxx1112basic_stringIcSt11char_traitsIcESaIcEE13_M_local_dataEv
FNDA:0,_ZNKSt7__cxx1112basic_stringIcSt11char_traitsIcESaIcEE13_M_local_dataEv
FNDA:0,_ZNSt7__cxx1112basic_stringIcSt11char_traitsIcESaIcEE11_M_capacityEm
FNDA:0,_ZNSt7__cxx1112basic_stringIcSt11char_traitsIcESaIcEE13_M_set_lengthEm
FNDA:0,_ZNKSt7__cxx1112basic_stringIcSt11char_traitsIcESaIcEE11_M_is_localEv
FNDA:0,_ZNSt7__cxx1112basic_stringIcSt11char_traitsIcESaIcEE10_M_disposeEv
FNDA:0,_ZNSt7__cxx1112basic_stringIcSt11char_traitsIcESaIcEE10_M_destroyEm
FNDA:0,_ZNSt7__cxx1112basic_stringIcSt11char_traitsIcESaIcEE16_M_construct_auxIPcEEvT_S7_St12__false_type
FNDA:0,_ZNSt7__cxx1112basic_stringIcSt11char_traitsIcESaIcEE16_M_construct_auxIPKcEEvT_S8_St12__false_type
FNDA:0,_ZNSt7__cxx1112basic_stringIcSt11char_traitsIcESaIcEE12_M_constructIPcEEvT_S7_
FNDA:0,_ZNSt7__cxx1112basic_stringIcSt11char_traitsIcESaIcEE12_M_constructIPKcEEvT_S8_
FNDA:0,_ZNSt7__cxx1112basic_stringIcSt11char_traitsIcESaIcEE16_M_get_allocatorEv
FNDA:0,_ZNKSt7__cxx1112basic_stringIcSt11char_traitsIcESaIcEE16_M_get_allocatorEv
FNDA:0,_ZNKSt7__cxx1112basic_stringIcSt11char_traitsIcESaIcEE8_M_checkEmPKc
FNDA:0,_ZNKSt7__cxx1112basic_stringIcSt11char_traitsIcESaIcEE15_M_check_lengthEmmPKc
FNDA:0,_ZNKSt7__cxx1112basic_stringIcSt11char_traitsIcESaIcEE8_M_limitEmm
FNDA:0,_ZNKSt7__cxx1112basic_stringIcSt11char_traitsIcESaIcEE11_M_disjunctEPKc
FNDA:0,_ZNSt7__cxx1112basic_stringIcSt11char_traitsIcESaIcEE7_S_copyEPcPKcm
FNDA:0,_ZNSt7__cxx1112basic_stringIcSt11char_traitsIcESaIcEE7_S_moveEPcPKcm
FNDA:0,_ZNSt7__cxx1112basic_stringIcSt11char_traitsIcESaIcEE9_S_assignEPcmc
FNDA:0,_ZNSt7__cxx1112basic_stringIcSt11char_traitsIcESaIcEE13_S_copy_charsEPcS5_S5_
FNDA:0,_ZNSt7__cxx1112basic_stringIcSt11char_traitsIcESaIcEE13_S_copy_charsEPcPKcS7_
FNDA:0,_ZNSt7__cxx1112basic_stringIcSt11char_traitsIcESaIcEE10_S_compareEmm
FNDA:0,_ZNSt7__cxx1112basic_stringIcSt11char_traitsIcESaIcEEC2Ev
FNDA:0,_ZNSt7__cxx1112basic_stringIcSt11char_traitsIcESaIcEEC2ERKS4_
FNDA:0,_ZNSt7__cxx1112basic_stringIcSt11char_traitsIcESaIcEEC2EPKcmRKS3_
FNDA:0,_ZNSt7__cxx1112basic_stringIcSt11char_traitsIcESaIcEEC2IS3_EEPKcRKS3_
FNDA:0,_ZNSt7__cxx1112basic_stringIcSt11char_traitsIcESaIcEEC2IS3_EEmcRKS3_
FNDA:0,_ZNSt7__cxx1112basic_stringIcSt11char_traitsIcESaIcEEC2EOS4_
FNDA:0,_ZNSt7__cxx1112basic_stringIcSt11char_traitsIcESaIcEEC2IPKcvEET_S8_RKS3_
FNDA:0,_ZNSt7__cxx1112basic_stringIcSt11char_traitsIcESaIcEED2Ev
FNDA:0,_ZNSt7__cxx1112basic_stringIcSt11char_traitsIcESaIcEEaSERKS4_
FNDA:0,_ZNSt7__cxx1112basic_stringIcSt11char_traitsIcESaIcEEaSEPKc
FNDA:0,_ZNSt7__cxx1112basic_stringIcSt11char_traitsIcESaIcEEaSEOS4_
FNDA:0,_ZNSt7__cxx1112basic_stringIcSt11char_traitsIcESaIcEE5beginEv
FNDA:0,_ZNKSt7__cxx1112basic_stringIcSt11char_traitsIcESaIcEE5beginEv
FNDA:0,_ZNSt7__cxx1112basic_stringIcSt11char_traitsIcESaIcEE3endEv
FNDA:0,_ZNKSt7__cxx1112basic_stringIcSt11char_traitsIcESaIcEE3endEv
FNDA:0,_ZNKSt7__cxx1112basic_stringIcSt11char_traitsIcESaIcEE4sizeEv
FNDA:0,_ZNKSt7__cxx1112basic_stringIcSt11char_traitsIcESaIcEE6lengthEv
FNDA:0,_ZNKSt7__cxx1112basic_stringIcSt11char_traitsIcESaIcEE8max_sizeEv
FNDA:0,_ZNSt7__cxx1112basic_stringIcSt11char_traitsIcESaIcEE6resizeEm
FNDA:0,_ZNKSt7__cxx1112basic_stringIcSt11char_traitsIcESaIcEE8capacityEv
FNDA:0,_ZNSt7__cxx1112basic_stringIcSt11char_traitsIcESaIcEE5clearEv
FNDA:0,_ZNKSt7__cxx1112basic_stringIcSt11char_traitsIcESaIcEE5emptyEv
FNDA:0,_ZNSt7__cxx1112basic_stringIcSt11char_traitsIcESaIcEEixEm
FNDA:0,_ZNSt7__cxx1112basic_stringIcSt11char_traitsIcESaIcEE4backEv
FNDA:0,_ZNSt7__cxx1112basic_stringIcSt11char_traitsIcESaIcEEpLERKS4_
FNDA:0,_ZNSt7__cxx1112basic_stringIcSt11char_traitsIcESaIcEEpLEPKc
FNDA:0,_ZNSt7__cxx1112basic_stringIcSt11char_traitsIcESaIcEEpLEc
FNDA:0,_ZNSt7__cxx1112basic_stringIcSt11char_traitsIcESaIcEE6appendERKS4_
FNDA:0,_ZNSt7__cxx1112basic_stringIcSt11char_traitsIcESaIcEE6appendEPKcm
FNDA:0,_ZNSt7__cxx1112basic_stringIcSt11char_traitsIcESaIcEE6appendEPKc
FNDA:0,_ZNSt7__cxx1112basic_stringIcSt11char_traitsIcESaIcEE6appendEmc
FNDA:0,_ZNSt7__cxx1112basic_stringIcSt11char_traitsIcESaIcEE9push_backEc
FNDA:0,_ZNSt7__cxx1112basic_stringIcSt11char_traitsIcESaIcEE6assignERKS4_
FNDA:0,_ZNSt7__cxx1112basic_stringIcSt11char_traitsIcESaIcEE6assignEPKc
FNDA:0,_ZNSt7__cxx1112basic_stringIcSt11char_traitsIcESaIcEE6assignIN9__gnu_cxx17__normal_iteratorIPKcS4_EEvEERS4_T_SC_
FNDA:0,_ZNSt7__cxx1112basic_stringIcSt11char_traitsIcESaIcEE6insertEmPKc
FNDA:0,_ZNSt7__cxx1112basic_stringIcSt11char_traitsIcESaIcEE5eraseEN9__gnu_cxx17__normal_iteratorIPKcS4_EES9_
FNDA:0,_ZNSt7__cxx1112basic_stringIcSt11char_traitsIcESaIcEE8pop_backEv
FNDA:0,_ZNSt7__cxx1112basic_stringIcSt11char_traitsIcESaIcEE7replaceEmmPKcm
FNDA:0,_ZNSt7__cxx1112basic_stringIcSt11char_traitsIcESaIcEE7replaceEN9__gnu_cxx17__normal_iteratorIPKcS4_EES9_S9_S9_
FNDA:0,_ZNKSt7__cxx1112basic_stringIcSt11char_traitsIcESaIcEE5c_strEv
FNDA:0,_ZNKSt7__cxx1112basic_stringIcSt11char_traitsIcESaIcEE4dataEv
FNDA:0,_ZNSt7__cxx1112basic_stringIcSt11char_traitsIcESaIcEE4dataEv
FNDA:0,_ZNKSt7__cxx1112basic_stringIcSt11char_traitsIcESaIcEE7compareERKS4_
FNDA:0,_ZStplIcSt11char_traitsIcESaIcEENSt7__cxx1112basic_stringIT_T0_T1_EEPKS5_OS8_
FNDA:0,_ZStplIcSt11char_traitsIcESaIcEENSt7__cxx1112basic_stringIT_T0_T1_EEOS8_PKS5_
FNDA:0,_ZSteqIcSt11char_traitsIcESaIcEEbRKNSt7__cxx1112basic_stringIT_T0_T1_EEPKS5_
FNDA:0,_ZStltIcSt11char_traitsIcESaIcEEbRKNSt7__cxx1112basic_stringIT_T0_T1_EESA_
FNF:76
FNH:0
DA:145,0
DA:146,0
DA:148,0
DA:149,0
DA:167,0
DA:168,0
DA:171,0
DA:172,0
DA:175,0
DA:176,0
DA:179,0
DA:182,0
DA:189,0
DA:192,0
DA:199,0
DA:200,0
DA:203,0
DA:205,0
DA:206,0
DA:207,0
DA:210,0
DA:211,0
DA:218,0
DA:220,0
DA:221,0
DA:222,0
DA:225,0
DA:226,0
DA:232,0
DA:236,0
DA:237,0
DA:238,0
DA:242,0
DA:243,0
DA:244,0
DA:248,0
DA:249,0
DA:264,0
DA:267,0
DA:268,0
DA:269,0
DA:272,0
DA:273,0
DA:274,0
DA:277,0
DA:278,0
DA:297,0
DA:298,0
DA:301,0
DA:302,0
DA:321,0
DA:323,0
DA:324,0
DA:327,0
DA:331,0
DA:333,0
DA:334,0
DA:335,0
DA:340,0
DA:342,0
DA:343,0
DA:348,0
DA:350,0
DA:351,0
DA:357,0
DA:359,0
DA:360,0
DA:362,0
DA:363,0
DA:366,0
DA:368,0
DA:369,0
DA:371,0
DA:372,0
DA:375,0
DA:377,0
DA:378,0
DA:380,0
DA:381,0
DA:403,0
DA:404,0
DA:407,0
DA:409,0
DA:412,0
DA:414,0
DA:416,0
DA:417,0
DA:418,0
DA:419,0
DA:421,0
DA:442,0
DA:444,0
DA:445,0
DA:459,0
DA:461,0
DA:462,0
DA:521,0
DA:523,0
DA:524,0
DA:536,0
DA:537,0
DA:538,0
DA:551,0
DA:552,0
DA:553,0
DA:563,0
DA:564,0
DA:566,0
DA:568,0
DA:573,0
DA:574,0
DA:580,0
DA:581,0
DA:582,0
DA:583,0
DA:636,0
DA:638,0
DA:639,0
DA:678,0
DA:679,0
DA:686,0
DA:689,0
DA:691,0
DA:692,0
DA:696,0
DA:698,0
DA:699,0
DA:700,0
DA:704,0
DA:705,0
DA:707,0
DA:708,0
DA:709,0
DA:710,0
DA:711,0
DA:714,0
DA:717,0
DA:725,0
DA:726,0
DA:754,0
DA:757,0
DA:758,0
DA:759,0
DA:762,0
DA:763,0
DA:764,0
DA:767,0
DA:769,0
DA:772,0
DA:773,0
DA:774,0
DA:776,0
DA:777,0
DA:778,0
DA:781,0
DA:783,0
DA:785,0
DA:788,0
DA:789,0
DA:792,0
DA:795,0
DA:796,0
DA:797,0
DA:798,0
DA:800,0
DA:801,0
DA:804,0
DA:807,0
DA:808,0
DA:809,0
DA:848,0
DA:849,0
DA:856,0
DA:857,0
DA:864,0
DA:865,0
DA:872,0
DA:873,0
DA:952,0
DA:953,0
DA:958,0
DA:959,0
DA:963,0
DA:964,0
DA:990,0
DA:991,0
DA:1015,0
DA:1017,0
DA:1018,0
DA:1045,0
DA:1046,0
DA:1053,0
DA:1054,0
DA:1085,0
DA:1092,0
DA:1165,0
DA:1168,0
DA:1190,0
DA:1191,0
DA:1199,0
DA:1200,0
DA:1208,0
DA:1210,0
DA:1211,0
DA:1243,0
DA:1244,0
DA:1272,0
DA:1275,0
DA:1276,0
DA:1285,0
DA:1288,0
DA:1289,0
DA:1290,0
DA:1302,0
DA:1303,0
DA:1371,0
DA:1373,0
DA:1374,0
DA:1375,0
DA:1376,0
DA:1377,0
DA:1378,0
DA:1386,0
DA:1388,0
DA:1389,0
DA:1457,0
DA:1461,0
DA:1492,0
DA:1493,0
DA:1718,0
DA:1722,0
DA:1858,0
DA:1862,0
DA:1863,0
DA:1864,0
DA:1866,0
DA:1867,0
DA:1877,0
DA:1880,0
DA:1881,0
DA:1949,0
DA:1954,0
DA:2169,0
DA:2175,0
DA:2176,0
DA:2312,0
DA:2313,0
DA:2324,0
DA:2325,0
DA:2335,0
DA:2336,0
DA:2865,0
DA:2867,0
DA:2868,0
DA:2869,0
DA:2871,0
DA:2872,0
DA:2873,0
DA:2874,0
DA:6038,0
DA:6040,0
DA:6050,0
DA:6052,0
DA:6104,0
DA:6106,0
DA:6155,0
DA:6158,0
LF:267
LH:0
end_of_record
SF:/usr/include/c++/8/bits/basic_string.tcc
FN:132,_ZNSt7__cxx1112basic_stringIcSt11char_traitsIcESaIcEE9_M_createERmm
FN:206,_ZNSt7__cxx1112basic_stringIcSt11char_traitsIcESaIcEE12_M_constructIPKcEEvT_S8_St20forward_iterator_tag
FN:206,_ZNSt7__cxx1112basic_stringIcSt11char_traitsIcESaIcEE12_M_constructIPcEEvT_S7_St20forward_iterator_tag
FN:237,_ZNSt7__cxx1112basic_stringIcSt11char_traitsIcESaIcEE12_M_constructEmc
FN:254,_ZNSt7__cxx1112basic_stringIcSt11char_traitsIcESaIcEE9_M_assignERKS4_
FN:280,_ZNSt7__cxx1112basic_stringIcSt11char_traitsIcESaIcEE7reserveEm
FN:310,_ZNSt7__cxx1112basic_stringIcSt11char_traitsIcESaIcEE9_M_mutateEmmPKcm
FN:334,_ZNSt7__cxx1112basic_stringIcSt11char_traitsIcESaIcEE8_M_eraseEmm
FN:347,_ZNSt7__cxx1112basic_stringIcSt11char_traitsIcESaIcEE6resizeEmc
FN:359,_ZNSt7__cxx1112basic_stringIcSt11char_traitsIcESaIcEE9_M_appendEPKcm
FN:392,_ZNSt7__cxx1112basic_stringIcSt11char_traitsIcESaIcEE14_M_replace_auxEmmmc
FN:421,_ZNSt7__cxx1112basic_stringIcSt11char_traitsIcESaIcEE10_M_replaceEmmPKcm
FN:1157,_ZStplIcSt11char_traitsIcESaIcEENSt7__cxx1112basic_stringIT_T0_T1_EEPKS5_RKS8_
FN:1223,_ZNKSt7__cxx1112basic_stringIcSt11char_traitsIcESaIcEE4findEcm
FN:1417,_ZNKSt7__cxx1112basic_stringIcSt11char_traitsIcESaIcEE7compareEPKc
FNDA:0,_ZNSt7__cxx1112basic_stringIcSt11char_traitsIcESaIcEE9_M_createERmm
FNDA:0,_ZNSt7__cxx1112basic_stringIcSt11char_traitsIcESaIcEE12_M_constructIPcEEvT_S7_St20forward_iterator_tag
FNDA:0,_ZNSt7__cxx1112basic_stringIcSt11char_traitsIcESaIcEE12_M_constructIPKcEEvT_S8_St20forward_iterator_tag
FNDA:0,_ZNSt7__cxx1112basic_stringIcSt11char_traitsIcESaIcEE12_M_constructEmc
FNDA:0,_ZNSt7__cxx1112basic_stringIcSt11char_traitsIcESaIcEE9_M_assignERKS4_
FNDA:0,_ZNSt7__cxx1112basic_stringIcSt11char_traitsIcESaIcEE7reserveEm
FNDA:0,_ZNSt7__cxx1112basic_stringIcSt11char_traitsIcESaIcEE9_M_mutateEmmPKcm
FNDA:0,_ZNSt7__cxx1112basic_stringIcSt11char_traitsIcESaIcEE8_M_eraseEmm
FNDA:0,_ZNSt7__cxx1112basic_stringIcSt11char_traitsIcESaIcEE6resizeEmc
FNDA:0,_ZNSt7__cxx1112basic_stringIcSt11char_traitsIcESaIcEE9_M_appendEPKcm
FNDA:0,_ZNSt7__cxx1112basic_stringIcSt11char_traitsIcESaIcEE14_M_replace_auxEmmmc
FNDA:0,_ZNSt7__cxx1112basic_stringIcSt11char_traitsIcESaIcEE10_M_replaceEmmPKcm
FNDA:0,_ZStplIcSt11char_traitsIcESaIcEENSt7__cxx1112basic_stringIT_T0_T1_EEPKS5_RKS8_
FNDA:0,_ZNKSt7__cxx1112basic_stringIcSt11char_traitsIcESaIcEE4findEcm
FNDA:0,_ZNKSt7__cxx1112basic_stringIcSt11char_traitsIcESaIcEE7compareEPKc
FNF:15
FNH:0
DA:132,0
DA:137,0
DA:138,0
DA:143,0
DA:145,0
DA:147,0
DA:148,0
DA:153,0
DA:206,0
DA:211,0
DA:212,0
DA:215,0
DA:217,0
DA:219,0
DA:220,0
DA:225,0
DA:232,0
DA:233,0
DA:234,0
DA:239,0
DA:240,0
DA:243,0
DA:245,0
DA:247,0
DA:248,0
DA:253,0
DA:260,0
DA:261,0
DA:262,0
DA:267,0
DA:268,0
DA:271,0
DA:273,0
DA:275,0
DA:276,0
DA:281,0
DA:288,0
DA:289,0
DA:293,0
DA:296,0
DA:298,0
DA:299,0
DA:302,0
DA:303,0
DA:305,0
DA:306,0
DA:310,0
DA:313,0
DA:315,0
DA:316,0
DA:318,0
DA:320,0
DA:321,0
DA:322,0
DA:323,0
DA:324,0
DA:327,0
DA:328,0
DA:330,0
DA:332,0
DA:336,0
DA:340,0
DA:341,0
DA:343,0
DA:344,0
DA:346,0
DA:347,0
DA:349,0
DA:350,0
DA:351,0
DA:352,0
DA:353,0
DA:355,0
DA:357,0
DA:358,0
DA:359,0
DA:362,0
DA:366,0
DA:370,0
DA:372,0
DA:373,0
DA:375,0
DA:376,0
DA:377,0
DA:378,0
DA:379,0
DA:380,0
DA:381,0
DA:383,0
DA:384,0
DA:385,0
DA:386,0
DA:390,0
DA:393,0
DA:395,0
DA:396,0
DA:398,0
DA:399,0
DA:403,0
DA:406,0
DA:407,0
DA:408,0
DA:409,0
DA:410,0
DA:411,0
DA:415,0
DA:418,0
DA:420,0
DA:422,0
DA:423,0
DA:426,0
DA:428,0
DA:429,0
DA:448,0
DA:452,0
DA:454,0
DA:455,0
DA:457,0
DA:459,0
DA:461,0
DA:462,0
DA:463,0
DA:466,0
DA:468,0
DA:469,0
DA:471,0
DA:472,0
DA:477,0
DA:481,0
DA:483,0
DA:484,0
DA:486,0
DA:488,0
DA:490,0
DA:491,0
DA:493,0
DA:494,0
DA:495,0
DA:496,0
DA:501,0
DA:502,0
DA:503,0
DA:504,0
DA:505,0
DA:507,0
DA:508,0
DA:509,0
DA:510,0
DA:513,0
DA:514,0
DA:515,0
DA:522,0
DA:524,0
DA:525,0
DA:1213,0
DA:1219,0
DA:1220,0
DA:1221,0
DA:1222,0
DA:1223,0
DA:1224,0
DA:1279,0
DA:1282,0
DA:1283,0
DA:1284,0
DA:1286,0
DA:1287,0
DA:1288,0
DA:1289,0
DA:1290,0
DA:1292,0
DA:1473,0
DA:1477,0
DA:1478,0
DA:1479,0
DA:1480,0
DA:1481,0
DA:1482,0
DA:1483,0
LF:179
LH:0
end_of_record
SF:/usr/include/c++/8/bits/char_traits.h
FN:100,_ZN9__gnu_cxx11char_traitsIcE2eqERKcS3_
FN:104,_ZN9__gnu_cxx11char_traitsIcE2ltERKcS3_
FN:148,_ZN9__gnu_cxx11char_traitsIcE7compareEPKcS3_m
FN:161,_ZN9__gnu_cxx11char_traitsIcE6lengthEPKc
FN:172,_ZN9__gnu_cxx11char_traitsIcE4findEPKcmRS2_
FN:286,_ZNSt11char_traitsIcE6assignERcRKc
FN:302,_ZNSt11char_traitsIcE7compareEPKcS2_m
FN:316,_ZNSt11char_traitsIcE6lengthEPKc
FN:326,_ZNSt11char_traitsIcE4findEPKcmRS1_
FN:340,_ZNSt11char_traitsIcE4moveEPcPKcm
FN:348,_ZNSt11char_traitsIcE4copyEPcPKcm
FN:356,_ZNSt11char_traitsIcE6assignEPcmc
FNDA:0,_ZN9__gnu_cxx11char_traitsIcE2eqERKcS3_
FNDA:0,_ZN9__gnu_cxx11char_traitsIcE2ltERKcS3_
FNDA:0,_ZN9__gnu_cxx11char_traitsIcE7compareEPKcS3_m
FNDA:0,_ZN9__gnu_cxx11char_traitsIcE6lengthEPKc
FNDA:0,_ZN9__gnu_cxx11char_traitsIcE4findEPKcmRS2_
FNDA:0,_ZNSt11char_traitsIcE6assignERcRKc
FNDA:0,_ZNSt11char_traitsIcE7compareEPKcS2_m
FNDA:0,_ZNSt11char_traitsIcE6lengthEPKc
FNDA:0,_ZNSt11char_traitsIcE4findEPKcmRS1_
FNDA:0,_ZNSt11char_traitsIcE4moveEPcPKcm
FNDA:0,_ZNSt11char_traitsIcE4copyEPcPKcm
FNDA:0,_ZNSt11char_traitsIcE6assignEPcmc
FNF:12
FNH:0
DA:100,0
DA:101,0
DA:104,0
DA:105,0
DA:148,0
DA:151,0
DA:152,0
DA:153,0
DA:154,0
DA:155,0
DA:156,0
DA:161,0
DA:164,0
DA:165,0
DA:166,0
DA:167,0
DA:172,0
DA:175,0
DA:176,0
DA:177,0
DA:178,0
DA:235,0
DA:286,0
DA:287,0
DA:302,0
DA:305,0
DA:307,0
DA:308,0
DA:310,0
DA:311,0
DA:312,0
DA:316,0
DA:319,0
DA:320,0
DA:322,0
DA:326,0
DA:329,0
DA:331,0
DA:332,0
DA:334,0
DA:335,0
DA:336,0
DA:340,0
DA:342,0
DA:343,0
DA:344,0
DA:348,0
DA:350,0
DA:351,0
DA:352,0
DA:356,0
DA:358,0
DA:359,0
DA:360,0
LF:54
LH:0
end_of_record
SF:/usr/include/c++/8/bits/cpp_type_traits.h
FN:419,_ZSt12__miter_baseIPPN4Json6Reader9ErrorInfoEET_S5_
FN:419,_ZSt12__miter_baseIPPKN4Json12PathArgumentEET_S5_
FN:419,_ZSt12__miter_baseIPPN4Json9OurReader9ErrorInfoEET_S5_
FN:419,_ZSt12__miter_baseIPPPN4Json5ValueEET_S5_
FNDA:0,_ZSt12__miter_baseIPPKN4Json12PathArgumentEET_S5_
FNDA:0,_ZSt12__miter_baseIPPPN4Json5ValueEET_S5_
FNDA:0,_ZSt12__miter_baseIPPN4Json9OurReader9ErrorInfoEET_S5_
FNDA:0,_ZSt12__miter_baseIPPN4Json6Reader9ErrorInfoEET_S5_
FNF:4
FNH:0
DA:419,0
DA:420,0
DA:421,0
DA:422,0
DA:423,0
DA:424,0
DA:425,0
DA:426,0
DA:427,0
DA:428,0
LF:10
LH:0
end_of_record
SF:/usr/include/c++/8/bits/deque.tcc
FN:162,_ZNSt5dequeIPN4Json5ValueESaIS2_EE12emplace_backIJS2_EEERS2_DpOT_
FN:348,_ZNSt5dequeIN4Json9OurReader9ErrorInfoESaIS2_EE17_M_default_appendEm
FN:348,_ZNSt5dequeIN4Json6Reader9ErrorInfoESaIS2_EE17_M_default_appendEm
FN:479,_ZNSt5dequeIN4Json9OurReader9ErrorInfoESaIS2_EE16_M_push_back_auxIJRKS2_EEEvDpOT_
FN:479,_ZNSt5dequeIPN4Json5ValueESaIS2_EE16_M_push_back_auxIJS2_EEEvDpOT_
FN:479,_ZNSt5dequeIN4Json6Reader9ErrorInfoESaIS2_EE16_M_push_back_auxIJRKS2_EEEvDpOT_
FN:547,_ZNSt5dequeIPN4Json5ValueESaIS2_EE15_M_pop_back_auxEv
FN:846,_ZNSt5dequeIN4Json6Reader9ErrorInfoESaIS2_EE19_M_destroy_data_auxESt15_Deque_iteratorIS2_RS2_PS2_ES8_
FN:846,_ZNSt5dequeIN4Json9OurReader9ErrorInfoESaIS2_EE19_M_destroy_data_auxESt15_Deque_iteratorIS2_RS2_PS2_ES8_
FN:893,_ZNSt5dequeIN4Json6Reader9ErrorInfoESaIS2_EE23_M_new_elements_at_backEm
FN:893,_ZNSt5dequeIN4Json9OurReader9ErrorInfoESaIS2_EE23_M_new_elements_at_backEm
FN:918,_ZNSt5dequeIN4Json9OurReader9ErrorInfoESaIS2_EE17_M_reallocate_mapEmb
FN:918,_ZNSt5dequeIPN4Json5ValueESaIS2_EE17_M_reallocate_mapEmb
FN:918,_ZNSt5dequeIN4Json6Reader9ErrorInfoESaIS2_EE17_M_reallocate_mapEmb
FNDA:1808,_ZNSt5dequeIPN4Json5ValueESaIS2_EE12emplace_backIJS2_EEERS2_DpOT_
FNDA:0,_ZNSt5dequeIN4Json9OurReader9ErrorInfoESaIS2_EE17_M_default_appendEm
FNDA:0,_ZNSt5dequeIN4Json6Reader9ErrorInfoESaIS2_EE17_M_default_appendEm
FNDA:0,_ZNSt5dequeIPN4Json5ValueESaIS2_EE16_M_push_back_auxIJS2_EEEvDpOT_
FNDA:0,_ZNSt5dequeIN4Json9OurReader9ErrorInfoESaIS2_EE16_M_push_back_auxIJRKS2_EEEvDpOT_
FNDA:0,_ZNSt5dequeIN4Json6Reader9ErrorInfoESaIS2_EE16_M_push_back_auxIJRKS2_EEEvDpOT_
FNDA:0,_ZNSt5dequeIPN4Json5ValueESaIS2_EE15_M_pop_back_auxEv
FNDA:4,_ZNSt5dequeIN4Json9OurReader9ErrorInfoESaIS2_EE19_M_destroy_data_auxESt15_Deque_iteratorIS2_RS2_PS2_ES8_
FNDA:0,_ZNSt5dequeIN4Json6Reader9ErrorInfoESaIS2_EE19_M_destroy_data_auxESt15_Deque_iteratorIS2_RS2_PS2_ES8_
FNDA:0,_ZNSt5dequeIN4Json9OurReader9ErrorInfoESaIS2_EE23_M_new_elements_at_backEm
FNDA:0,_ZNSt5dequeIN4Json6Reader9ErrorInfoESaIS2_EE23_M_new_elements_at_backEm
FNDA:0,_ZNSt5dequeIPN4Json5ValueESaIS2_EE17_M_reallocate_mapEmb
FNDA:0,_ZNSt5dequeIN4Json9OurReader9ErrorInfoESaIS2_EE17_M_reallocate_mapEmb
FNDA:0,_ZNSt5dequeIN4Json6Reader9ErrorInfoESaIS2_EE17_M_reallocate_mapEmb
FNF:14
FNH:2
DA:162,1808
DA:165,3616
DA:166,1808
DA:168,1808
DA:171,1808
DA:174,0
DA:176,1808
DA:348,0
DA:351,0
DA:353,0
DA:356,0
DA:358,0
DA:359,0
DA:361,0
DA:363,0
DA:364,0
DA:365,0
DA:368,0
DA:369,0
DA:372,0
DA:374,0
DA:377,0
DA:379,0
DA:380,0
DA:382,0
DA:384,0
DA:385,0
DA:386,0
DA:389,0
DA:390,0
DA:393,0
DA:395,0
DA:398,0
DA:400,0
DA:401,0
DA:403,0
DA:405,0
DA:406,0
DA:407,0
DA:410,0
DA:521,0
DA:529,0
DA:530,0
DA:534,0
DA:540,0
DA:542,0
DA:544,0
DA:546,0
DA:547,0
DA:549,0
DA:550,0
DA:558,0
DA:559,0
DA:563,0
DA:569,0
DA:571,0
DA:573,0
DA:575,0
DA:576,0
DA:578,0
DA:579,0
DA:587,0
DA:588,0
DA:592,0
DA:598,0
DA:600,0
DA:602,0
DA:604,0
DA:605,0
DA:607,0
DA:608,0
DA:616,0
DA:617,0
DA:621,0
DA:627,0
DA:629,0
DA:631,0
DA:633,0
DA:634,0
DA:636,0
DA:676,0
DA:679,0
DA:680,0
DA:681,0
DA:682,0
DA:684,0
DA:975,4
DA:978,4
DA:979,4
DA:980,0
DA:981,0
DA:983,4
DA:985,0
DA:986,0
DA:987,0
DA:988,0
DA:991,4
DA:992,4
DA:993,4
DA:994,4
DA:997,4
DA:998,4
DA:999,0
DA:1000,0
DA:1002,4
DA:1004,0
DA:1005,0
DA:1006,0
DA:1007,0
DA:1010,4
DA:1011,4
DA:1012,4
DA:1013,0
DA:1016,0
DA:1017,0
DA:1018,0
DA:1019,0
DA:1021,0
DA:1023,0
DA:1024,0
DA:1025,0
DA:1026,0
DA:1029,0
DA:1030,0
DA:1031,0
DA:1060,0
DA:1063,0
DA:1064,0
DA:1066,0
DA:1067,0
DA:1068,0
DA:1072,0
DA:1073,0
DA:1075,0
DA:1077,0
DA:1078,0
DA:1079,0
DA:1081,0
DA:1082,0
DA:1085,0
DA:1086,0
DA:1088,0
DA:1089,0
DA:1090,0
DA:1094,0
DA:1095,0
DA:1097,0
DA:1099,0
DA:1100,0
DA:1101,0
DA:1103,0
DA:1104,0
DA:1107,0
DA:1108,0
DA:1110,0
DA:1111,0
DA:1112,0
DA:1116,0
DA:1117,0
DA:1119,0
DA:1121,0
DA:1122,0
DA:1123,0
DA:1125,0
DA:1129,0
DA:1132,0
DA:1133,0
DA:1134,0
DA:1137,0
DA:1139,0
DA:1140,0
DA:1141,0
DA:1142,0
DA:1143,0
DA:1144,0
DA:1147,0
DA:1148,0
DA:1149,0
DA:1153,0
DA:1154,0
DA:1157,0
DA:1158,0
DA:1159,0
DA:1160,0
DA:1161,0
DA:1163,0
DA:1165,0
DA:1166,0
DA:1169,0
DA:1170,0
DA:1171,0
DA:1172,0
DA:1175,0
DA:1176,0
DA:1177,0
DA:1180,0
DA:1182,0
DA:1183,0
DA:1184,0
DA:1185,0
DA:1186,0
DA:1187,0
DA:1190,0
DA:1191,0
DA:1192,0
DA:1196,0
DA:1197,0
DA:1200,0
DA:1201,0
DA:1202,0
DA:1203,0
DA:1204,0
DA:1206,0
DA:1208,0
DA:1209,0
DA:1212,0
DA:1213,0
DA:1214,0
DA:1215,0
DA:1218,0
DA:1219,0
DA:1220,0
DA:1223,0
DA:1225,0
DA:1226,0
DA:1227,0
DA:1228,0
DA:1229,0
DA:1230,0
DA:1233,0
DA:1234,0
DA:1235,0
DA:1239,0
DA:1240,0
DA:1243,0
DA:1244,0
DA:1245,0
DA:1246,0
DA:1247,0
DA:1249,0
DA:1251,0
DA:1252,0
DA:1255,0
DA:1256,0
DA:1257,0
DA:1258,0
DA:1261,0
DA:1262,0
DA:1263,0
DA:1266,0
DA:1268,0
DA:1269,0
DA:1270,0
DA:1271,0
DA:1272,0
DA:1273,0
DA:1276,0
DA:1277,0
DA:1278,0
DA:1282,0
DA:1283,0
DA:1286,0
DA:1287,0
DA:1288,0
DA:1289,0
DA:1290,0
DA:1292,0
DA:1294,0
DA:1295,0
DA:1298,0
DA:1299,0
DA:1300,0
LF:272
LH:20
end_of_record
SF:/usr/include/c++/8/bits/exception.h
FN:63,_ZNSt9exceptionC2Ev
FNDA:0,_ZNSt9exceptionC2Ev
FNF:1
FNH:0
DA:63,0
LF:1
LH:0
end_of_record
SF:/usr/include/c++/8/bits/move.h
FN:47,_ZSt11__addressofIN4Json9OurReader15StructuredErrorEEPT_RS3_
FN:47,_ZSt11__addressofIN4Json9OurReader9ErrorInfoEEPT_RS3_
FN:47,_ZSt11__addressofIN4Json12PathArgumentEEPT_RS2_
FN:47,_ZSt11__addressofIcEPT_RS0_
FN:47,_ZSt11__addressofIKcEPT_RS1_
FN:47,_ZSt11__addressofIN4Json6Reader9ErrorInfoEEPT_RS3_
FN:47,_ZSt11__addressofINSt7__cxx1112basic_stringIcSt11char_traitsIcESaIcEEEEPT_RS6_
FN:47,_ZSt11__addressofIN4Json6Reader15StructuredErrorEEPT_RS3_
FN:74,_ZSt7forwardIN4Json9OurReader15StructuredErrorEEOT_RNSt16remove_referenceIS3_E4typeE
FN:74,_ZSt7forwardIRKSt21piecewise_construct_tEOT_RNSt16remove_referenceIS3_E4typeE
FN:74,_ZSt7forwardIPKN4Json12PathArgumentEEOT_RNSt16remove_referenceIS4_E4typeE
FN:74,_ZSt7forwardISt5tupleIJEEEOT_RNSt16remove_referenceIS2_E4typeE
FN:74,_ZSt7forwardIRKN4Json9OurReader9ErrorInfoEEOT_RNSt16remove_referenceIS5_E4typeE
FN:74,_ZSt7forwardIRPSt13_Rb_tree_nodeINSt7__cxx1112basic_stringIcSt11char_traitsIcESaIcEEEEEOT_RNSt16remove_referenceISA_E4typeE
FN:74,_ZSt7forwardIRSt4pairIKN4Json5Value8CZStringES2_EEOT_RNSt16remove_referenceIS7_E4typeE
FN:74,_ZSt7forwardIRKN4Json6Reader9ErrorInfoEEOT_RNSt16remove_referenceIS5_E4typeE
FN:74,_ZSt7forwardISt17_Rb_tree_iteratorISt4pairIKN4Json5Value8CZStringES3_EEEOT_RNSt16remove_referenceIS8_E4typeE
FN:74,_ZSt7forwardIRPSt18_Rb_tree_node_baseEOT_RNSt16remove_referenceIS3_E4typeE
FN:74,_ZSt7forwardIRKN4Json6Reader15StructuredErrorEEOT_RNSt16remove_referenceIS5_E4typeE
FN:74,_ZSt7forwardISt17_Rb_tree_iteratorINSt7__cxx1112basic_stringIcSt11char_traitsIcESaIcEEEEEOT_RNSt16remove_referenceIS8_E4typeE
FN:74,_ZSt7forwardISt14default_deleteISt5arrayINSt7__cxx1112basic_stringIcSt11char_traitsIcESaIcEEELm3EEEEOT_RNSt16remove_referenceISA_E4typeE
FN:74,_ZSt7forwardIRPSt13_Rb_tree_nodeISt4pairIKN4Json5Value8CZStringES3_EEEOT_RNSt16remove_referenceISA_E4typeE
FN:74,_ZSt7forwardISt5tupleIJRKN4Json5Value8CZStringEEEEOT_RNSt16remove_referenceIS7_E4typeE
FN:74,_ZSt7forwardIRbEOT_RNSt16remove_referenceIS1_E4typeE
FN:74,_ZSt7forwardIRKNSt7__cxx1112basic_stringIcSt11char_traitsIcESaIcEEEEOT_RNSt16remove_referenceIS8_E4typeE
FN:74,_ZSt7forwardIPN4Json5ValueEEOT_RNSt16remove_referenceIS3_E4typeE
FN:74,_ZSt7forwardIN4Json12PathArgumentEEOT_RNSt16remove_referenceIS2_E4typeE
FN:74,_ZSt7forwardIbEOT_RNSt16remove_referenceIS0_E4typeE
FN:74,_ZSt7forwardIN4Json6Reader15StructuredErrorEEOT_RNSt16remove_referenceIS3_E4typeE
FN:74,_ZSt7forwardINSt7__cxx1112basic_stringIcSt11char_traitsIcESaIcEEEEOT_RNSt16remove_referenceIS6_E4typeE
FN:74,_ZSt7forwardIRSt17_Rb_tree_iteratorINSt7__cxx1112basic_stringIcSt11char_traitsIcESaIcEEEEEOT_RNSt16remove_referenceIS9_E4typeE
FN:74,_ZSt7forwardIRKSt4pairIKN4Json5Value8CZStringES2_EEOT_RNSt16remove_referenceIS8_E4typeE
FN:74,_ZSt7forwardIRKN4Json5Value8CZStringEEOT_RNSt16remove_referenceIS5_E4typeE
FN:74,_ZSt7forwardIRKN4Json9OurReader15StructuredErrorEEOT_RNSt16remove_referenceIS5_E4typeE
FN:74,_ZSt7forwardIRPSt5arrayINSt7__cxx1112basic_stringIcSt11char_traitsIcESaIcEEELm3EEEOT_RNSt16remove_referenceISA_E4typeE
FN:74,_ZSt7forwardIRKN4Json12PathArgumentEEOT_RNSt16remove_referenceIS4_E4typeE
FN:74,_ZSt7forwardIRN4Json5Value8CZStringEEOT_RNSt16remove_referenceIS4_E4typeE
FN:99,_ZSt4moveIRPNSt7__cxx1112basic_stringIcSt11char_traitsIcESaIcEEEEONSt16remove_referenceIT_E4typeEOS9_
FN:99,_ZSt4moveIRlEONSt16remove_referenceIT_E4typeEOS2_
FN:99,_ZSt4moveIRPN4Json5ValueEEONSt16remove_referenceIT_E4typeEOS5_
FN:99,_ZSt4moveIRN4Json5Value11ValueHolderEEONSt16remove_referenceIT_E4typeEOS5_
FN:99,_ZSt4moveIRN4Json5Value8CommentsEEONSt16remove_referenceIT_E4typeEOS5_
FN:99,_ZSt4moveIRSt10unique_ptrISt5arrayINSt7__cxx1112basic_stringIcSt11char_traitsIcESaIcEEELm3EESt14default_deleteIS8_EEEONSt16remove_referenceIT_E4typeEOSE_
FN:99,_ZSt4moveIRPKcEONSt16remove_referenceIT_E4typeEOS4_
FN:99,_ZSt4moveIRN4Json5ValueEEONSt16remove_referenceIT_E4typeEOS4_
FN:99,_ZSt4moveIRN4Json12PathArgumentEEONSt16remove_referenceIT_E4typeEOS4_
FN:99,_ZSt4moveIRNSt7__cxx1112basic_stringIcSt11char_traitsIcESaIcEEEEONSt16remove_referenceIT_E4typeEOS8_
FN:99,_ZSt4moveIRSt6vectorINSt7__cxx1112basic_stringIcSt11char_traitsIcESaIcEEESaIS6_EEEONSt16remove_referenceIT_E4typeEOSB_
FN:99,_ZSt4moveIRPSt5arrayINSt7__cxx1112basic_stringIcSt11char_traitsIcESaIcEEELm3EEEONSt16remove_referenceIT_E4typeEOSB_
FN:99,_ZSt4moveIRjEONSt16remove_referenceIT_E4typeEOS2_
FN:99,_ZSt4moveIRN4Json5ValueUt_EEONSt16remove_referenceIT_E4typeEOS5_
FN:99,_ZSt4moveIRSaINSt7__cxx1112basic_stringIcSt11char_traitsIcESaIcEEEEEONSt16remove_referenceIT_E4typeEOS9_
FN:99,_ZSt4moveIRPKN4Json12PathArgumentEEONSt16remove_referenceIT_E4typeEOS6_
FN:99,_ZSt4moveIRSaIcEEONSt16remove_referenceIT_E4typeEOS3_
FN:138,_ZSt9addressofIKcEPT_RS1_
FN:138,_ZSt9addressofIcEPT_RS0_
FN:182,_ZSt4swapIlENSt9enable_ifIXsrSt6__and_IJSt6__not_ISt15__is_tuple_likeIT_EESt21is_move_constructibleIS4_ESt18is_move_assignableIS4_EEE5valueEvE4typeERS4_SE_
FN:182,_ZSt4swapIN4Json5Value11ValueHolderEENSt9enable_ifIXsrSt6__and_IJSt6__not_ISt15__is_tuple_likeIT_EESt21is_move_constructibleIS7_ESt18is_move_assignableIS7_EEE5valueEvE4typeERS7_SH_
FN:182,_ZSt4swapIN4Json5Value8CommentsEENSt9enable_ifIXsrSt6__and_IJSt6__not_ISt15__is_tuple_likeIT_EESt21is_move_constructibleIS7_ESt18is_move_assignableIS7_EEE5valueEvE4typeERS7_SH_
FN:182,_ZSt4swapIPSt5arrayINSt7__cxx1112basic_stringIcSt11char_traitsIcESaIcEEELm3EEENSt9enable_ifIXsrSt6__and_IJSt6__not_ISt15__is_tuple_likeIT_EESt21is_move_constructibleISD_ESt18is_move_assignableISD_EEE5valueEvE4typeERSD_SN_
FN:182,_ZSt4swapIjENSt9enable_ifIXsrSt6__and_IJSt6__not_ISt15__is_tuple_likeIT_EESt21is_move_constructibleIS4_ESt18is_move_assignableIS4_EEE5valueEvE4typeERS4_SE_
FN:182,_ZSt4swapIPNSt7__cxx1112basic_stringIcSt11char_traitsIcESaIcEEEENSt9enable_ifIXsrSt6__and_IJSt6__not_ISt15__is_tuple_likeIT_EESt21is_move_constructibleISB_ESt18is_move_assignableISB_EEE5valueEvE4typeERSB_SL_
FN:182,_ZSt4swapIN4Json5ValueUt_EENSt9enable_ifIXsrSt6__and_IJSt6__not_ISt15__is_tuple_likeIT_EESt21is_move_constructibleIS7_ESt18is_move_assignableIS7_EEE5valueEvE4typeERS7_SH_
FN:182,_ZSt4swapIPKcENSt9enable_ifIXsrSt6__and_IJSt6__not_ISt15__is_tuple_likeIT_EESt21is_move_constructibleIS6_ESt18is_move_assignableIS6_EEE5valueEvE4typeERS6_SG_
FNDA:0,_ZSt11__addressofIN4Json9OurReader9ErrorInfoEEPT_RS3_
FNDA:0,_ZSt11__addressofIN4Json6Reader9ErrorInfoEEPT_RS3_
FNDA:0,_ZSt11__addressofIKcEPT_RS1_
FNDA:0,_ZSt11__addressofIcEPT_RS0_
FNDA:0,_ZSt11__addressofIN4Json12PathArgumentEEPT_RS2_
FNDA:0,_ZSt11__addressofINSt7__cxx1112basic_stringIcSt11char_traitsIcESaIcEEEEPT_RS6_
FNDA:0,_ZSt11__addressofIN4Json9OurReader15StructuredErrorEEPT_RS3_
FNDA:0,_ZSt11__addressofIN4Json6Reader15StructuredErrorEEPT_RS3_
FNDA:0,_ZSt7forwardIRKN4Json12PathArgumentEEOT_RNSt16remove_referenceIS4_E4typeE
FNDA:1826,_ZSt7forwardIRN4Json5Value8CZStringEEOT_RNSt16remove_referenceIS4_E4typeE
FNDA:10956,_ZSt7forwardIRSt4pairIKN4Json5Value8CZStringES2_EEOT_RNSt16remove_referenceIS7_E4typeE
FNDA:0,_ZSt7forwardIRKN4Json6Reader9ErrorInfoEEOT_RNSt16remove_referenceIS5_E4typeE
FNDA:0,_ZSt7forwardIRKN4Json6Reader15StructuredErrorEEOT_RNSt16remove_referenceIS5_E4typeE
FNDA:0,_ZSt7forwardIRKN4Json9OurReader9ErrorInfoEEOT_RNSt16remove_referenceIS5_E4typeE
FNDA:0,_ZSt7forwardIRKN4Json9OurReader15StructuredErrorEEOT_RNSt16remove_referenceIS5_E4typeE
FNDA:0,_ZSt7forwardINSt7__cxx1112basic_stringIcSt11char_traitsIcESaIcEEEEOT_RNSt16remove_referenceIS6_E4typeE
FNDA:0,_ZSt7forwardIRSt17_Rb_tree_iteratorINSt7__cxx1112basic_stringIcSt11char_traitsIcESaIcEEEEEOT_RNSt16remove_referenceIS9_E4typeE
FNDA:0,_ZSt7forwardIRKSt21piecewise_construct_tEOT_RNSt16remove_referenceIS3_E4typeE
FNDA:0,_ZSt7forwardISt5tupleIJRKN4Json5Value8CZStringEEEEOT_RNSt16remove_referenceIS7_E4typeE
FNDA:0,_ZSt7forwardISt5tupleIJEEEOT_RNSt16remove_referenceIS2_E4typeE
FNDA:9024,_ZSt7forwardISt14default_deleteISt5arrayINSt7__cxx1112basic_stringIcSt11char_traitsIcESaIcEEELm3EEEEOT_RNSt16remove_referenceISA_E4typeE
FNDA:0,_ZSt7forwardIPKN4Json12PathArgumentEEOT_RNSt16remove_referenceIS4_E4typeE
FNDA:0,_ZSt7forwardIN4Json12PathArgumentEEOT_RNSt16remove_referenceIS2_E4typeE
FNDA:0,_ZSt7forwardIRKN4Json5Value8CZStringEEOT_RNSt16remove_referenceIS5_E4typeE
FNDA:0,_ZSt7forwardIRKNSt7__cxx1112basic_stringIcSt11char_traitsIcESaIcEEEEOT_RNSt16remove_referenceIS8_E4typeE
FNDA:5424,_ZSt7forwardIPN4Json5ValueEEOT_RNSt16remove_referenceIS3_E4typeE
FNDA:0,_ZSt7forwardISt17_Rb_tree_iteratorINSt7__cxx1112basic_stringIcSt11char_traitsIcESaIcEEEEEOT_RNSt16remove_referenceIS8_E4typeE
FNDA:0,_ZSt7forwardIRbEOT_RNSt16remove_referenceIS1_E4typeE
FNDA:123,_ZSt7forwardIRPSt5arrayINSt7__cxx1112basic_stringIcSt11char_traitsIcESaIcEEELm3EEEOT_RNSt16remove_referenceISA_E4typeE
FNDA:0,_ZSt7forwardIbEOT_RNSt16remove_referenceIS0_E4typeE
FNDA:0,_ZSt7forwardISt17_Rb_tree_iteratorISt4pairIKN4Json5Value8CZStringES3_EEEOT_RNSt16remove_referenceIS8_E4typeE
FNDA:0,_ZSt7forwardIRPSt13_Rb_tree_nodeINSt7__cxx1112basic_stringIcSt11char_traitsIcESaIcEEEEEOT_RNSt16remove_referenceISA_E4typeE
FNDA:1993,_ZSt7forwardIRPSt18_Rb_tree_node_baseEOT_RNSt16remove_referenceIS3_E4typeE
FNDA:350,_ZSt7forwardIRPSt13_Rb_tree_nodeISt4pairIKN4Json5Value8CZStringES3_EEEOT_RNSt16remove_referenceISA_E4typeE
FNDA:14860,_ZSt7forwardIRKSt4pairIKN4Json5Value8CZStringES2_EEOT_RNSt16remove_referenceIS8_E4typeE
FNDA:0,_ZSt7forwardIN4Json6Reader15StructuredErrorEEOT_RNSt16remove_referenceIS3_E4typeE
FNDA:0,_ZSt7forwardIN4Json9OurReader15StructuredErrorEEOT_RNSt16remove_referenceIS3_E4typeE
FNDA:123,_ZSt4moveIRN4Json5Value8CommentsEEONSt16remove_referenceIT_E4typeEOS5_
FNDA:0,_ZSt4moveIRNSt7__cxx1112basic_stringIcSt11char_traitsIcESaIcEEEEONSt16remove_referenceIT_E4typeEOS8_
FNDA:0,_ZSt4moveIRN4Json5ValueEEONSt16remove_referenceIT_E4typeEOS4_
FNDA:1977,_ZSt4moveIRSt10unique_ptrISt5arrayINSt7__cxx1112basic_stringIcSt11char_traitsIcESaIcEEELm3EESt14default_deleteIS8_EEEONSt16remove_referenceIT_E4typeEOSE_
FNDA:3616,_ZSt4moveIRPN4Json5ValueEEONSt16remove_referenceIT_E4typeEOS5_
FNDA:0,_ZSt4moveIRPKcEONSt16remove_referenceIT_E4typeEOS4_
FNDA:0,_ZSt4moveIRjEONSt16remove_referenceIT_E4typeEOS2_
FNDA:5547,_ZSt4moveIRN4Json5ValueUt_EEONSt16remove_referenceIT_E4typeEOS5_
FNDA:5547,_ZSt4moveIRN4Json5Value11ValueHolderEEONSt16remove_referenceIT_E4typeEOS5_
FNDA:0,_ZSt4moveIRPNSt7__cxx1112basic_stringIcSt11char_traitsIcESaIcEEEEONSt16remove_referenceIT_E4typeEOS9_
FNDA:246,_ZSt4moveIRlEONSt16remove_referenceIT_E4typeEOS2_
FNDA:0,_ZSt4moveIRSt6vectorINSt7__cxx1112basic_stringIcSt11char_traitsIcESaIcEEESaIS6_EEEONSt16remove_referenceIT_E4typeEOSB_
FNDA:0,_ZSt4moveIRPKN4Json12PathArgumentEEONSt16remove_referenceIT_E4typeEOS6_
FNDA:0,_ZSt4moveIRN4Json12PathArgumentEEONSt16remove_referenceIT_E4typeEOS4_
FNDA:0,_ZSt4moveIRSaIcEEONSt16remove_referenceIT_E4typeEOS3_
FNDA:0,_ZSt4moveIRSaINSt7__cxx1112basic_stringIcSt11char_traitsIcESaIcEEEEEONSt16remove_referenceIT_E4typeEOS9_
FNDA:26334,_ZSt4moveIRPSt5arrayINSt7__cxx1112basic_stringIcSt11char_traitsIcESaIcEEELm3EEEONSt16remove_referenceIT_E4typeEOSB_
FNDA:0,_ZSt9addressofIKcEPT_RS1_
FNDA:0,_ZSt9addressofIcEPT_RS0_
FNDA:0,_ZSt4swapIPNSt7__cxx1112basic_stringIcSt11char_traitsIcESaIcEEEENSt9enable_ifIXsrSt6__and_IJSt6__not_ISt15__is_tuple_likeIT_EESt21is_move_constructibleISB_ESt18is_move_assignableISB_EEE5valueEvE4typeERSB_SL_
FNDA:8778,_ZSt4swapIPSt5arrayINSt7__cxx1112basic_stringIcSt11char_traitsIcESaIcEEELm3EEENSt9enable_ifIXsrSt6__and_IJSt6__not_ISt15__is_tuple_likeIT_EESt21is_move_constructibleISD_ESt18is_move_assignableISD_EEE5valueEvE4typeERSD_SN_
FNDA:82,_ZSt4swapIlENSt9enable_ifIXsrSt6__and_IJSt6__not_ISt15__is_tuple_likeIT_EESt21is_move_constructibleIS4_ESt18is_move_assignableIS4_EEE5valueEvE4typeERS4_SE_
FNDA:41,_ZSt4swapIN4Json5Value8CommentsEENSt9enable_ifIXsrSt6__and_IJSt6__not_ISt15__is_tuple_likeIT_EESt21is_move_constructibleIS7_ESt18is_move_assignableIS7_EEE5valueEvE4typeERS7_SH_
FNDA:1849,_ZSt4swapIN4Json5Value11ValueHolderEENSt9enable_ifIXsrSt6__and_IJSt6__not_ISt15__is_tuple_likeIT_EESt21is_move_constructibleIS7_ESt18is_move_assignableIS7_EEE5valueEvE4typeERS7_SH_
FNDA:1849,_ZSt4swapIN4Json5ValueUt_EENSt9enable_ifIXsrSt6__and_IJSt6__not_ISt15__is_tuple_likeIT_EESt21is_move_constructibleIS7_ESt18is_move_assignableIS7_EEE5valueEvE4typeERS7_SH_
FNDA:0,_ZSt4swapIjENSt9enable_ifIXsrSt6__and_IJSt6__not_ISt15__is_tuple_likeIT_EESt21is_move_constructibleIS4_ESt18is_move_assignableIS4_EEE5valueEvE4typeERS4_SE_
FNDA:0,_ZSt4swapIPKcENSt9enable_ifIXsrSt6__and_IJSt6__not_ISt15__is_tuple_likeIT_EESt21is_move_constructibleIS6_ESt18is_move_assignableIS6_EEE5valueEvE4typeERS6_SG_
FNF:64
FNH:20
DA:47,0
DA:48,0
DA:49,0
DA:50,0
DA:51,0
DA:52,0
DA:53,0
DA:54,0
DA:55,0
DA:56,0
DA:57,0
DA:58,0
DA:59,0
DA:60,0
DA:61,0
DA:62,0
DA:63,0
DA:64,0
DA:90,44556
DA:91,44556
DA:92,0
DA:93,0
DA:94,1826
DA:95,1826
DA:96,10956
DA:97,10956
DA:98,0
DA:99,0
DA:100,0
DA:101,0
DA:102,0
DA:103,0
DA:104,0
DA:105,0
DA:106,0
DA:107,0
DA:108,0
DA:109,0
DA:110,0
DA:111,0
DA:112,0
DA:113,0
DA:114,0
DA:115,0
DA:116,9024
DA:117,9024
DA:118,0
DA:119,0
DA:120,0
DA:121,0
DA:122,0
DA:123,0
DA:124,0
DA:125,0
DA:126,5424
DA:127,5424
DA:128,0
DA:129,0
DA:130,0
DA:131,0
DA:132,123
DA:133,123
DA:134,0
DA:135,0
DA:136,0
DA:137,0
DA:138,0
DA:139,0
DA:140,1993
DA:141,1993
DA:142,350
DA:143,350
DA:144,14860
DA:145,14860
DA:146,0
DA:147,0
DA:148,0
DA:149,0
DA:173,43390
DA:174,43390
DA:175,123
DA:176,123
DA:177,0
DA:178,0
DA:179,0
DA:180,0
DA:181,1977
DA:182,1977
DA:183,3616
DA:184,3616
DA:185,0
DA:186,0
DA:187,0
DA:188,0
DA:189,5547
DA:190,5547
DA:191,5547
DA:192,5547
DA:193,0
DA:194,0
DA:195,246
DA:196,246
DA:197,0
DA:198,0
DA:199,0
DA:200,0
DA:201,0
DA:202,0
DA:203,0
DA:204,0
DA:205,0
DA:206,0
DA:207,26334
DA:208,26334
DA:246,0
DA:247,0
DA:248,0
DA:249,0
DA:250,0
DA:251,0
DA:294,12599
DA:305,12640
DA:306,12599
DA:307,12599
DA:308,12599
DA:309,0
DA:320,0
DA:321,0
DA:322,0
DA:323,0
DA:324,8778
DA:335,8778
DA:336,8778
DA:337,8778
DA:338,8778
DA:339,82
DA:350,82
DA:351,82
DA:352,82
DA:353,82
DA:354,41
DA:365,82
DA:366,41
DA:367,41
DA:368,41
DA:369,1849
DA:380,1849
DA:381,1849
DA:382,1849
DA:383,1849
DA:384,1849
DA:395,1849
DA:396,1849
DA:397,1849
DA:398,1849
DA:399,0
DA:410,0
DA:411,0
DA:412,0
DA:413,0
DA:414,0
DA:425,0
DA:426,0
DA:427,0
DA:428,0
LF:165
LH:64
end_of_record
SF:/usr/include/c++/8/bits/predefined_ops.h
FN:42,_ZNK9__gnu_cxx5__ops15_Iter_less_iterclISt23_Rb_tree_const_iteratorISt4pairIKN4Json5Value8CZStringES6_EESA_EEbT_T0_
FN:48,_ZN9__gnu_cxx5__ops16__iter_less_iterEv
FNDA:0,_ZNK9__gnu_cxx5__ops15_Iter_less_iterclISt23_Rb_tree_const_iteratorISt4pairIKN4Json5Value8CZStringES6_EESA_EEbT_T0_
FNDA:0,_ZN9__gnu_cxx5__ops16__iter_less_iterEv
FNF:2
FNH:0
DA:42,0
DA:43,0
DA:48,0
DA:49,0
LF:4
LH:0
end_of_record
SF:/usr/include/c++/8/bits/ptr_traits.h
FN:141,_ZNSt14pointer_traitsIPcE10pointer_toERc
FN:141,_ZNSt14pointer_traitsIPKcE10pointer_toERS0_
FNDA:0,_ZNSt14pointer_traitsIPKcE10pointer_toERS0_
FNDA:0,_ZNSt14pointer_traitsIPcE10pointer_toERc
FNF:2
FNH:0
DA:141,0
DA:142,0
DA:143,0
DA:144,0
DA:145,0
DA:146,0
LF:6
LH:0
end_of_record
SF:/usr/include/c++/8/bits/stl_algobase.h
FN:195,_ZSt3minIjERKT_S2_S2_
FN:195,_ZSt3minImERKT_S2_S2_
FN:219,_ZSt3maxImERKT_S2_S2_
FN:277,_ZSt12__niter_baseIPPKN4Json12PathArgumentEET_S5_
FN:277,_ZSt12__niter_baseIPPN4Json6Reader9ErrorInfoEET_S5_
FN:277,_ZSt12__niter_baseIPPPN4Json5ValueEET_S5_
FN:277,_ZSt12__niter_baseIPPN4Json9OurReader9ErrorInfoEET_S5_
FN:277,_ZSt12__niter_baseISt23_Rb_tree_const_iteratorISt4pairIKN4Json5Value8CZStringES3_EEET_S8_
FN:357,_ZNSt11__copy_moveILb0ELb1ESt26random_access_iterator_tagE8__copy_mIPN4Json6Reader9ErrorInfoEEEPT_PKS7_SA_S8_
FN:357,_ZNSt11__copy_moveILb0ELb1ESt26random_access_iterator_tagE8__copy_mIPN4Json9OurReader9ErrorInfoEEEPT_PKS7_SA_S8_
FN:357,_ZNSt11__copy_moveILb0ELb1ESt26random_access_iterator_tagE8__copy_mIPPN4Json5ValueEEEPT_PKS7_SA_S8_
FN:357,_ZNSt11__copy_moveILb1ELb1ESt26random_access_iterator_tagE8__copy_mIPKN4Json12PathArgumentEEEPT_PKS7_SA_S8_
FN:375,_ZSt13__copy_move_aILb0EPPPN4Json5ValueES4_ET1_T0_S6_S5_
FN:375,_ZSt13__copy_move_aILb1EPPKN4Json12PathArgumentES4_ET1_T0_S6_S5_
FN:375,_ZSt13__copy_move_aILb0EPPN4Json6Reader9ErrorInfoES4_ET1_T0_S6_S5_
FN:375,_ZSt13__copy_move_aILb0EPPN4Json9OurReader9ErrorInfoES4_ET1_T0_S6_S5_
FN:420,_ZSt14__copy_move_a2ILb0EPPN4Json9OurReader9ErrorInfoES4_ET1_T0_S6_S5_
FN:420,_ZSt14__copy_move_a2ILb1EPPKN4Json12PathArgumentES4_ET1_T0_S6_S5_
FN:420,_ZSt14__copy_move_a2ILb0EPPPN4Json5ValueES4_ET1_T0_S6_S5_
FN:420,_ZSt14__copy_move_a2ILb0EPPN4Json6Reader9ErrorInfoES4_ET1_T0_S6_S5_
FN:446,_ZSt4copyIPPPN4Json5ValueES4_ET0_T_S6_S5_
FN:446,_ZSt4copyISt13move_iteratorIPPKN4Json12PathArgumentEES5_ET0_T_S8_S7_
FN:446,_ZSt4copyIPPN4Json6Reader9ErrorInfoES4_ET0_T_S6_S5_
FN:446,_ZSt4copyIPPN4Json9OurReader9ErrorInfoES4_ET0_T_S6_S5_
FN:559,_ZNSt20__copy_move_backwardILb0ELb1ESt26random_access_iterator_tagE13__copy_move_bIPN4Json6Reader9ErrorInfoEEEPT_PKS7_SA_S8_
FN:559,_ZNSt20__copy_move_backwardILb0ELb1ESt26random_access_iterator_tagE13__copy_move_bIPPN4Json5ValueEEEPT_PKS7_SA_S8_
FN:559,_ZNSt20__copy_move_backwardILb0ELb1ESt26random_access_iterator_tagE13__copy_move_bIPN4Json9OurReader9ErrorInfoEEEPT_PKS7_SA_S8_
FN:577,_ZSt22__copy_move_backward_aILb0EPPN4Json6Reader9ErrorInfoES4_ET1_T0_S6_S5_
FN:577,_ZSt22__copy_move_backward_aILb0EPPPN4Json5ValueES4_ET1_T0_S6_S5_
FN:577,_ZSt22__copy_move_backward_aILb0EPPN4Json9OurReader9ErrorInfoES4_ET1_T0_S6_S5_
FN:595,_ZSt23__copy_move_backward_a2ILb0EPPN4Json6Reader9ErrorInfoES4_ET1_T0_S6_S5_
FN:595,_ZSt23__copy_move_backward_a2ILb0EPPPN4Json5ValueES4_ET1_T0_S6_S5_
FN:595,_ZSt23__copy_move_backward_a2ILb0EPPN4Json9OurReader9ErrorInfoES4_ET1_T0_S6_S5_
FN:622,_ZSt13copy_backwardIPPN4Json6Reader9ErrorInfoES4_ET0_T_S6_S5_
FN:622,_ZSt13copy_backwardIPPPN4Json5ValueES4_ET0_T_S6_S5_
FN:622,_ZSt13copy_backwardIPPN4Json9OurReader9ErrorInfoES4_ET0_T_S6_S5_
FN:797,_ZNSt7__equalILb0EE5equalISt23_Rb_tree_const_iteratorISt4pairIKN4Json5Value8CZStringES5_EES9_EEbT_SA_T0_
FN:821,_ZSt11__equal_auxISt23_Rb_tree_const_iteratorISt4pairIKN4Json5Value8CZStringES3_EES7_EbT_S8_T0_
FN:839,_ZNSt8__lc_raiISt26bidirectional_iterator_tagS0_E10__newlast1ISt23_Rb_tree_const_iteratorISt4pairIKN4Json5Value8CZStringES6_EESA_EET_SB_SB_T0_SC_
FN:844,_ZNSt8__lc_raiISt26bidirectional_iterator_tagS0_E6__cnd2ISt23_Rb_tree_const_iteratorISt4pairIKN4Json5Value8CZStringES6_EEEEbT_SB_
FN:871,_ZSt30__lexicographical_compare_implISt23_Rb_tree_const_iteratorISt4pairIKN4Json5Value8CZStringES3_EES7_N9__gnu_cxx5__ops15_Iter_less_iterEEbT_SB_T0_SC_T1_
FN:901,_ZNSt25__lexicographical_compareILb0EE4__lcISt23_Rb_tree_const_iteratorISt4pairIKN4Json5Value8CZStringES5_EES9_EEbT_SA_T0_SB_
FN:928,_ZSt29__lexicographical_compare_auxISt23_Rb_tree_const_iteratorISt4pairIKN4Json5Value8CZStringES3_EES7_EbT_S8_T0_S9_
FN:1039,_ZSt5equalISt23_Rb_tree_const_iteratorISt4pairIKN4Json5Value8CZStringES3_EES7_EbT_S8_T0_
FN:1221,_ZSt23lexicographical_compareISt23_Rb_tree_const_iteratorISt4pairIKN4Json5Value8CZStringES3_EES7_EbT_S8_T0_S9_
FNDA:0,_ZSt3minImERKT_S2_S2_
FNDA:3838,_ZSt3minIjERKT_S2_S2_
FNDA:0,_ZSt3maxImERKT_S2_S2_
FNDA:0,_ZSt12__niter_baseIPPPN4Json5ValueEET_S5_
FNDA:0,_ZSt12__niter_baseIPPKN4Json12PathArgumentEET_S5_
FNDA:0,_ZSt12__niter_baseIPPN4Json9OurReader9ErrorInfoEET_S5_
FNDA:0,_ZSt12__niter_baseIPPN4Json6Reader9ErrorInfoEET_S5_
FNDA:0,_ZSt12__niter_baseISt23_Rb_tree_const_iteratorISt4pairIKN4Json5Value8CZStringES3_EEET_S8_
FNDA:0,_ZNSt11__copy_moveILb0ELb1ESt26random_access_iterator_tagE8__copy_mIPPN4Json5ValueEEEPT_PKS7_SA_S8_
FNDA:0,_ZNSt11__copy_moveILb1ELb1ESt26random_access_iterator_tagE8__copy_mIPKN4Json12PathArgumentEEEPT_PKS7_SA_S8_
FNDA:0,_ZNSt11__copy_moveILb0ELb1ESt26random_access_iterator_tagE8__copy_mIPN4Json9OurReader9ErrorInfoEEEPT_PKS7_SA_S8_
FNDA:0,_ZNSt11__copy_moveILb0ELb1ESt26random_access_iterator_tagE8__copy_mIPN4Json6Reader9ErrorInfoEEEPT_PKS7_SA_S8_
FNDA:0,_ZSt13__copy_move_aILb0EPPPN4Json5ValueES4_ET1_T0_S6_S5_
FNDA:0,_ZSt13__copy_move_aILb1EPPKN4Json12PathArgumentES4_ET1_T0_S6_S5_
FNDA:0,_ZSt13__copy_move_aILb0EPPN4Json9OurReader9ErrorInfoES4_ET1_T0_S6_S5_
FNDA:0,_ZSt13__copy_move_aILb0EPPN4Json6Reader9ErrorInfoES4_ET1_T0_S6_S5_
FNDA:0,_ZSt14__copy_move_a2ILb0EPPPN4Json5ValueES4_ET1_T0_S6_S5_
FNDA:0,_ZSt14__copy_move_a2ILb1EPPKN4Json12PathArgumentES4_ET1_T0_S6_S5_
FNDA:0,_ZSt14__copy_move_a2ILb0EPPN4Json9OurReader9ErrorInfoES4_ET1_T0_S6_S5_
FNDA:0,_ZSt14__copy_move_a2ILb0EPPN4Json6Reader9ErrorInfoES4_ET1_T0_S6_S5_
FNDA:0,_ZSt4copyIPPPN4Json5ValueES4_ET0_T_S6_S5_
FNDA:0,_ZSt4copyISt13move_iteratorIPPKN4Json12PathArgumentEES5_ET0_T_S8_S7_
FNDA:0,_ZSt4copyIPPN4Json9OurReader9ErrorInfoES4_ET0_T_S6_S5_
FNDA:0,_ZSt4copyIPPN4Json6Reader9ErrorInfoES4_ET0_T_S6_S5_
FNDA:0,_ZNSt20__copy_move_backwardILb0ELb1ESt26random_access_iterator_tagE13__copy_move_bIPPN4Json5ValueEEEPT_PKS7_SA_S8_
FNDA:0,_ZNSt20__copy_move_backwardILb0ELb1ESt26random_access_iterator_tagE13__copy_move_bIPN4Json9OurReader9ErrorInfoEEEPT_PKS7_SA_S8_
FNDA:0,_ZNSt20__copy_move_backwardILb0ELb1ESt26random_access_iterator_tagE13__copy_move_bIPN4Json6Reader9ErrorInfoEEEPT_PKS7_SA_S8_
FNDA:0,_ZSt22__copy_move_backward_aILb0EPPPN4Json5ValueES4_ET1_T0_S6_S5_
FNDA:0,_ZSt22__copy_move_backward_aILb0EPPN4Json9OurReader9ErrorInfoES4_ET1_T0_S6_S5_
FNDA:0,_ZSt22__copy_move_backward_aILb0EPPN4Json6Reader9ErrorInfoES4_ET1_T0_S6_S5_
FNDA:0,_ZSt23__copy_move_backward_a2ILb0EPPPN4Json5ValueES4_ET1_T0_S6_S5_
FNDA:0,_ZSt23__copy_move_backward_a2ILb0EPPN4Json9OurReader9ErrorInfoES4_ET1_T0_S6_S5_
FNDA:0,_ZSt23__copy_move_backward_a2ILb0EPPN4Json6Reader9ErrorInfoES4_ET1_T0_S6_S5_
FNDA:0,_ZSt13copy_backwardIPPPN4Json5ValueES4_ET0_T_S6_S5_
FNDA:0,_ZSt13copy_backwardIPPN4Json9OurReader9ErrorInfoES4_ET0_T_S6_S5_
FNDA:0,_ZSt13copy_backwardIPPN4Json6Reader9ErrorInfoES4_ET0_T_S6_S5_
FNDA:0,_ZNSt7__equalILb0EE5equalISt23_Rb_tree_const_iteratorISt4pairIKN4Json5Value8CZStringES5_EES9_EEbT_SA_T0_
FNDA:0,_ZSt11__equal_auxISt23_Rb_tree_const_iteratorISt4pairIKN4Json5Value8CZStringES3_EES7_EbT_S8_T0_
FNDA:0,_ZNSt8__lc_raiISt26bidirectional_iterator_tagS0_E10__newlast1ISt23_Rb_tree_const_iteratorISt4pairIKN4Json5Value8CZStringES6_EESA_EET_SB_SB_T0_SC_
FNDA:0,_ZNSt8__lc_raiISt26bidirectional_iterator_tagS0_E6__cnd2ISt23_Rb_tree_const_iteratorISt4pairIKN4Json5Value8CZStringES6_EEEEbT_SB_
FNDA:0,_ZSt30__lexicographical_compare_implISt23_Rb_tree_const_iteratorISt4pairIKN4Json5Value8CZStringES3_EES7_N9__gnu_cxx5__ops15_Iter_less_iterEEbT_SB_T0_SC_T1_
FNDA:0,_ZNSt25__lexicographical_compareILb0EE4__lcISt23_Rb_tree_const_iteratorISt4pairIKN4Json5Value8CZStringES5_EES9_EEbT_SA_T0_SB_
FNDA:0,_ZSt29__lexicographical_compare_auxISt23_Rb_tree_const_iteratorISt4pairIKN4Json5Value8CZStringES3_EES7_EbT_S8_T0_S9_
FNDA:0,_ZSt5equalISt23_Rb_tree_const_iteratorISt4pairIKN4Json5Value8CZStringES3_EES7_EbT_S8_T0_
FNDA:0,_ZSt23lexicographical_compareISt23_Rb_tree_const_iteratorISt4pairIKN4Json5Value8CZStringES3_EES7_EbT_S8_T0_S9_
FNF:45
FNH:1
DA:195,3838
DA:200,3838
DA:201,368
DA:202,3470
DA:204,0
DA:209,0
DA:210,0
DA:211,0
DA:213,3838
DA:218,3838
DA:219,368
DA:220,3470
DA:237,0
DA:242,0
DA:243,0
DA:244,0
DA:295,0
DA:296,0
DA:297,0
DA:298,0
DA:299,0
DA:300,0
DA:301,0
DA:302,0
DA:303,0
DA:304,0
DA:305,0
DA:306,0
DA:385,0
DA:394,0
DA:395,0
DA:396,0
DA:397,0
DA:399,0
DA:408,0
DA:409,0
DA:410,0
DA:411,0
DA:413,0
DA:422,0
DA:423,0
DA:424,0
DA:425,0
DA:427,0
DA:436,0
DA:437,0
DA:438,0
DA:439,0
DA:441,0
DA:450,0
DA:451,0
DA:452,0
DA:453,0
DA:459,0
DA:464,0
DA:470,0
DA:472,0
DA:477,0
DA:483,0
DA:485,0
DA:490,0
DA:496,0
DA:498,0
DA:503,0
DA:509,0
DA:511,0
DA:516,0
DA:522,0
DA:556,0
DA:558,0
DA:560,0
DA:562,0
DA:564,0
DA:566,0
DA:568,0
DA:570,0
DA:572,0
DA:574,0
DA:576,0
DA:578,0
DA:580,0
DA:582,0
DA:584,0
DA:606,0
DA:615,0
DA:616,0
DA:618,0
DA:627,0
DA:628,0
DA:630,0
DA:639,0
DA:640,0
DA:642,0
DA:651,0
DA:652,0
DA:654,0
DA:663,0
DA:664,0
DA:767,0
DA:776,0
DA:777,0
DA:778,0
DA:779,0
DA:781,0
DA:790,0
DA:791,0
DA:792,0
DA:793,0
DA:795,0
DA:804,0
DA:805,0
DA:806,0
DA:807,0
DA:809,0
DA:818,0
DA:819,0
DA:820,0
DA:821,0
DA:827,0
DA:832,0
DA:838,0
DA:840,0
DA:842,0
DA:847,0
DA:853,0
DA:855,0
DA:857,0
DA:862,0
DA:868,0
DA:870,0
DA:872,0
DA:877,0
DA:883,0
DA:885,0
DA:890,0
DA:893,0
DA:894,0
DA:896,0
DA:899,0
DA:900,0
DA:902,0
DA:905,0
DA:906,0
DA:908,0
DA:911,0
DA:912,0
DA:935,0
DA:946,0
DA:947,0
DA:949,0
DA:960,0
DA:961,0
DA:963,0
DA:974,0
DA:975,0
DA:977,0
DA:988,0
DA:989,0
DA:1152,0
DA:1154,0
DA:1155,0
DA:1156,0
DA:1157,0
DA:1176,0
DA:1180,0
DA:1186,0
DA:1194,0
DA:1195,0
DA:1199,0
DA:1200,0
DA:1226,0
DA:1234,0
DA:1235,0
DA:1236,0
DA:1238,0
DA:1239,0
DA:1240,0
DA:1241,0
DA:1243,0
DA:1256,0
DA:1259,0
DA:1261,0
DA:1283,0
DA:1288,0
DA:1295,0
DA:1296,0
DA:1394,0
DA:1404,0
DA:1406,0
DA:1576,0
DA:1591,0
DA:1594,0
LF:192
LH:8
end_of_record
SF:/usr/include/c++/8/bits/stl_construct.h
FN:74,_ZSt10_ConstructIN4Json6Reader9ErrorInfoEJEEvPT_DpOT0_
FN:74,_ZSt10_ConstructIN4Json9OurReader15StructuredErrorEJS2_EEvPT_DpOT0_
FN:74,_ZSt10_ConstructIN4Json12PathArgumentEJS1_EEvPT_DpOT0_
FN:74,_ZSt10_ConstructIN4Json9OurReader9ErrorInfoEJEEvPT_DpOT0_
FN:74,_ZSt10_ConstructIN4Json6Reader15StructuredErrorEJS2_EEvPT_DpOT0_
FN:74,_ZSt10_ConstructINSt7__cxx1112basic_stringIcSt11char_traitsIcESaIcEEEJS5_EEvPT_DpOT0_
FN:97,_ZSt8_DestroyIN4Json6Reader9ErrorInfoEEvPT_
FN:97,_ZSt8_DestroyINSt7__cxx1112basic_stringIcSt11char_traitsIcESaIcEEEEvPT_
FN:97,_ZSt8_DestroyIN4Json9OurReader9ErrorInfoEEvPT_
FN:97,_ZSt8_DestroyIN4Json12PathArgumentEEvPT_
FN:97,_ZSt8_DestroyIN4Json6Reader15StructuredErrorEEvPT_
FN:97,_ZSt8_DestroyIN4Json9OurReader15StructuredErrorEEvPT_
FN:105,_ZNSt12_Destroy_auxILb0EE9__destroyIPN4Json6Reader15StructuredErrorEEEvT_S6_
FN:105,_ZNSt12_Destroy_auxILb0EE9__destroyIPNSt7__cxx1112basic_stringIcSt11char_traitsIcESaIcEEEEEvT_S9_
FN:105,_ZNSt12_Destroy_auxILb0EE9__destroyIPN4Json6Reader9ErrorInfoEEEvT_S6_
FN:105,_ZNSt12_Destroy_auxILb0EE9__destroyIPN4Json9OurReader9ErrorInfoEEEvT_S6_
FN:105,_ZNSt12_Destroy_auxILb0EE9__destroyIPN4Json9OurReader15StructuredErrorEEEvT_S6_
FN:105,_ZNSt12_Destroy_auxILb0EE9__destroyIPN4Json12PathArgumentEEEvT_S5_
FN:117,_ZNSt12_Destroy_auxILb1EE9__destroyIPPKN4Json12PathArgumentEEEvT_S7_
FN:127,_ZSt8_DestroyIPN4Json9OurReader15StructuredErrorEEvT_S4_
FN:127,_ZSt8_DestroyIPN4Json9OurReader9ErrorInfoEEvT_S4_
FN:127,_ZSt8_DestroyIPN4Json12PathArgumentEEvT_S3_
FN:127,_ZSt8_DestroyIPNSt7__cxx1112basic_stringIcSt11char_traitsIcESaIcEEEEvT_S7_
FN:127,_ZSt8_DestroyIPN4Json6Reader9ErrorInfoEEvT_S4_
FN:127,_ZSt8_DestroyIPN4Json6Reader15StructuredErrorEEvT_S4_
FN:127,_ZSt8_DestroyIPPKN4Json12PathArgumentEEvT_S5_
FN:203,_ZSt8_DestroyIPNSt7__cxx1112basic_stringIcSt11char_traitsIcESaIcEEES5_EvT_S7_RSaIT0_E
FN:203,_ZSt8_DestroyIPN4Json12PathArgumentES1_EvT_S3_RSaIT0_E
FN:203,_ZSt8_DestroyIPPKN4Json12PathArgumentES3_EvT_S5_RSaIT0_E
FN:203,_ZSt8_DestroyIPN4Json6Reader15StructuredErrorES2_EvT_S4_RSaIT0_E
FN:203,_ZSt8_DestroyIPN4Json6Reader9ErrorInfoES2_EvT_S4_RSaIT0_E
FN:203,_ZSt8_DestroyIPN4Json9OurReader9ErrorInfoES2_EvT_S4_RSaIT0_E
FN:203,_ZSt8_DestroyIPN4Json9OurReader15StructuredErrorES2_EvT_S4_RSaIT0_E
FNDA:0,_ZSt10_ConstructIN4Json12PathArgumentEJS1_EEvPT_DpOT0_
FNDA:0,_ZSt10_ConstructIN4Json9OurReader15StructuredErrorEJS2_EEvPT_DpOT0_
FNDA:0,_ZSt10_ConstructIN4Json6Reader15StructuredErrorEJS2_EEvPT_DpOT0_
FNDA:0,_ZSt10_ConstructINSt7__cxx1112basic_stringIcSt11char_traitsIcESaIcEEEJS5_EEvPT_DpOT0_
FNDA:0,_ZSt10_ConstructIN4Json9OurReader9ErrorInfoEJEEvPT_DpOT0_
FNDA:0,_ZSt10_ConstructIN4Json6Reader9ErrorInfoEJEEvPT_DpOT0_
FNDA:0,_ZSt8_DestroyIN4Json9OurReader9ErrorInfoEEvPT_
FNDA:0,_ZSt8_DestroyIN4Json6Reader9ErrorInfoEEvPT_
FNDA:0,_ZSt8_DestroyIN4Json12PathArgumentEEvPT_
FNDA:0,_ZSt8_DestroyINSt7__cxx1112basic_stringIcSt11char_traitsIcESaIcEEEEvPT_
FNDA:0,_ZSt8_DestroyIN4Json9OurReader15StructuredErrorEEvPT_
FNDA:0,_ZSt8_DestroyIN4Json6Reader15StructuredErrorEEvPT_
FNDA:4,_ZNSt12_Destroy_auxILb0EE9__destroyIPN4Json9OurReader9ErrorInfoEEEvT_S6_
FNDA:0,_ZNSt12_Destroy_auxILb0EE9__destroyIPN4Json6Reader9ErrorInfoEEEvT_S6_
FNDA:0,_ZNSt12_Destroy_auxILb0EE9__destroyIPN4Json12PathArgumentEEEvT_S5_
FNDA:0,_ZNSt12_Destroy_auxILb0EE9__destroyIPNSt7__cxx1112basic_stringIcSt11char_traitsIcESaIcEEEEEvT_S9_
FNDA:0,_ZNSt12_Destroy_auxILb0EE9__destroyIPN4Json9OurReader15StructuredErrorEEEvT_S6_
FNDA:0,_ZNSt12_Destroy_auxILb0EE9__destroyIPN4Json6Reader15StructuredErrorEEEvT_S6_
FNDA:0,_ZNSt12_Destroy_auxILb1EE9__destroyIPPKN4Json12PathArgumentEEEvT_S7_
FNDA:4,_ZSt8_DestroyIPN4Json9OurReader9ErrorInfoEEvT_S4_
FNDA:0,_ZSt8_DestroyIPN4Json6Reader9ErrorInfoEEvT_S4_
FNDA:0,_ZSt8_DestroyIPPKN4Json12PathArgumentEEvT_S5_
FNDA:0,_ZSt8_DestroyIPN4Json12PathArgumentEEvT_S3_
FNDA:0,_ZSt8_DestroyIPNSt7__cxx1112basic_stringIcSt11char_traitsIcESaIcEEEEvT_S7_
FNDA:0,_ZSt8_DestroyIPN4Json9OurReader15StructuredErrorEEvT_S4_
FNDA:0,_ZSt8_DestroyIPN4Json6Reader15StructuredErrorEEvT_S4_
FNDA:4,_ZSt8_DestroyIPN4Json9OurReader9ErrorInfoES2_EvT_S4_RSaIT0_E
FNDA:0,_ZSt8_DestroyIPN4Json6Reader9ErrorInfoES2_EvT_S4_RSaIT0_E
FNDA:0,_ZSt8_DestroyIPPKN4Json12PathArgumentES3_EvT_S5_RSaIT0_E
FNDA:0,_ZSt8_DestroyIPN4Json12PathArgumentES1_EvT_S3_RSaIT0_E
FNDA:0,_ZSt8_DestroyIPNSt7__cxx1112basic_stringIcSt11char_traitsIcESaIcEEES5_EvT_S7_RSaIT0_E
FNDA:0,_ZSt8_DestroyIPN4Json9OurReader15StructuredErrorES2_EvT_S4_RSaIT0_E
FNDA:0,_ZSt8_DestroyIPN4Json6Reader15StructuredErrorES2_EvT_S4_RSaIT0_E
FNF:33
FNH:3
DA:74,0
DA:75,0
DA:76,0
DA:77,0
DA:78,0
DA:79,0
DA:80,0
DA:81,0
DA:82,0
DA:83,0
DA:84,0
DA:85,0
DA:86,0
DA:87,0
DA:109,0
DA:110,0
DA:111,0
DA:112,0
DA:113,0
DA:114,0
DA:115,0
DA:116,0
DA:117,0
DA:118,0
DA:119,0
DA:120,0
DA:121,0
DA:122,0
DA:129,4
DA:131,4
DA:132,0
DA:133,4
DA:134,4
DA:136,4
DA:137,0
DA:138,4
DA:139,0
DA:141,0
DA:142,0
DA:143,0
DA:144,0
DA:146,0
DA:147,0
DA:148,0
DA:149,0
DA:151,0
DA:152,0
DA:153,0
DA:154,0
DA:156,0
DA:157,0
DA:158,0
DA:159,0
DA:161,0
DA:162,0
DA:163,0
DA:171,0
DA:181,4
DA:191,4
DA:192,4
DA:193,4
DA:203,4
DA:204,4
DA:205,0
DA:215,0
DA:216,0
DA:217,0
DA:227,0
DA:228,0
DA:229,0
DA:239,0
DA:240,0
DA:241,0
DA:251,0
DA:252,0
DA:253,0
DA:263,0
DA:264,0
DA:265,0
DA:275,0
DA:276,0
DA:341,4
DA:344,4
DA:345,4
DA:346,4
DA:349,4
DA:350,4
DA:351,0
DA:354,0
DA:355,0
DA:356,0
DA:359,0
DA:360,0
DA:361,0
DA:364,0
DA:365,0
DA:366,0
DA:369,0
DA:370,0
DA:371,0
DA:374,0
DA:375,0
DA:376,0
DA:379,0
DA:380,0
LF:105
LH:18
end_of_record
SF:/usr/include/c++/8/bits/stl_deque.h
FN:92,_ZSt16__deque_buf_sizem
FN:129,_ZNSt15_Deque_iteratorIN4Json9OurReader9ErrorInfoERKS2_PS3_E14_S_buffer_sizeEv
FN:129,_ZNSt15_Deque_iteratorIPN4Json5ValueERS2_PS2_E14_S_buffer_sizeEv
FN:129,_ZNSt15_Deque_iteratorIN4Json6Reader9ErrorInfoERKS2_PS3_E14_S_buffer_sizeEv
FN:129,_ZNSt15_Deque_iteratorIN4Json6Reader9ErrorInfoERS2_PS2_E14_S_buffer_sizeEv
FN:129,_ZNSt15_Deque_iteratorIN4Json9OurReader9ErrorInfoERS2_PS2_E14_S_buffer_sizeEv
FN:149,_ZNSt15_Deque_iteratorIPN4Json5ValueERS2_PS2_EC2Ev
FN:149,_ZNSt15_Deque_iteratorIN4Json9OurReader9ErrorInfoERS2_PS2_EC2Ev
FN:149,_ZNSt15_Deque_iteratorIN4Json6Reader9ErrorInfoERS2_PS2_EC2Ev
FN:152,_ZNSt15_Deque_iteratorIN4Json9OurReader9ErrorInfoERS2_PS2_EC2ERKS5_
FN:152,_ZNSt15_Deque_iteratorIN4Json9OurReader9ErrorInfoERKS2_PS3_EC2ERKS_IS2_RS2_PS2_E
FN:152,_ZNSt15_Deque_iteratorIPN4Json5ValueERS2_PS2_EC2ERKS5_
FN:152,_ZNSt15_Deque_iteratorIN4Json6Reader9ErrorInfoERKS2_PS3_EC2ERKS_IS2_RS2_PS2_E
FN:152,_ZNSt15_Deque_iteratorIN4Json6Reader9ErrorInfoERS2_PS2_EC2ERKS5_
FN:161,_ZNKSt15_Deque_iteratorIN4Json6Reader9ErrorInfoERKS2_PS3_EdeEv
FN:161,_ZNKSt15_Deque_iteratorIN4Json9OurReader9ErrorInfoERS2_PS2_EdeEv
FN:161,_ZNKSt15_Deque_iteratorIN4Json6Reader9ErrorInfoERS2_PS2_EdeEv
FN:161,_ZNKSt15_Deque_iteratorIPN4Json5ValueERS2_PS2_EdeEv
FN:161,_ZNKSt15_Deque_iteratorIN4Json9OurReader9ErrorInfoERKS2_PS3_EdeEv
FN:169,_ZNSt15_Deque_iteratorIN4Json9OurReader9ErrorInfoERKS2_PS3_EppEv
FN:169,_ZNSt15_Deque_iteratorIN4Json9OurReader9ErrorInfoERS2_PS2_EppEv
FN:169,_ZNSt15_Deque_iteratorIN4Json6Reader9ErrorInfoERS2_PS2_EppEv
FN:169,_ZNSt15_Deque_iteratorIN4Json6Reader9ErrorInfoERKS2_PS3_EppEv
FN:189,_ZNSt15_Deque_iteratorIPN4Json5ValueERS2_PS2_EmmEv
FN:209,_ZNSt15_Deque_iteratorIN4Json9OurReader9ErrorInfoERS2_PS2_EpLEl
FN:209,_ZNSt15_Deque_iteratorIN4Json6Reader9ErrorInfoERS2_PS2_EpLEl
FN:228,_ZNKSt15_Deque_iteratorIN4Json9OurReader9ErrorInfoERS2_PS2_EplEl
FN:228,_ZNKSt15_Deque_iteratorIN4Json6Reader9ErrorInfoERS2_PS2_EplEl
FN:255,_ZNSt15_Deque_iteratorIN4Json9OurReader9ErrorInfoERS2_PS2_E11_M_set_nodeEPS4_
FN:255,_ZNSt15_Deque_iteratorIN4Json6Reader9ErrorInfoERS2_PS2_E11_M_set_nodeEPS4_
FN:255,_ZNSt15_Deque_iteratorIN4Json6Reader9ErrorInfoERKS2_PS3_E11_M_set_nodeEPPS2_
FN:255,_ZNSt15_Deque_iteratorIPN4Json5ValueERS2_PS2_E11_M_set_nodeEPS4_
FN:255,_ZNSt15_Deque_iteratorIN4Json9OurReader9ErrorInfoERKS2_PS3_E11_M_set_nodeEPPS2_
FN:268,_ZSteqIPN4Json5ValueERS2_PS2_EbRKSt15_Deque_iteratorIT_T0_T1_ESB_
FN:268,_ZSteqIN4Json9OurReader9ErrorInfoERKS2_PS3_EbRKSt15_Deque_iteratorIT_T0_T1_ESC_
FN:268,_ZSteqIN4Json6Reader9ErrorInfoERS2_PS2_EbRKSt15_Deque_iteratorIT_T0_T1_ESB_
FN:268,_ZSteqIN4Json6Reader9ErrorInfoERKS2_PS3_EbRKSt15_Deque_iteratorIT_T0_T1_ESC_
FN:268,_ZSteqIN4Json9OurReader9ErrorInfoERS2_PS2_EbRKSt15_Deque_iteratorIT_T0_T1_ESB_
FN:281,_ZStneIN4Json6Reader9ErrorInfoERKS2_PS3_EbRKSt15_Deque_iteratorIT_T0_T1_ESC_
FN:281,_ZStneIN4Json9OurReader9ErrorInfoERKS2_PS3_EbRKSt15_Deque_iteratorIT_T0_T1_ESC_
FN:281,_ZStneIN4Json6Reader9ErrorInfoERS2_PS2_EbRKSt15_Deque_iteratorIT_T0_T1_ESB_
FN:281,_ZStneIN4Json9OurReader9ErrorInfoERS2_PS2_EbRKSt15_Deque_iteratorIT_T0_T1_ESB_
FN:352,_ZStmiIN4Json9OurReader9ErrorInfoERS2_PS2_ENSt15_Deque_iteratorIT_T0_T1_E15difference_typeERKS9_SC_
FN:352,_ZStmiIN4Json6Reader9ErrorInfoERS2_PS2_ENSt15_Deque_iteratorIT_T0_T1_E15difference_typeERKS9_SC_
FN:352,_ZStmiIPN4Json5ValueERS2_PS2_ENSt15_Deque_iteratorIT_T0_T1_E15difference_typeERKS9_SC_
FN:491,_ZNSt11_Deque_baseIN4Json9OurReader9ErrorInfoESaIS2_EEC2Ev
FN:491,_ZNSt11_Deque_baseIPN4Json5ValueESaIS2_EEC2Ev
FN:491,_ZNSt11_Deque_baseIN4Json6Reader9ErrorInfoESaIS2_EEC2Ev
FN:558,_ZNSt11_Deque_baseIN4Json9OurReader9ErrorInfoESaIS2_EE11_Deque_implC2Ev
FN:558,_ZNSt11_Deque_baseIPN4Json5ValueESaIS2_EE11_Deque_implC2Ev
FN:558,_ZNSt11_Deque_baseIN4Json6Reader9ErrorInfoESaIS2_EE11_Deque_implC2Ev
FN:588,_ZNSt11_Deque_baseIN4Json9OurReader9ErrorInfoESaIS2_EE19_M_get_Tp_allocatorEv
FN:588,_ZNSt11_Deque_baseIN4Json6Reader9ErrorInfoESaIS2_EE19_M_get_Tp_allocatorEv
FN:588,_ZNSt11_Deque_baseIPN4Json5ValueESaIS2_EE19_M_get_Tp_allocatorEv
FN:592,_ZNKSt11_Deque_baseIN4Json6Reader9ErrorInfoESaIS2_EE19_M_get_Tp_allocatorEv
FN:592,_ZNKSt11_Deque_baseIPN4Json5ValueESaIS2_EE19_M_get_Tp_allocatorEv
FN:592,_ZNKSt11_Deque_baseIN4Json9OurReader9ErrorInfoESaIS2_EE19_M_get_Tp_allocatorEv
FN:596,_ZNKSt11_Deque_baseIN4Json6Reader9ErrorInfoESaIS2_EE20_M_get_map_allocatorEv
FN:596,_ZNKSt11_Deque_baseIN4Json9OurReader9ErrorInfoESaIS2_EE20_M_get_map_allocatorEv
FN:596,_ZNKSt11_Deque_baseIPN4Json5ValueESaIS2_EE20_M_get_map_allocatorEv
FN:600,_ZNSt11_Deque_baseIN4Json6Reader9ErrorInfoESaIS2_EE16_M_allocate_nodeEv
FN:600,_ZNSt11_Deque_baseIN4Json9OurReader9ErrorInfoESaIS2_EE16_M_allocate_nodeEv
FN:600,_ZNSt11_Deque_baseIPN4Json5ValueESaIS2_EE16_M_allocate_nodeEv
FN:607,_ZNSt11_Deque_baseIPN4Json5ValueESaIS2_EE18_M_deallocate_nodeEPS2_
FN:607,_ZNSt11_Deque_baseIN4Json9OurReader9ErrorInfoESaIS2_EE18_M_deallocate_nodeEPS2_
FN:607,_ZNSt11_Deque_baseIN4Json6Reader9ErrorInfoESaIS2_EE18_M_deallocate_nodeEPS2_
FN:614,_ZNSt11_Deque_baseIN4Json6Reader9ErrorInfoESaIS2_EE15_M_allocate_mapEm
FN:614,_ZNSt11_Deque_baseIN4Json9OurReader9ErrorInfoESaIS2_EE15_M_allocate_mapEm
FN:614,_ZNSt11_Deque_baseIPN4Json5ValueESaIS2_EE15_M_allocate_mapEm
FN:621,_ZNSt11_Deque_baseIN4Json9OurReader9ErrorInfoESaIS2_EE17_M_deallocate_mapEPPS2_m
FN:621,_ZNSt11_Deque_baseIPN4Json5ValueESaIS2_EE17_M_deallocate_mapEPPS2_m
FN:621,_ZNSt11_Deque_baseIN4Json6Reader9ErrorInfoESaIS2_EE17_M_deallocate_mapEPPS2_m
FN:661,_ZNSt11_Deque_baseIN4Json9OurReader9ErrorInfoESaIS2_EED2Ev
FN:661,_ZNSt11_Deque_baseIN4Json6Reader9ErrorInfoESaIS2_EED2Ev
FN:661,_ZNSt11_Deque_baseIPN4Json5ValueESaIS2_EED2Ev
FN:682,_ZNSt11_Deque_baseIN4Json9OurReader9ErrorInfoESaIS2_EE17_M_initialize_mapEm
FN:682,_ZNSt11_Deque_baseIN4Json6Reader9ErrorInfoESaIS2_EE17_M_initialize_mapEm
FN:682,_ZNSt11_Deque_baseIPN4Json5ValueESaIS2_EE17_M_initialize_mapEm
FN:721,_ZNSt11_Deque_baseIN4Json9OurReader9ErrorInfoESaIS2_EE15_M_create_nodesEPPS2_S6_
FN:721,_ZNSt11_Deque_baseIPN4Json5ValueESaIS2_EE15_M_create_nodesEPPS2_S6_
FN:721,_ZNSt11_Deque_baseIN4Json6Reader9ErrorInfoESaIS2_EE15_M_create_nodesEPPS2_S6_
FN:739,_ZNSt11_Deque_baseIPN4Json5ValueESaIS2_EE16_M_destroy_nodesEPPS2_S6_
FN:739,_ZNSt11_Deque_baseIN4Json6Reader9ErrorInfoESaIS2_EE16_M_destroy_nodesEPPS2_S6_
FN:739,_ZNSt11_Deque_baseIN4Json9OurReader9ErrorInfoESaIS2_EE16_M_destroy_nodesEPPS2_S6_
FN:872,_ZNSt5dequeIN4Json9OurReader9ErrorInfoESaIS2_EE14_S_buffer_sizeEv
FN:872,_ZNSt5dequeIN4Json6Reader9ErrorInfoESaIS2_EE14_S_buffer_sizeEv
FN:898,_ZNSt5dequeIPN4Json5ValueESaIS2_EEC2Ev
FN:898,_ZNSt5dequeIN4Json9OurReader9ErrorInfoESaIS2_EEC2Ev
FN:898,_ZNSt5dequeIN4Json6Reader9ErrorInfoESaIS2_EEC2Ev
FN:1054,_ZNSt5dequeIN4Json9OurReader9ErrorInfoESaIS2_EED2Ev
FN:1054,_ZNSt5dequeIPN4Json5ValueESaIS2_EED2Ev
FN:1054,_ZNSt5dequeIN4Json6Reader9ErrorInfoESaIS2_EED2Ev
FN:1176,_ZNSt5dequeIN4Json6Reader9ErrorInfoESaIS2_EE5beginEv
FN:1176,_ZNSt5dequeIPN4Json5ValueESaIS2_EE5beginEv
FN:1176,_ZNSt5dequeIN4Json9OurReader9ErrorInfoESaIS2_EE5beginEv
FN:1184,_ZNKSt5dequeIN4Json9OurReader9ErrorInfoESaIS2_EE5beginEv
FN:1184,_ZNKSt5dequeIN4Json6Reader9ErrorInfoESaIS2_EE5beginEv
FN:1193,_ZNSt5dequeIPN4Json5ValueESaIS2_EE3endEv
FN:1193,_ZNSt5dequeIN4Json6Reader9ErrorInfoESaIS2_EE3endEv
FN:1193,_ZNSt5dequeIN4Json9OurReader9ErrorInfoESaIS2_EE3endEv
FN:1202,_ZNKSt5dequeIN4Json6Reader9ErrorInfoESaIS2_EE3endEv
FN:1202,_ZNKSt5dequeIN4Json9OurReader9ErrorInfoESaIS2_EE3endEv
FN:1281,_ZNKSt5dequeIPN4Json5ValueESaIS2_EE4sizeEv
FN:1281,_ZNKSt5dequeIN4Json6Reader9ErrorInfoESaIS2_EE4sizeEv
FN:1281,_ZNKSt5dequeIN4Json9OurReader9ErrorInfoESaIS2_EE4sizeEv
FN:1286,_ZNKSt5dequeIN4Json9OurReader9ErrorInfoESaIS2_EE8max_sizeEv
FN:1286,_ZNKSt5dequeIN4Json6Reader9ErrorInfoESaIS2_EE8max_sizeEv
FN:1300,_ZNSt5dequeIN4Json6Reader9ErrorInfoESaIS2_EE6resizeEm
FN:1300,_ZNSt5dequeIN4Json9OurReader9ErrorInfoESaIS2_EE6resizeEm
FN:1367,_ZNKSt5dequeIN4Json6Reader9ErrorInfoESaIS2_EE5emptyEv
FN:1367,_ZNKSt5dequeIPN4Json5ValueESaIS2_EE5emptyEv
FN:1367,_ZNKSt5dequeIN4Json9OurReader9ErrorInfoESaIS2_EE5emptyEv
FN:1483,_ZNSt5dequeIPN4Json5ValueESaIS2_EE4backEv
FN:1552,_ZNSt5dequeIN4Json9OurReader9ErrorInfoESaIS2_EE9push_backERKS2_
FN:1552,_ZNSt5dequeIN4Json6Reader9ErrorInfoESaIS2_EE9push_backERKS2_
FN:1567,_ZNSt5dequeIPN4Json5ValueESaIS2_EE9push_backEOS2_
FN:1611,_ZNSt5dequeIPN4Json5ValueESaIS2_EE8pop_backEv
FN:1850,_ZNSt5dequeIN4Json9OurReader9ErrorInfoESaIS2_EE5clearEv
FN:1850,_ZNSt5dequeIN4Json6Reader9ErrorInfoESaIS2_EE5clearEv
FN:2078,_ZNSt5dequeIN4Json6Reader9ErrorInfoESaIS2_EE15_M_destroy_dataESt15_Deque_iteratorIS2_RS2_PS2_ES8_RKS3_
FN:2078,_ZNSt5dequeIN4Json9OurReader9ErrorInfoESaIS2_EE15_M_destroy_dataESt15_Deque_iteratorIS2_RS2_PS2_ES8_RKS3_
FN:2078,_ZNSt5dequeIPN4Json5ValueESaIS2_EE15_M_destroy_dataESt15_Deque_iteratorIS2_RS2_PS2_ES8_RKS3_
FN:2097,_ZNSt5dequeIN4Json6Reader9ErrorInfoESaIS2_EE15_M_erase_at_endESt15_Deque_iteratorIS2_RS2_PS2_E
FN:2097,_ZNSt5dequeIN4Json9OurReader9ErrorInfoESaIS2_EE15_M_erase_at_endESt15_Deque_iteratorIS2_RS2_PS2_E
FN:2133,_ZNSt5dequeIN4Json6Reader9ErrorInfoESaIS2_EE27_M_reserve_elements_at_backEm
FN:2133,_ZNSt5dequeIN4Json9OurReader9ErrorInfoESaIS2_EE27_M_reserve_elements_at_backEm
FN:2159,_ZNSt5dequeIN4Json6Reader9ErrorInfoESaIS2_EE22_M_reserve_map_at_backEm
FN:2159,_ZNSt5dequeIN4Json9OurReader9ErrorInfoESaIS2_EE22_M_reserve_map_at_backEm
FN:2159,_ZNSt5dequeIPN4Json5ValueESaIS2_EE22_M_reserve_map_at_backEm
FNDA:1832,_ZSt16__deque_buf_sizem
FNDA:1812,_ZNSt15_Deque_iteratorIPN4Json5ValueERS2_PS2_E14_S_buffer_sizeEv
FNDA:0,_ZNSt15_Deque_iteratorIN4Json9OurReader9ErrorInfoERKS2_PS3_E14_S_buffer_sizeEv
FNDA:4,_ZNSt15_Deque_iteratorIN4Json9OurReader9ErrorInfoERS2_PS2_E14_S_buffer_sizeEv
FNDA:0,_ZNSt15_Deque_iteratorIN4Json6Reader9ErrorInfoERKS2_PS3_E14_S_buffer_sizeEv
FNDA:0,_ZNSt15_Deque_iteratorIN4Json6Reader9ErrorInfoERS2_PS2_E14_S_buffer_sizeEv
FNDA:4,_ZNSt15_Deque_iteratorIPN4Json5ValueERS2_PS2_EC2Ev
FNDA:4,_ZNSt15_Deque_iteratorIN4Json9OurReader9ErrorInfoERS2_PS2_EC2Ev
FNDA:0,_ZNSt15_Deque_iteratorIN4Json6Reader9ErrorInfoERS2_PS2_EC2Ev
FNDA:18,_ZNSt15_Deque_iteratorIN4Json9OurReader9ErrorInfoERS2_PS2_EC2ERKS5_
FNDA:0,_ZNSt15_Deque_iteratorIN4Json6Reader9ErrorInfoERS2_PS2_EC2ERKS5_
FNDA:10850,_ZNSt15_Deque_iteratorIPN4Json5ValueERS2_PS2_EC2ERKS5_
FNDA:4,_ZNSt15_Deque_iteratorIN4Json9OurReader9ErrorInfoERKS2_PS3_EC2ERKS_IS2_RS2_PS2_E
FNDA:0,_ZNSt15_Deque_iteratorIN4Json6Reader9ErrorInfoERKS2_PS3_EC2ERKS_IS2_RS2_PS2_E
FNDA:0,_ZNKSt15_Deque_iteratorIN4Json9OurReader9ErrorInfoERS2_PS2_EdeEv
FNDA:0,_ZNKSt15_Deque_iteratorIN4Json6Reader9ErrorInfoERS2_PS2_EdeEv
FNDA:10846,_ZNKSt15_Deque_iteratorIPN4Json5ValueERS2_PS2_EdeEv
FNDA:0,_ZNKSt15_Deque_iteratorIN4Json9OurReader9ErrorInfoERKS2_PS3_EdeEv
FNDA:0,_ZNKSt15_Deque_iteratorIN4Json6Reader9ErrorInfoERKS2_PS3_EdeEv
FNDA:0,_ZNSt15_Deque_iteratorIN4Json9OurReader9ErrorInfoERS2_PS2_EppEv
FNDA:0,_ZNSt15_Deque_iteratorIN4Json6Reader9ErrorInfoERS2_PS2_EppEv
FNDA:0,_ZNSt15_Deque_iteratorIN4Json9OurReader9ErrorInfoERKS2_PS3_EppEv
FNDA:0,_ZNSt15_Deque_iteratorIN4Json6Reader9ErrorInfoERKS2_PS3_EppEv
FNDA:10846,_ZNSt15_Deque_iteratorIPN4Json5ValueERS2_PS2_EmmEv
FNDA:0,_ZNSt15_Deque_iteratorIN4Json9OurReader9ErrorInfoERS2_PS2_EpLEl
FNDA:0,_ZNSt15_Deque_iteratorIN4Json6Reader9ErrorInfoERS2_PS2_EpLEl
FNDA:0,_ZNKSt15_Deque_iteratorIN4Json9OurReader9ErrorInfoERS2_PS2_EplEl
FNDA:0,_ZNKSt15_Deque_iteratorIN4Json6Reader9ErrorInfoERS2_PS2_EplEl
FNDA:4,_ZNSt15_Deque_iteratorIPN4Json5ValueERS2_PS2_E11_M_set_nodeEPS4_
FNDA:4,_ZNSt15_Deque_iteratorIN4Json9OurReader9ErrorInfoERS2_PS2_E11_M_set_nodeEPS4_
FNDA:0,_ZNSt15_Deque_iteratorIN4Json6Reader9ErrorInfoERS2_PS2_E11_M_set_nodeEPS4_
FNDA:0,_ZNSt15_Deque_iteratorIN4Json9OurReader9ErrorInfoERKS2_PS3_E11_M_set_nodeEPPS2_
FNDA:0,_ZNSt15_Deque_iteratorIN4Json6Reader9ErrorInfoERKS2_PS3_E11_M_set_nodeEPPS2_
FNDA:2,_ZSteqIPN4Json5ValueERS2_PS2_EbRKSt15_Deque_iteratorIT_T0_T1_ESB_
FNDA:0,_ZSteqIN4Json9OurReader9ErrorInfoERS2_PS2_EbRKSt15_Deque_iteratorIT_T0_T1_ESB_
FNDA:2,_ZSteqIN4Json9OurReader9ErrorInfoERKS2_PS3_EbRKSt15_Deque_iteratorIT_T0_T1_ESC_
FNDA:0,_ZSteqIN4Json6Reader9ErrorInfoERS2_PS2_EbRKSt15_Deque_iteratorIT_T0_T1_ESB_
FNDA:0,_ZSteqIN4Json6Reader9ErrorInfoERKS2_PS3_EbRKSt15_Deque_iteratorIT_T0_T1_ESC_
FNDA:0,_ZStneIN4Json9OurReader9ErrorInfoERS2_PS2_EbRKSt15_Deque_iteratorIT_T0_T1_ESB_
FNDA:0,_ZStneIN4Json6Reader9ErrorInfoERS2_PS2_EbRKSt15_Deque_iteratorIT_T0_T1_ESB_
FNDA:2,_ZStneIN4Json9OurReader9ErrorInfoERKS2_PS3_EbRKSt15_Deque_iteratorIT_T0_T1_ESC_
FNDA:0,_ZStneIN4Json6Reader9ErrorInfoERKS2_PS3_EbRKSt15_Deque_iteratorIT_T0_T1_ESC_
FNDA:1808,_ZStmiIPN4Json5ValueERS2_PS2_ENSt15_Deque_iteratorIT_T0_T1_E15difference_typeERKS9_SC_
FNDA:0,_ZStmiIN4Json9OurReader9ErrorInfoERS2_PS2_ENSt15_Deque_iteratorIT_T0_T1_E15difference_typeERKS9_SC_
FNDA:0,_ZStmiIN4Json6Reader9ErrorInfoERS2_PS2_ENSt15_Deque_iteratorIT_T0_T1_E15difference_typeERKS9_SC_
FNDA:2,_ZNSt11_Deque_baseIPN4Json5ValueESaIS2_EEC2Ev
FNDA:2,_ZNSt11_Deque_baseIN4Json9OurReader9ErrorInfoESaIS2_EEC2Ev
FNDA:0,_ZNSt11_Deque_baseIN4Json6Reader9ErrorInfoESaIS2_EEC2Ev
FNDA:2,_ZNSt11_Deque_baseIPN4Json5ValueESaIS2_EE11_Deque_implC2Ev
FNDA:2,_ZNSt11_Deque_baseIN4Json9OurReader9ErrorInfoESaIS2_EE11_Deque_implC2Ev
FNDA:0,_ZNSt11_Deque_baseIN4Json6Reader9ErrorInfoESaIS2_EE11_Deque_implC2Ev
FNDA:8,_ZNSt11_Deque_baseIN4Json9OurReader9ErrorInfoESaIS2_EE19_M_get_Tp_allocatorEv
FNDA:0,_ZNSt11_Deque_baseIN4Json6Reader9ErrorInfoESaIS2_EE19_M_get_Tp_allocatorEv
FNDA:2,_ZNSt11_Deque_baseIPN4Json5ValueESaIS2_EE19_M_get_Tp_allocatorEv
FNDA:4,_ZNKSt11_Deque_baseIN4Json9OurReader9ErrorInfoESaIS2_EE19_M_get_Tp_allocatorEv
FNDA:0,_ZNKSt11_Deque_baseIN4Json6Reader9ErrorInfoESaIS2_EE19_M_get_Tp_allocatorEv
FNDA:4,_ZNKSt11_Deque_baseIPN4Json5ValueESaIS2_EE19_M_get_Tp_allocatorEv
FNDA:4,_ZNKSt11_Deque_baseIN4Json9OurReader9ErrorInfoESaIS2_EE20_M_get_map_allocatorEv
FNDA:0,_ZNKSt11_Deque_baseIN4Json6Reader9ErrorInfoESaIS2_EE20_M_get_map_allocatorEv
FNDA:4,_ZNKSt11_Deque_baseIPN4Json5ValueESaIS2_EE20_M_get_map_allocatorEv
FNDA:2,_ZNSt11_Deque_baseIPN4Json5ValueESaIS2_EE16_M_allocate_nodeEv
FNDA:2,_ZNSt11_Deque_baseIN4Json9OurReader9ErrorInfoESaIS2_EE16_M_allocate_nodeEv
FNDA:0,_ZNSt11_Deque_baseIN4Json6Reader9ErrorInfoESaIS2_EE16_M_allocate_nodeEv
FNDA:2,_ZNSt11_Deque_baseIPN4Json5ValueESaIS2_EE18_M_deallocate_nodeEPS2_
FNDA:2,_ZNSt11_Deque_baseIN4Json9OurReader9ErrorInfoESaIS2_EE18_M_deallocate_nodeEPS2_
FNDA:0,_ZNSt11_Deque_baseIN4Json6Reader9ErrorInfoESaIS2_EE18_M_deallocate_nodeEPS2_
FNDA:2,_ZNSt11_Deque_baseIPN4Json5ValueESaIS2_EE15_M_allocate_mapEm
FNDA:2,_ZNSt11_Deque_baseIN4Json9OurReader9ErrorInfoESaIS2_EE15_M_allocate_mapEm
FNDA:0,_ZNSt11_Deque_baseIN4Json6Reader9ErrorInfoESaIS2_EE15_M_allocate_mapEm
FNDA:2,_ZNSt11_Deque_baseIN4Json9OurReader9ErrorInfoESaIS2_EE17_M_deallocate_mapEPPS2_m
FNDA:0,_ZNSt11_Deque_baseIN4Json6Reader9ErrorInfoESaIS2_EE17_M_deallocate_mapEPPS2_m
FNDA:2,_ZNSt11_Deque_baseIPN4Json5ValueESaIS2_EE17_M_deallocate_mapEPPS2_m
FNDA:2,_ZNSt11_Deque_baseIN4Json9OurReader9ErrorInfoESaIS2_EED2Ev
FNDA:0,_ZNSt11_Deque_baseIN4Json6Reader9ErrorInfoESaIS2_EED2Ev
FNDA:2,_ZNSt11_Deque_baseIPN4Json5ValueESaIS2_EED2Ev
FNDA:2,_ZNSt11_Deque_baseIPN4Json5ValueESaIS2_EE17_M_initialize_mapEm
FNDA:2,_ZNSt11_Deque_baseIN4Json9OurReader9ErrorInfoESaIS2_EE17_M_initialize_mapEm
FNDA:0,_ZNSt11_Deque_baseIN4Json6Reader9ErrorInfoESaIS2_EE17_M_initialize_mapEm
FNDA:2,_ZNSt11_Deque_baseIPN4Json5ValueESaIS2_EE15_M_create_nodesEPPS2_S6_
FNDA:2,_ZNSt11_Deque_baseIN4Json9OurReader9ErrorInfoESaIS2_EE15_M_create_nodesEPPS2_S6_
FNDA:0,_ZNSt11_Deque_baseIN4Json6Reader9ErrorInfoESaIS2_EE15_M_create_nodesEPPS2_S6_
FNDA:4,_ZNSt11_Deque_baseIN4Json9OurReader9ErrorInfoESaIS2_EE16_M_destroy_nodesEPPS2_S6_
FNDA:0,_ZNSt11_Deque_baseIN4Json6Reader9ErrorInfoESaIS2_EE16_M_destroy_nodesEPPS2_S6_
FNDA:2,_ZNSt11_Deque_baseIPN4Json5ValueESaIS2_EE16_M_destroy_nodesEPPS2_S6_
FNDA:0,_ZNSt5dequeIN4Json9OurReader9ErrorInfoESaIS2_EE14_S_buffer_sizeEv
FNDA:0,_ZNSt5dequeIN4Json6Reader9ErrorInfoESaIS2_EE14_S_buffer_sizeEv
FNDA:2,_ZNSt5dequeIPN4Json5ValueESaIS2_EEC2Ev
FNDA:2,_ZNSt5dequeIN4Json9OurReader9ErrorInfoESaIS2_EEC2Ev
FNDA:0,_ZNSt5dequeIN4Json6Reader9ErrorInfoESaIS2_EEC2Ev
FNDA:2,_ZNSt5dequeIN4Json9OurReader9ErrorInfoESaIS2_EED2Ev
FNDA:0,_ZNSt5dequeIN4Json6Reader9ErrorInfoESaIS2_EED2Ev
FNDA:2,_ZNSt5dequeIPN4Json5ValueESaIS2_EED2Ev
FNDA:4,_ZNSt5dequeIN4Json9OurReader9ErrorInfoESaIS2_EE5beginEv
FNDA:0,_ZNSt5dequeIN4Json6Reader9ErrorInfoESaIS2_EE5beginEv
FNDA:2,_ZNSt5dequeIPN4Json5ValueESaIS2_EE5beginEv
FNDA:2,_ZNKSt5dequeIN4Json9OurReader9ErrorInfoESaIS2_EE5beginEv
FNDA:0,_ZNKSt5dequeIN4Json6Reader9ErrorInfoESaIS2_EE5beginEv
FNDA:4,_ZNSt5dequeIN4Json9OurReader9ErrorInfoESaIS2_EE3endEv
FNDA:0,_ZNSt5dequeIN4Json6Reader9ErrorInfoESaIS2_EE3endEv
FNDA:10848,_ZNSt5dequeIPN4Json5ValueESaIS2_EE3endEv
FNDA:2,_ZNKSt5dequeIN4Json9OurReader9ErrorInfoESaIS2_EE3endEv
FNDA:0,_ZNKSt5dequeIN4Json6Reader9ErrorInfoESaIS2_EE3endEv
FNDA:1808,_ZNKSt5dequeIPN4Json5ValueESaIS2_EE4sizeEv
FNDA:0,_ZNKSt5dequeIN4Json9OurReader9ErrorInfoESaIS2_EE4sizeEv
FNDA:0,_ZNKSt5dequeIN4Json6Reader9ErrorInfoESaIS2_EE4sizeEv
FNDA:0,_ZNKSt5dequeIN4Json9OurReader9ErrorInfoESaIS2_EE8max_sizeEv
FNDA:0,_ZNKSt5dequeIN4Json6Reader9ErrorInfoESaIS2_EE8max_sizeEv
FNDA:0,_ZNSt5dequeIN4Json9OurReader9ErrorInfoESaIS2_EE6resizeEm
FNDA:0,_ZNSt5dequeIN4Json6Reader9ErrorInfoESaIS2_EE6resizeEm
FNDA:2,_ZNKSt5dequeIPN4Json5ValueESaIS2_EE5emptyEv
FNDA:0,_ZNKSt5dequeIN4Json9OurReader9ErrorInfoESaIS2_EE5emptyEv
FNDA:0,_ZNKSt5dequeIN4Json6Reader9ErrorInfoESaIS2_EE5emptyEv
FNDA:10846,_ZNSt5dequeIPN4Json5ValueESaIS2_EE4backEv
FNDA:0,_ZNSt5dequeIN4Json9OurReader9ErrorInfoESaIS2_EE9push_backERKS2_
FNDA:0,_ZNSt5dequeIN4Json6Reader9ErrorInfoESaIS2_EE9push_backERKS2_
FNDA:1808,_ZNSt5dequeIPN4Json5ValueESaIS2_EE9push_backEOS2_
FNDA:1808,_ZNSt5dequeIPN4Json5ValueESaIS2_EE8pop_backEv
FNDA:2,_ZNSt5dequeIN4Json9OurReader9ErrorInfoESaIS2_EE5clearEv
FNDA:0,_ZNSt5dequeIN4Json6Reader9ErrorInfoESaIS2_EE5clearEv
FNDA:4,_ZNSt5dequeIN4Json9OurReader9ErrorInfoESaIS2_EE15_M_destroy_dataESt15_Deque_iteratorIS2_RS2_PS2_ES8_RKS3_
FNDA:0,_ZNSt5dequeIN4Json6Reader9ErrorInfoESaIS2_EE15_M_destroy_dataESt15_Deque_iteratorIS2_RS2_PS2_ES8_RKS3_
FNDA:2,_ZNSt5dequeIPN4Json5ValueESaIS2_EE15_M_destroy_dataESt15_Deque_iteratorIS2_RS2_PS2_ES8_RKS3_
FNDA:2,_ZNSt5dequeIN4Json9OurReader9ErrorInfoESaIS2_EE15_M_erase_at_endESt15_Deque_iteratorIS2_RS2_PS2_E
FNDA:0,_ZNSt5dequeIN4Json6Reader9ErrorInfoESaIS2_EE15_M_erase_at_endESt15_Deque_iteratorIS2_RS2_PS2_E
FNDA:0,_ZNSt5dequeIN4Json9OurReader9ErrorInfoESaIS2_EE27_M_reserve_elements_at_backEm
FNDA:0,_ZNSt5dequeIN4Json6Reader9ErrorInfoESaIS2_EE27_M_reserve_elements_at_backEm
FNDA:0,_ZNSt5dequeIPN4Json5ValueESaIS2_EE22_M_reserve_map_at_backEm
FNDA:0,_ZNSt5dequeIN4Json9OurReader9ErrorInfoESaIS2_EE22_M_reserve_map_at_backEm
FNDA:0,_ZNSt5dequeIN4Json6Reader9ErrorInfoESaIS2_EE22_M_reserve_map_at_backEm
FNF:129
FNH:61
DA:92,1832
DA:94,1832
DA:129,1816
DA:130,1816
DA:131,1812
DA:132,1812
DA:133,0
DA:134,0
DA:135,4
DA:136,4
DA:137,0
DA:138,0
DA:139,0
DA:140,0
DA:159,8
DA:160,8
DA:161,4
DA:162,4
DA:163,4
DA:164,4
DA:165,0
DA:166,0
DA:168,10872
DA:169,21744
DA:170,21744
DA:171,18
DA:172,36
DA:173,36
DA:174,0
DA:175,0
DA:176,0
DA:177,10850
DA:178,21700
DA:179,21700
DA:180,4
DA:181,8
DA:182,8
DA:183,0
DA:184,0
DA:185,0
DA:192,10846
DA:193,10846
DA:194,0
DA:195,0
DA:196,0
DA:197,0
DA:198,10846
DA:199,10846
DA:200,0
DA:201,0
DA:202,0
DA:203,0
DA:210,0
DA:212,0
DA:213,0
DA:215,0
DA:216,0
DA:218,0
DA:220,0
DA:222,0
DA:223,0
DA:225,0
DA:226,0
DA:228,0
DA:230,0
DA:232,0
DA:233,0
DA:235,0
DA:236,0
DA:238,0
DA:240,0
DA:242,0
DA:243,0
DA:245,0
DA:246,0
DA:248,0
DA:250,0
DA:252,0
DA:253,0
DA:255,0
DA:256,0
DA:258,0
DA:270,10846
DA:272,10846
DA:274,0
DA:275,0
DA:277,10846
DA:278,10846
DA:290,0
DA:292,0
DA:293,0
DA:294,0
DA:297,0
DA:298,0
DA:299,0
DA:300,0
DA:301,0
DA:302,0
DA:303,0
DA:305,0
DA:307,0
DA:309,0
DA:310,0
DA:311,0
DA:314,0
DA:315,0
DA:316,0
DA:317,0
DA:318,0
DA:319,0
DA:320,0
DA:322,0
DA:324,0
DA:326,0
DA:327,0
DA:328,0
DA:331,0
DA:332,0
DA:333,0
DA:334,0
DA:335,0
DA:336,0
DA:337,0
DA:339,0
DA:343,0
DA:345,0
DA:346,0
DA:348,0
DA:350,0
DA:351,0
DA:353,0
DA:355,0
DA:356,0
DA:380,8
DA:382,8
DA:383,8
DA:384,8
DA:385,8
DA:386,4
DA:388,4
DA:389,4
DA:390,4
DA:391,4
DA:392,4
DA:394,4
DA:395,4
DA:396,4
DA:397,4
DA:398,0
DA:400,0
DA:401,0
DA:402,0
DA:403,0
DA:404,0
DA:406,0
DA:407,0
DA:408,0
DA:409,0
DA:410,0
DA:412,0
DA:413,0
DA:414,0
DA:415,0
DA:423,4
DA:425,4
DA:426,2
DA:428,2
DA:429,0
DA:431,0
DA:432,2
DA:434,2
DA:435,0
DA:437,0
DA:438,0
DA:440,0
DA:451,2
DA:453,2
DA:454,0
DA:456,0
DA:457,0
DA:459,0
DA:460,2
DA:462,2
DA:463,0
DA:465,0
DA:534,1808
DA:538,1808
DA:539,1808
DA:540,1808
DA:542,1808
DA:546,1808
DA:547,1808
DA:548,1808
DA:550,0
DA:554,0
DA:555,0
DA:556,0
DA:558,0
DA:562,0
DA:563,0
DA:564,0
DA:697,4
DA:698,4
DA:699,4
DA:700,2
DA:701,2
DA:702,2
DA:703,2
DA:704,2
DA:705,2
DA:706,0
DA:707,0
DA:708,0
DA:773,4
DA:775,4
DA:776,4
DA:777,2
DA:779,2
DA:780,2
DA:781,2
DA:783,2
DA:784,2
DA:785,0
DA:787,0
DA:788,0
DA:815,10
DA:816,10
DA:817,8
DA:818,8
DA:819,0
DA:820,0
DA:821,2
DA:822,2
DA:825,8
DA:826,8
DA:827,4
DA:828,4
DA:829,0
DA:830,0
DA:831,4
DA:832,4
DA:835,8
DA:836,8
DA:837,4
DA:838,4
DA:839,0
DA:840,0
DA:841,4
DA:842,4
DA:845,4
DA:848,4
DA:850,2
DA:853,2
DA:855,2
DA:858,2
DA:860,0
DA:863,0
DA:867,4
DA:870,4
DA:871,4
DA:872,2
DA:875,2
DA:876,2
DA:877,2
DA:880,2
DA:881,2
DA:882,0
DA:885,0
DA:886,0
DA:889,4
DA:891,8
DA:892,8
DA:894,2
DA:896,4
DA:897,4
DA:899,2
DA:901,4
DA:902,4
DA:904,0
DA:906,0
DA:907,0
DA:911,4
DA:913,8
DA:914,4
DA:915,4
DA:916,2
DA:918,4
DA:919,2
DA:920,2
DA:921,0
DA:923,0
DA:924,0
DA:925,0
DA:926,2
DA:928,4
DA:929,2
DA:930,2
DA:966,4
DA:969,4
DA:971,4
DA:972,4
DA:973,4
DA:975,4
DA:976,2
DA:979,2
DA:981,2
DA:982,2
DA:983,2
DA:985,2
DA:986,0
DA:989,0
DA:991,0
DA:992,0
DA:993,0
DA:995,0
DA:996,2
DA:999,2
DA:1001,2
DA:1002,2
DA:1003,2
DA:1005,2
DA:1017,4
DA:1020,4
DA:1023,4
DA:1024,4
DA:1025,4
DA:1032,8
DA:1033,4
DA:1034,4
DA:1037,4
DA:1038,0
DA:1040,0
DA:1041,0
DA:1042,0
DA:1043,0
DA:1046,4
DA:1047,4
DA:1048,4
DA:1049,8
DA:1050,4
DA:1051,4
DA:1052,4
DA:1053,2
DA:1056,2
DA:1059,2
DA:1060,2
DA:1061,2
DA:1068,4
DA:1069,2
DA:1070,2
DA:1073,2
DA:1074,0
DA:1076,0
DA:1077,0
DA:1078,0
DA:1079,0
DA:1082,2
DA:1083,2
DA:1084,2
DA:1085,4
DA:1086,2
DA:1087,2
DA:1088,2
DA:1089,2
DA:1092,2
DA:1095,2
DA:1096,2
DA:1097,2
DA:1104,4
DA:1105,2
DA:1106,2
DA:1109,2
DA:1110,0
DA:1112,0
DA:1113,0
DA:1114,0
DA:1115,0
DA:1118,2
DA:1119,2
DA:1120,2
DA:1121,4
DA:1122,2
DA:1123,2
DA:1124,2
DA:1125,0
DA:1128,0
DA:1131,0
DA:1132,0
DA:1133,0
DA:1140,0
DA:1141,0
DA:1142,0
DA:1145,0
DA:1146,0
DA:1148,0
DA:1149,0
DA:1150,0
DA:1151,0
DA:1154,0
DA:1155,0
DA:1156,0
DA:1157,0
DA:1158,0
DA:1159,0
DA:1160,0
DA:1164,4
DA:1170,8
DA:1171,4
DA:1173,0
DA:1175,0
DA:1176,0
DA:1178,4
DA:1179,2
DA:1185,4
DA:1186,2
DA:1188,0
DA:1190,0
DA:1191,0
DA:1193,2
DA:1194,2
DA:1200,4
DA:1201,2
DA:1203,0
DA:1205,0
DA:1206,0
DA:1208,2
DA:1209,0
DA:1215,0
DA:1216,0
DA:1218,0
DA:1220,0
DA:1221,0
DA:1223,0
DA:1227,6
DA:1231,10
DA:1232,4
DA:1233,6
DA:1234,4
DA:1238,6
DA:1239,2
DA:1240,4
DA:1241,0
DA:1245,0
DA:1246,0
DA:1247,0
DA:1248,2
DA:1252,4
DA:1253,2
DA:1254,2
DA:1381,0
DA:1382,0
DA:1383,0
DA:1384,0
DA:1385,0
DA:1386,0
DA:1411,4
DA:1567,4
DA:1568,4
DA:1569,2
DA:1570,2
DA:1571,0
DA:1572,0
DA:1573,2
DA:1574,2
DA:1695,6
DA:1696,6
DA:1697,4
DA:1698,4
DA:1699,0
DA:1700,0
DA:1701,2
DA:1702,2
DA:1709,2
DA:1710,2
DA:1711,2
DA:1712,2
DA:1713,0
DA:1714,0
DA:1722,10852
DA:1723,10852
DA:1724,4
DA:1725,4
DA:1726,0
DA:1727,0
DA:1728,10848
DA:1729,10848
DA:1737,2
DA:1738,2
DA:1739,2
DA:1740,2
DA:1741,0
DA:1742,0
DA:1820,1808
DA:1821,1808
DA:1822,1808
DA:1823,1808
DA:1824,0
DA:1825,0
DA:1826,0
DA:1827,0
DA:1831,0
DA:1832,0
DA:1833,0
DA:1834,0
DA:1835,0
DA:1836,0
DA:1849,0
DA:1851,0
DA:1852,0
DA:1853,0
DA:1854,0
DA:1855,0
DA:1857,0
DA:1858,0
DA:1860,0
DA:1861,0
DA:1862,0
DA:1863,0
DA:1864,0
DA:1866,0
DA:1867,0
DA:1869,0
DA:1870,0
DA:1871,0
DA:1872,0
DA:1873,0
DA:1875,0
DA:1934,2
DA:1935,2
DA:1936,2
DA:1937,2
DA:1938,0
DA:1939,0
DA:1940,0
DA:1941,0
DA:2056,10846
DA:2059,10846
DA:2060,10846
DA:2061,10846
DA:2125,0
DA:2127,0
DA:2128,0
DA:2130,0
DA:2132,0
DA:2135,0
DA:2136,0
DA:2137,0
DA:2139,0
DA:2140,0
DA:2142,0
DA:2144,0
DA:2147,0
DA:2148,0
DA:2149,0
DA:2151,0
DA:2152,0
DA:2154,0
DA:2156,0
DA:2159,0
DA:2160,0
DA:2164,1808
DA:2165,1808
DA:2208,1808
DA:2211,3616
DA:2212,1808
DA:2214,1808
DA:2215,1808
DA:2219,0
DA:2220,1808
DA:2447,2
DA:2448,2
DA:2449,2
DA:2450,2
DA:2451,0
DA:2452,0
DA:2679,6
DA:2683,4
DA:2684,6
DA:2685,4
DA:2689,4
DA:2690,4
DA:2691,0
DA:2695,0
DA:2696,0
DA:2697,2
DA:2702,2
DA:2716,2
DA:2718,2
DA:2719,4
DA:2720,2
DA:2721,2
DA:2722,2
DA:2723,2
DA:2725,2
DA:2726,4
DA:2727,2
DA:2728,2
DA:2729,2
DA:2730,0
DA:2732,0
DA:2733,0
DA:2734,0
DA:2735,0
DA:2736,0
DA:2766,0
DA:2768,0
DA:2769,0
DA:2770,0
DA:2771,0
DA:2772,0
DA:2774,0
DA:2776,0
DA:2777,0
DA:2778,0
DA:2779,0
DA:2780,0
DA:2782,0
DA:2784,0
DA:2785,0
DA:2786,0
DA:2787,0
DA:2788,0
DA:2808,0
DA:2810,0
DA:2811,0
DA:2812,0
DA:2813,0
DA:2814,0
DA:2816,0
DA:2817,0
DA:2818,0
DA:2819,0
DA:2820,0
DA:2822,0
DA:2823,0
DA:2824,0
DA:2825,0
DA:2826,0
DA:2828,0
DA:2829,0
DA:2830,0
DA:2831,0
LF:642
LH:300
end_of_record
SF:/usr/include/c++/8/bits/stl_function.h
FN:385,_ZNKSt4lessIN4Json5Value8CZStringEEclERKS2_S5_
FN:385,_ZNKSt4lessINSt7__cxx1112basic_stringIcSt11char_traitsIcESaIcEEEEclERKS5_S8_
FN:427,_ZNKSt4lessIPKcEclES1_S1_
FN:1111,_ZNKSt9_IdentityINSt7__cxx1112basic_stringIcSt11char_traitsIcESaIcEEEEclERS5_
FN:1115,_ZNKSt9_IdentityINSt7__cxx1112basic_stringIcSt11char_traitsIcESaIcEEEEclERKS5_
FN:1131,_ZNKSt10_Select1stISt4pairIKN4Json5Value8CZStringES2_EEclERKS5_
FNDA:0,_ZNKSt4lessINSt7__cxx1112basic_stringIcSt11char_traitsIcESaIcEEEEclERKS5_S8_
FNDA:12890,_ZNKSt4lessIN4Json5Value8CZStringEEclERKS2_S5_
FNDA:0,_ZNKSt4lessIPKcEclES1_S1_
FNDA:0,_ZNKSt9_IdentityINSt7__cxx1112basic_stringIcSt11char_traitsIcESaIcEEEEclERS5_
FNDA:0,_ZNKSt9_IdentityINSt7__cxx1112basic_stringIcSt11char_traitsIcESaIcEEEEclERKS5_
FNDA:16025,_ZNKSt10_Select1stISt4pairIKN4Json5Value8CZStringES2_EEclERKS5_
FNF:6
FNH:2
DA:385,12890
DA:386,12890
DA:387,0
DA:388,0
DA:389,12890
DA:390,12890
DA:431,0
DA:435,0
DA:1115,0
DA:1116,0
DA:1119,0
DA:1120,0
DA:1135,16025
DA:1136,16025
LF:14
LH:6
end_of_record
SF:/usr/include/c++/8/bits/stl_iterator.h
FN:783,_ZN9__gnu_cxx17__normal_iteratorIPN4Json12PathArgumentESt6vectorIS2_SaIS2_EEEC2ERKS3_
FN:783,_ZN9__gnu_cxx17__normal_iteratorIPcNSt7__cxx1112basic_stringIcSt11char_traitsIcESaIcEEEEC2ERKS1_
FN:783,_ZN9__gnu_cxx17__normal_iteratorIPN4Json9OurReader15StructuredErrorESt6vectorIS3_SaIS3_EEEC2ERKS4_
FN:783,_ZN9__gnu_cxx17__normal_iteratorIPKN4Json12PathArgumentESt6vectorIS2_SaIS2_EEEC2ERKS4_
FN:783,_ZN9__gnu_cxx17__normal_iteratorIPNSt7__cxx1112basic_stringIcSt11char_traitsIcESaIcEEESt6vectorIS6_SaIS6_EEEC2ERKS7_
FN:783,_ZN9__gnu_cxx17__normal_iteratorIPKcNSt7__cxx1112basic_stringIcSt11char_traitsIcESaIcEEEEC2ERKS2_
FN:783,_ZN9__gnu_cxx17__normal_iteratorIPKPKN4Json12PathArgumentESt6vectorIS4_SaIS4_EEEC2ERKS6_
FN:783,_ZN9__gnu_cxx17__normal_iteratorIPKNSt7__cxx1112basic_stringIcSt11char_traitsIcESaIcEEESt6vectorIS6_SaIS6_EEEC2ERKS8_
FN:783,_ZN9__gnu_cxx17__normal_iteratorIPN4Json6Reader15StructuredErrorESt6vectorIS3_SaIS3_EEEC2ERKS4_
FN:783,_ZN9__gnu_cxx17__normal_iteratorIPPKN4Json12PathArgumentESt6vectorIS4_SaIS4_EEEC2ERKS5_
FN:788,_ZN9__gnu_cxx17__normal_iteratorIPKcNSt7__cxx1112basic_stringIcSt11char_traitsIcESaIcEEEEC2IPcEERKNS0_IT_NS_11__enable_ifIXsrSt10__are_sameISC_SB_E7__valueES8_E6__typeEEE
FN:796,_ZNK9__gnu_cxx17__normal_iteratorIPNSt7__cxx1112basic_stringIcSt11char_traitsIcESaIcEEESt6vectorIS6_SaIS6_EEEdeEv
FN:796,_ZNK9__gnu_cxx17__normal_iteratorIPN4Json12PathArgumentESt6vectorIS2_SaIS2_EEEdeEv
FN:796,_ZNK9__gnu_cxx17__normal_iteratorIPcNSt7__cxx1112basic_stringIcSt11char_traitsIcESaIcEEEEdeEv
FN:796,_ZNK9__gnu_cxx17__normal_iteratorIPKcNSt7__cxx1112basic_stringIcSt11char_traitsIcESaIcEEEEdeEv
FN:796,_ZNK9__gnu_cxx17__normal_iteratorIPPKN4Json12PathArgumentESt6vectorIS4_SaIS4_EEEdeEv
FN:796,_ZNK9__gnu_cxx17__normal_iteratorIPKN4Json12PathArgumentESt6vectorIS2_SaIS2_EEEdeEv
FN:796,_ZNK9__gnu_cxx17__normal_iteratorIPKPKN4Json12PathArgumentESt6vectorIS4_SaIS4_EEEdeEv
FN:804,_ZN9__gnu_cxx17__normal_iteratorIPcNSt7__cxx1112basic_stringIcSt11char_traitsIcESaIcEEEEppEv
FN:804,_ZN9__gnu_cxx17__normal_iteratorIPKN4Json12PathArgumentESt6vectorIS2_SaIS2_EEEppEv
FN:804,_ZN9__gnu_cxx17__normal_iteratorIPKcNSt7__cxx1112basic_stringIcSt11char_traitsIcESaIcEEEEppEv
FN:804,_ZN9__gnu_cxx17__normal_iteratorIPNSt7__cxx1112basic_stringIcSt11char_traitsIcESaIcEEESt6vectorIS6_SaIS6_EEEppEv
FN:811,_ZN9__gnu_cxx17__normal_iteratorIPKPKN4Json12PathArgumentESt6vectorIS4_SaIS4_EEEppEi
FN:816,_ZN9__gnu_cxx17__normal_iteratorIPcNSt7__cxx1112basic_stringIcSt11char_traitsIcESaIcEEEEmmEv
FN:836,_ZNK9__gnu_cxx17__normal_iteratorIPKcNSt7__cxx1112basic_stringIcSt11char_traitsIcESaIcEEEEplEl
FN:844,_ZNK9__gnu_cxx17__normal_iteratorIPcNSt7__cxx1112basic_stringIcSt11char_traitsIcESaIcEEEEmiEl
FN:844,_ZNK9__gnu_cxx17__normal_iteratorIPN4Json12PathArgumentESt6vectorIS2_SaIS2_EEEmiEl
FN:844,_ZNK9__gnu_cxx17__normal_iteratorIPPKN4Json12PathArgumentESt6vectorIS4_SaIS4_EEEmiEl
FN:844,_ZNK9__gnu_cxx17__normal_iteratorIPNSt7__cxx1112basic_stringIcSt11char_traitsIcESaIcEEESt6vectorIS6_SaIS6_EEEmiEl
FN:848,_ZNK9__gnu_cxx17__normal_iteratorIPKN4Json12PathArgumentESt6vectorIS2_SaIS2_EEE4baseEv
FN:848,_ZNK9__gnu_cxx17__normal_iteratorIPNSt7__cxx1112basic_stringIcSt11char_traitsIcESaIcEEESt6vectorIS6_SaIS6_EEE4baseEv
FN:848,_ZNK9__gnu_cxx17__normal_iteratorIPN4Json6Reader15StructuredErrorESt6vectorIS3_SaIS3_EEE4baseEv
FN:848,_ZNK9__gnu_cxx17__normal_iteratorIPKcNSt7__cxx1112basic_stringIcSt11char_traitsIcESaIcEEEE4baseEv
FN:848,_ZNK9__gnu_cxx17__normal_iteratorIPN4Json9OurReader15StructuredErrorESt6vectorIS3_SaIS3_EEE4baseEv
FN:848,_ZNK9__gnu_cxx17__normal_iteratorIPKNSt7__cxx1112basic_stringIcSt11char_traitsIcESaIcEEESt6vectorIS6_SaIS6_EEE4baseEv
FN:848,_ZNK9__gnu_cxx17__normal_iteratorIPcNSt7__cxx1112basic_stringIcSt11char_traitsIcESaIcEEEE4baseEv
FN:848,_ZNK9__gnu_cxx17__normal_iteratorIPPKN4Json12PathArgumentESt6vectorIS4_SaIS4_EEE4baseEv
FN:848,_ZNK9__gnu_cxx17__normal_iteratorIPKPKN4Json12PathArgumentESt6vectorIS4_SaIS4_EEE4baseEv
FN:848,_ZNK9__gnu_cxx17__normal_iteratorIPN4Json12PathArgumentESt6vectorIS2_SaIS2_EEE4baseEv
FN:863,_ZN9__gnu_cxxeqIPKcPcNSt7__cxx1112basic_stringIcSt11char_traitsIcESaIcEEEEEbRKNS_17__normal_iteratorIT_T1_EERKNSA_IT0_SC_EE
FN:870,_ZN9__gnu_cxxeqIPKPKN4Json12PathArgumentESt6vectorIS4_SaIS4_EEEEbRKNS_17__normal_iteratorIT_T0_EESF_
FN:870,_ZN9__gnu_cxxeqIPKNSt7__cxx1112basic_stringIcSt11char_traitsIcESaIcEEESt6vectorIS6_SaIS6_EEEEbRKNS_17__normal_iteratorIT_T0_EESH_
FN:870,_ZN9__gnu_cxxeqIPNSt7__cxx1112basic_stringIcSt11char_traitsIcESaIcEEESt6vectorIS6_SaIS6_EEEEbRKNS_17__normal_iteratorIT_T0_EESG_
FN:884,_ZN9__gnu_cxxneIPcNSt7__cxx1112basic_stringIcSt11char_traitsIcESaIcEEEEEbRKNS_17__normal_iteratorIT_T0_EESD_
FN:884,_ZN9__gnu_cxxneIPNSt7__cxx1112basic_stringIcSt11char_traitsIcESaIcEEESt6vectorIS6_SaIS6_EEEEbRKNS_17__normal_iteratorIT_T0_EESG_
FN:884,_ZN9__gnu_cxxneIPKcNSt7__cxx1112basic_stringIcSt11char_traitsIcESaIcEEEEEbRKNS_17__normal_iteratorIT_T0_EESE_
FN:884,_ZN9__gnu_cxxneIPKN4Json12PathArgumentESt6vectorIS2_SaIS2_EEEEbRKNS_17__normal_iteratorIT_T0_EESD_
FN:954,_ZN9__gnu_cxxmiIPKcPcNSt7__cxx1112basic_stringIcSt11char_traitsIcESaIcEEEEEDTmicldtfp_4baseEcldtfp0_4baseEERKNS_17__normal_iteratorIT_T1_EERKNSB_IT0_SD_EE
FN:966,_ZN9__gnu_cxxmiIPN4Json6Reader15StructuredErrorESt6vectorIS3_SaIS3_EEEENS_17__normal_iteratorIT_T0_E15difference_typeERKSB_SE_
FN:966,_ZN9__gnu_cxxmiIPKcNSt7__cxx1112basic_stringIcSt11char_traitsIcESaIcEEEEENS_17__normal_iteratorIT_T0_E15difference_typeERKSC_SF_
FN:966,_ZN9__gnu_cxxmiIPPKN4Json12PathArgumentESt6vectorIS4_SaIS4_EEEENS_17__normal_iteratorIT_T0_E15difference_typeERKSC_SF_
FN:966,_ZN9__gnu_cxxmiIPNSt7__cxx1112basic_stringIcSt11char_traitsIcESaIcEEESt6vectorIS6_SaIS6_EEEENS_17__normal_iteratorIT_T0_E15difference_typeERKSE_SH_
FN:966,_ZN9__gnu_cxxmiIPN4Json12PathArgumentESt6vectorIS2_SaIS2_EEEENS_17__normal_iteratorIT_T0_E15difference_typeERKSA_SD_
FN:966,_ZN9__gnu_cxxmiIPN4Json9OurReader15StructuredErrorESt6vectorIS3_SaIS3_EEEENS_17__normal_iteratorIT_T0_E15difference_typeERKSB_SE_
FN:1033,_ZNSt13move_iteratorIPPKN4Json12PathArgumentEEC2ES4_
FN:1033,_ZNSt13move_iteratorIPN4Json12PathArgumentEEC2ES2_
FN:1033,_ZNSt13move_iteratorIPN4Json6Reader15StructuredErrorEEC2ES3_
FN:1033,_ZNSt13move_iteratorIPNSt7__cxx1112basic_stringIcSt11char_traitsIcESaIcEEEEC2ES6_
FN:1033,_ZNSt13move_iteratorIPN4Json9OurReader15StructuredErrorEEC2ES3_
FN:1042,_ZNKSt13move_iteratorIPN4Json6Reader15StructuredErrorEE4baseEv
FN:1042,_ZNKSt13move_iteratorIPNSt7__cxx1112basic_stringIcSt11char_traitsIcESaIcEEEE4baseEv
FN:1042,_ZNKSt13move_iteratorIPN4Json12PathArgumentEE4baseEv
FN:1042,_ZNKSt13move_iteratorIPPKN4Json12PathArgumentEE4baseEv
FN:1042,_ZNKSt13move_iteratorIPN4Json9OurReader15StructuredErrorEE4baseEv
FN:1046,_ZNKSt13move_iteratorIPNSt7__cxx1112basic_stringIcSt11char_traitsIcESaIcEEEEdeEv
FN:1046,_ZNKSt13move_iteratorIPN4Json12PathArgumentEEdeEv
FN:1046,_ZNKSt13move_iteratorIPN4Json9OurReader15StructuredErrorEEdeEv
FN:1046,_ZNKSt13move_iteratorIPN4Json6Reader15StructuredErrorEEdeEv
FN:1054,_ZNSt13move_iteratorIPN4Json9OurReader15StructuredErrorEEppEv
FN:1054,_ZNSt13move_iteratorIPN4Json6Reader15StructuredErrorEEppEv
FN:1054,_ZNSt13move_iteratorIPN4Json12PathArgumentEEppEv
FN:1054,_ZNSt13move_iteratorIPNSt7__cxx1112basic_stringIcSt11char_traitsIcESaIcEEEEppEv
FN:1121,_ZSteqIPN4Json12PathArgumentEEbRKSt13move_iteratorIT_ES7_
FN:1121,_ZSteqIPN4Json9OurReader15StructuredErrorEEbRKSt13move_iteratorIT_ES8_
FN:1121,_ZSteqIPN4Json6Reader15StructuredErrorEEbRKSt13move_iteratorIT_ES8_
FN:1121,_ZSteqIPNSt7__cxx1112basic_stringIcSt11char_traitsIcESaIcEEEEbRKSt13move_iteratorIT_ESB_
FN:1133,_ZStneIPN4Json12PathArgumentEEbRKSt13move_iteratorIT_ES7_
FN:1133,_ZStneIPN4Json9OurReader15StructuredErrorEEbRKSt13move_iteratorIT_ES8_
FN:1133,_ZStneIPNSt7__cxx1112basic_stringIcSt11char_traitsIcESaIcEEEEbRKSt13move_iteratorIT_ESB_
FN:1133,_ZStneIPN4Json6Reader15StructuredErrorEEbRKSt13move_iteratorIT_ES8_
FN:1218,_ZSt32__make_move_if_noexcept_iteratorINSt7__cxx1112basic_stringIcSt11char_traitsIcESaIcEEESt13move_iteratorIPS5_EET0_PT_
FN:1218,_ZSt32__make_move_if_noexcept_iteratorIN4Json12PathArgumentESt13move_iteratorIPS1_EET0_PT_
FN:1218,_ZSt32__make_move_if_noexcept_iteratorIPKN4Json12PathArgumentESt13move_iteratorIPS3_EET0_PT_
FN:1218,_ZSt32__make_move_if_noexcept_iteratorIN4Json9OurReader15StructuredErrorESt13move_iteratorIPS2_EET0_PT_
FN:1218,_ZSt32__make_move_if_noexcept_iteratorIN4Json6Reader15StructuredErrorESt13move_iteratorIPS2_EET0_PT_
FN:1238,_ZSt12__miter_baseIPPKN4Json12PathArgumentEEDTcl12__miter_basecldtfp_4baseEEESt13move_iteratorIT_E
FNDA:0,_ZN9__gnu_cxx17__normal_iteratorIPPKN4Json12PathArgumentESt6vectorIS4_SaIS4_EEEC2ERKS5_
FNDA:0,_ZN9__gnu_cxx17__normal_iteratorIPKNSt7__cxx1112basic_stringIcSt11char_traitsIcESaIcEEESt6vectorIS6_SaIS6_EEEC2ERKS8_
FNDA:0,_ZN9__gnu_cxx17__normal_iteratorIPN4Json12PathArgumentESt6vectorIS2_SaIS2_EEEC2ERKS3_
FNDA:0,_ZN9__gnu_cxx17__normal_iteratorIPN4Json9OurReader15StructuredErrorESt6vectorIS3_SaIS3_EEEC2ERKS4_
FNDA:0,_ZN9__gnu_cxx17__normal_iteratorIPN4Json6Reader15StructuredErrorESt6vectorIS3_SaIS3_EEEC2ERKS4_
FNDA:0,_ZN9__gnu_cxx17__normal_iteratorIPNSt7__cxx1112basic_stringIcSt11char_traitsIcESaIcEEESt6vectorIS6_SaIS6_EEEC2ERKS7_
FNDA:0,_ZN9__gnu_cxx17__normal_iteratorIPcNSt7__cxx1112basic_stringIcSt11char_traitsIcESaIcEEEEC2ERKS1_
FNDA:0,_ZN9__gnu_cxx17__normal_iteratorIPKN4Json12PathArgumentESt6vectorIS2_SaIS2_EEEC2ERKS4_
FNDA:0,_ZN9__gnu_cxx17__normal_iteratorIPKPKN4Json12PathArgumentESt6vectorIS4_SaIS4_EEEC2ERKS6_
FNDA:0,_ZN9__gnu_cxx17__normal_iteratorIPKcNSt7__cxx1112basic_stringIcSt11char_traitsIcESaIcEEEEC2ERKS2_
FNDA:0,_ZN9__gnu_cxx17__normal_iteratorIPKcNSt7__cxx1112basic_stringIcSt11char_traitsIcESaIcEEEEC2IPcEERKNS0_IT_NS_11__enable_ifIXsrSt10__are_sameISC_SB_E7__valueES8_E6__typeEEE
FNDA:0,_ZNK9__gnu_cxx17__normal_iteratorIPN4Json12PathArgumentESt6vectorIS2_SaIS2_EEEdeEv
FNDA:0,_ZNK9__gnu_cxx17__normal_iteratorIPPKN4Json12PathArgumentESt6vectorIS4_SaIS4_EEEdeEv
FNDA:0,_ZNK9__gnu_cxx17__normal_iteratorIPKcNSt7__cxx1112basic_stringIcSt11char_traitsIcESaIcEEEEdeEv
FNDA:0,_ZNK9__gnu_cxx17__normal_iteratorIPNSt7__cxx1112basic_stringIcSt11char_traitsIcESaIcEEESt6vectorIS6_SaIS6_EEEdeEv
FNDA:0,_ZNK9__gnu_cxx17__normal_iteratorIPcNSt7__cxx1112basic_stringIcSt11char_traitsIcESaIcEEEEdeEv
FNDA:0,_ZNK9__gnu_cxx17__normal_iteratorIPKN4Json12PathArgumentESt6vectorIS2_SaIS2_EEEdeEv
FNDA:0,_ZNK9__gnu_cxx17__normal_iteratorIPKPKN4Json12PathArgumentESt6vectorIS4_SaIS4_EEEdeEv
FNDA:0,_ZN9__gnu_cxx17__normal_iteratorIPcNSt7__cxx1112basic_stringIcSt11char_traitsIcESaIcEEEEppEv
FNDA:0,_ZN9__gnu_cxx17__normal_iteratorIPKcNSt7__cxx1112basic_stringIcSt11char_traitsIcESaIcEEEEppEv
FNDA:0,_ZN9__gnu_cxx17__normal_iteratorIPNSt7__cxx1112basic_stringIcSt11char_traitsIcESaIcEEESt6vectorIS6_SaIS6_EEEppEv
FNDA:0,_ZN9__gnu_cxx17__normal_iteratorIPKN4Json12PathArgumentESt6vectorIS2_SaIS2_EEEppEv
FNDA:0,_ZN9__gnu_cxx17__normal_iteratorIPKPKN4Json12PathArgumentESt6vectorIS4_SaIS4_EEEppEi
FNDA:0,_ZN9__gnu_cxx17__normal_iteratorIPcNSt7__cxx1112basic_stringIcSt11char_traitsIcESaIcEEEEmmEv
FNDA:0,_ZNK9__gnu_cxx17__normal_iteratorIPKcNSt7__cxx1112basic_stringIcSt11char_traitsIcESaIcEEEEplEl
FNDA:0,_ZNK9__gnu_cxx17__normal_iteratorIPN4Json12PathArgumentESt6vectorIS2_SaIS2_EEEmiEl
FNDA:0,_ZNK9__gnu_cxx17__normal_iteratorIPPKN4Json12PathArgumentESt6vectorIS4_SaIS4_EEEmiEl
FNDA:0,_ZNK9__gnu_cxx17__normal_iteratorIPNSt7__cxx1112basic_stringIcSt11char_traitsIcESaIcEEESt6vectorIS6_SaIS6_EEEmiEl
FNDA:0,_ZNK9__gnu_cxx17__normal_iteratorIPcNSt7__cxx1112basic_stringIcSt11char_traitsIcESaIcEEEEmiEl
FNDA:0,_ZNK9__gnu_cxx17__normal_iteratorIPPKN4Json12PathArgumentESt6vectorIS4_SaIS4_EEE4baseEv
FNDA:0,_ZNK9__gnu_cxx17__normal_iteratorIPKNSt7__cxx1112basic_stringIcSt11char_traitsIcESaIcEEESt6vectorIS6_SaIS6_EEE4baseEv
FNDA:0,_ZNK9__gnu_cxx17__normal_iteratorIPN4Json12PathArgumentESt6vectorIS2_SaIS2_EEE4baseEv
FNDA:0,_ZNK9__gnu_cxx17__normal_iteratorIPN4Json9OurReader15StructuredErrorESt6vectorIS3_SaIS3_EEE4baseEv
FNDA:0,_ZNK9__gnu_cxx17__normal_iteratorIPN4Json6Reader15StructuredErrorESt6vectorIS3_SaIS3_EEE4baseEv
FNDA:0,_ZNK9__gnu_cxx17__normal_iteratorIPKcNSt7__cxx1112basic_stringIcSt11char_traitsIcESaIcEEEE4baseEv
FNDA:0,_ZNK9__gnu_cxx17__normal_iteratorIPNSt7__cxx1112basic_stringIcSt11char_traitsIcESaIcEEESt6vectorIS6_SaIS6_EEE4baseEv
FNDA:0,_ZNK9__gnu_cxx17__normal_iteratorIPcNSt7__cxx1112basic_stringIcSt11char_traitsIcESaIcEEEE4baseEv
FNDA:0,_ZNK9__gnu_cxx17__normal_iteratorIPKN4Json12PathArgumentESt6vectorIS2_SaIS2_EEE4baseEv
FNDA:0,_ZNK9__gnu_cxx17__normal_iteratorIPKPKN4Json12PathArgumentESt6vectorIS4_SaIS4_EEE4baseEv
FNDA:0,_ZN9__gnu_cxxeqIPKcPcNSt7__cxx1112basic_stringIcSt11char_traitsIcESaIcEEEEEbRKNS_17__normal_iteratorIT_T1_EERKNSA_IT0_SC_EE
FNDA:0,_ZN9__gnu_cxxeqIPKNSt7__cxx1112basic_stringIcSt11char_traitsIcESaIcEEESt6vectorIS6_SaIS6_EEEEbRKNS_17__normal_iteratorIT_T0_EESH_
FNDA:0,_ZN9__gnu_cxxeqIPNSt7__cxx1112basic_stringIcSt11char_traitsIcESaIcEEESt6vectorIS6_SaIS6_EEEEbRKNS_17__normal_iteratorIT_T0_EESG_
FNDA:0,_ZN9__gnu_cxxeqIPKPKN4Json12PathArgumentESt6vectorIS4_SaIS4_EEEEbRKNS_17__normal_iteratorIT_T0_EESF_
FNDA:0,_ZN9__gnu_cxxneIPcNSt7__cxx1112basic_stringIcSt11char_traitsIcESaIcEEEEEbRKNS_17__normal_iteratorIT_T0_EESD_
FNDA:0,_ZN9__gnu_cxxneIPKcNSt7__cxx1112basic_stringIcSt11char_traitsIcESaIcEEEEEbRKNS_17__normal_iteratorIT_T0_EESE_
FNDA:0,_ZN9__gnu_cxxneIPNSt7__cxx1112basic_stringIcSt11char_traitsIcESaIcEEESt6vectorIS6_SaIS6_EEEEbRKNS_17__normal_iteratorIT_T0_EESG_
FNDA:0,_ZN9__gnu_cxxneIPKN4Json12PathArgumentESt6vectorIS2_SaIS2_EEEEbRKNS_17__normal_iteratorIT_T0_EESD_
FNDA:0,_ZN9__gnu_cxxmiIPKcPcNSt7__cxx1112basic_stringIcSt11char_traitsIcESaIcEEEEEDTmicldtfp_4baseEcldtfp0_4baseEERKNS_17__normal_iteratorIT_T1_EERKNSB_IT0_SD_EE
FNDA:0,_ZN9__gnu_cxxmiIPPKN4Json12PathArgumentESt6vectorIS4_SaIS4_EEEENS_17__normal_iteratorIT_T0_E15difference_typeERKSC_SF_
FNDA:0,_ZN9__gnu_cxxmiIPNSt7__cxx1112basic_stringIcSt11char_traitsIcESaIcEEESt6vectorIS6_SaIS6_EEEENS_17__normal_iteratorIT_T0_E15difference_typeERKSE_SH_
FNDA:0,_ZN9__gnu_cxxmiIPN4Json12PathArgumentESt6vectorIS2_SaIS2_EEEENS_17__normal_iteratorIT_T0_E15difference_typeERKSA_SD_
FNDA:0,_ZN9__gnu_cxxmiIPN4Json9OurReader15StructuredErrorESt6vectorIS3_SaIS3_EEEENS_17__normal_iteratorIT_T0_E15difference_typeERKSB_SE_
FNDA:0,_ZN9__gnu_cxxmiIPN4Json6Reader15StructuredErrorESt6vectorIS3_SaIS3_EEEENS_17__normal_iteratorIT_T0_E15difference_typeERKSB_SE_
FNDA:0,_ZN9__gnu_cxxmiIPKcNSt7__cxx1112basic_stringIcSt11char_traitsIcESaIcEEEEENS_17__normal_iteratorIT_T0_E15difference_typeERKSC_SF_
FNDA:0,_ZNSt13move_iteratorIPN4Json12PathArgumentEEC2ES2_
FNDA:0,_ZNSt13move_iteratorIPN4Json9OurReader15StructuredErrorEEC2ES3_
FNDA:0,_ZNSt13move_iteratorIPN4Json6Reader15StructuredErrorEEC2ES3_
FNDA:0,_ZNSt13move_iteratorIPPKN4Json12PathArgumentEEC2ES4_
FNDA:0,_ZNSt13move_iteratorIPNSt7__cxx1112basic_stringIcSt11char_traitsIcESaIcEEEEC2ES6_
FNDA:0,_ZNKSt13move_iteratorIPN4Json12PathArgumentEE4baseEv
FNDA:0,_ZNKSt13move_iteratorIPN4Json9OurReader15StructuredErrorEE4baseEv
FNDA:0,_ZNKSt13move_iteratorIPN4Json6Reader15StructuredErrorEE4baseEv
FNDA:0,_ZNKSt13move_iteratorIPNSt7__cxx1112basic_stringIcSt11char_traitsIcESaIcEEEE4baseEv
FNDA:0,_ZNKSt13move_iteratorIPPKN4Json12PathArgumentEE4baseEv
FNDA:0,_ZNKSt13move_iteratorIPN4Json12PathArgumentEEdeEv
FNDA:0,_ZNKSt13move_iteratorIPN4Json9OurReader15StructuredErrorEEdeEv
FNDA:0,_ZNKSt13move_iteratorIPN4Json6Reader15StructuredErrorEEdeEv
FNDA:0,_ZNKSt13move_iteratorIPNSt7__cxx1112basic_stringIcSt11char_traitsIcESaIcEEEEdeEv
FNDA:0,_ZNSt13move_iteratorIPN4Json12PathArgumentEEppEv
FNDA:0,_ZNSt13move_iteratorIPN4Json9OurReader15StructuredErrorEEppEv
FNDA:0,_ZNSt13move_iteratorIPN4Json6Reader15StructuredErrorEEppEv
FNDA:0,_ZNSt13move_iteratorIPNSt7__cxx1112basic_stringIcSt11char_traitsIcESaIcEEEEppEv
FNDA:0,_ZSteqIPN4Json12PathArgumentEEbRKSt13move_iteratorIT_ES7_
FNDA:0,_ZSteqIPN4Json9OurReader15StructuredErrorEEbRKSt13move_iteratorIT_ES8_
FNDA:0,_ZSteqIPN4Json6Reader15StructuredErrorEEbRKSt13move_iteratorIT_ES8_
FNDA:0,_ZSteqIPNSt7__cxx1112basic_stringIcSt11char_traitsIcESaIcEEEEbRKSt13move_iteratorIT_ESB_
FNDA:0,_ZStneIPN4Json12PathArgumentEEbRKSt13move_iteratorIT_ES7_
FNDA:0,_ZStneIPN4Json9OurReader15StructuredErrorEEbRKSt13move_iteratorIT_ES8_
FNDA:0,_ZStneIPN4Json6Reader15StructuredErrorEEbRKSt13move_iteratorIT_ES8_
FNDA:0,_ZStneIPNSt7__cxx1112basic_stringIcSt11char_traitsIcESaIcEEEEbRKSt13move_iteratorIT_ESB_
FNDA:0,_ZSt32__make_move_if_noexcept_iteratorIN4Json12PathArgumentESt13move_iteratorIPS1_EET0_PT_
FNDA:0,_ZSt32__make_move_if_noexcept_iteratorIN4Json9OurReader15StructuredErrorESt13move_iteratorIPS2_EET0_PT_
FNDA:0,_ZSt32__make_move_if_noexcept_iteratorIN4Json6Reader15StructuredErrorESt13move_iteratorIPS2_EET0_PT_
FNDA:0,_ZSt32__make_move_if_noexcept_iteratorIPKN4Json12PathArgumentESt13move_iteratorIPS3_EET0_PT_
FNDA:0,_ZSt32__make_move_if_noexcept_iteratorINSt7__cxx1112basic_stringIcSt11char_traitsIcESaIcEEESt13move_iteratorIPS5_EET0_PT_
FNDA:0,_ZSt12__miter_baseIPPKN4Json12PathArgumentEEDTcl12__miter_basecldtfp_4baseEEESt13move_iteratorIT_E
FNF:86
FNH:0
DA:783,0
DA:784,0
DA:785,0
DA:786,0
DA:787,0
DA:788,0
DA:789,0
DA:790,0
DA:791,0
DA:792,0
DA:793,0
DA:794,0
DA:795,0
DA:796,0
DA:797,0
DA:798,0
DA:799,0
DA:800,0
DA:801,0
DA:802,0
DA:803,0
DA:804,0
DA:808,0
DA:812,0
DA:816,0
DA:817,0
DA:818,0
DA:819,0
DA:820,0
DA:821,0
DA:822,0
DA:823,0
DA:824,0
DA:825,0
DA:826,0
DA:827,0
DA:828,0
DA:829,0
DA:830,0
DA:831,0
DA:838,0
DA:840,0
DA:841,0
DA:843,0
DA:845,0
DA:846,0
DA:848,0
DA:850,0
DA:851,0
DA:853,0
DA:855,0
DA:856,0
DA:858,0
DA:860,0
DA:861,0
DA:865,0
DA:866,0
DA:870,0
DA:872,0
DA:873,0
DA:890,0
DA:891,0
DA:898,0
DA:899,0
DA:900,0
DA:901,0
DA:902,0
DA:903,0
DA:904,0
DA:905,0
DA:906,0
DA:907,0
DA:910,0
DA:911,0
DA:912,0
DA:913,0
DA:914,0
DA:915,0
DA:916,0
DA:917,0
DA:918,0
DA:919,0
DA:920,0
DA:921,0
DA:922,0
DA:923,0
DA:924,0
DA:925,0
DA:926,0
DA:927,0
DA:928,0
DA:929,0
DA:930,0
DA:931,0
DA:945,0
DA:948,0
DA:952,0
DA:955,0
DA:956,0
DA:959,0
DA:960,0
DA:963,0
DA:964,0
DA:967,0
DA:978,0
DA:981,0
DA:982,0
DA:985,0
DA:986,0
DA:989,0
DA:990,0
DA:993,0
DA:994,0
DA:997,0
DA:1064,0
DA:1072,0
DA:1076,0
DA:1079,0
DA:1080,0
DA:1083,0
DA:1084,0
DA:1087,0
DA:1088,0
DA:1091,0
DA:1092,0
DA:1095,0
DA:1096,0
DA:1099,0
DA:1100,0
DA:1103,0
DA:1167,0
DA:1168,0
DA:1169,0
DA:1170,0
DA:1171,0
DA:1172,0
DA:1173,0
DA:1174,0
DA:1175,0
DA:1176,0
DA:1177,0
DA:1178,0
DA:1186,0
DA:1187,0
DA:1188,0
DA:1189,0
DA:1190,0
DA:1191,0
DA:1192,0
DA:1193,0
DA:1194,0
DA:1195,0
DA:1196,0
DA:1197,0
DA:1200,0
DA:1201,0
DA:1202,0
DA:1203,0
DA:1204,0
DA:1205,0
DA:1206,0
DA:1207,0
DA:1208,0
DA:1209,0
DA:1216,0
DA:1218,0
DA:1219,0
DA:1221,0
DA:1223,0
DA:1224,0
DA:1226,0
DA:1228,0
DA:1229,0
DA:1231,0
DA:1233,0
DA:1234,0
DA:1236,0
DA:1238,0
DA:1239,0
DA:1303,0
DA:1305,0
DA:1306,0
DA:1308,0
DA:1309,0
DA:1311,0
DA:1312,0
DA:1314,0
DA:1315,0
DA:1317,0
DA:1327,0
DA:1329,0
DA:1330,0
DA:1332,0
DA:1333,0
DA:1335,0
DA:1336,0
DA:1338,0
DA:1339,0
DA:1341,0
DA:1424,0
DA:1425,0
DA:1426,0
DA:1427,0
DA:1428,0
DA:1429,0
DA:1430,0
DA:1431,0
DA:1432,0
DA:1433,0
DA:1434,0
DA:1435,0
DA:1454,0
DA:1456,0
LF:213
LH:0
end_of_record
SF:/usr/include/c++/8/bits/stl_iterator_base_funcs.h
FN:98,_ZSt10__distanceIPKcENSt15iterator_traitsIT_E15difference_typeES3_S3_St26random_access_iterator_tag
FN:98,_ZSt10__distanceIPcENSt15iterator_traitsIT_E15difference_typeES2_S2_St26random_access_iterator_tag
FNDA:0,_ZSt10__distanceIPcENSt15iterator_traitsIT_E15difference_typeES2_S2_St26random_access_iterator_tag
FNDA:0,_ZSt10__distanceIPKcENSt15iterator_traitsIT_E15difference_typeES3_S3_St26random_access_iterator_tag
FNF:2
FNH:0
DA:98,0
DA:104,0
DA:106,0
DA:112,0
DA:114,0
DA:120,0
DA:154,0
DA:157,0
DA:158,0
LF:9
LH:0
end_of_record
SF:/usr/include/c++/8/bits/stl_iterator_base_types.h
FN:205,_ZSt19__iterator_categoryIPcENSt15iterator_traitsIT_E17iterator_categoryERKS2_
FN:205,_ZSt19__iterator_categoryIPKcENSt15iterator_traitsIT_E17iterator_categoryERKS3_
FNDA:0,_ZSt19__iterator_categoryIPcENSt15iterator_traitsIT_E17iterator_categoryERKS2_
FNDA:0,_ZSt19__iterator_categoryIPKcENSt15iterator_traitsIT_E17iterator_categoryERKS3_
FNF:2
FNH:0
DA:205,0
DA:206,0
DA:207,0
DA:208,0
DA:209,0
DA:210,0
LF:6
LH:0
end_of_record
SF:/usr/include/c++/8/bits/stl_map.h
FN:183,_ZNSt3mapIN4Json5Value8CZStringES1_St4lessIS2_ESaISt4pairIKS2_S1_EEEC2Ev
FN:205,_ZNSt3mapIN4Json5Value8CZStringES1_St4lessIS2_ESaISt4pairIKS2_S1_EEEC2ERKS9_
FN:300,_ZNSt3mapIN4Json5Value8CZStringES1_St4lessIS2_ESaISt4pairIKS2_S1_EEED2Ev
FN:354,_ZNSt3mapIN4Json5Value8CZStringES1_St4lessIS2_ESaISt4pairIKS2_S1_EEE5beginEv
FN:372,_ZNSt3mapIN4Json5Value8CZStringES1_St4lessIS2_ESaISt4pairIKS2_S1_EEE3endEv
FN:463,_ZNKSt3mapIN4Json5Value8CZStringES1_St4lessIS2_ESaISt4pairIKS2_S1_EEE5emptyEv
FN:468,_ZNKSt3mapIN4Json5Value8CZStringES1_St4lessIS2_ESaISt4pairIKS2_S1_EEE4sizeEv
FN:490,_ZNSt3mapIN4Json5Value8CZStringES1_St4lessIS2_ESaISt4pairIKS2_S1_EEEixERS6_
FN:873,_ZNSt3mapIN4Json5Value8CZStringES1_St4lessIS2_ESaISt4pairIKS2_S1_EEE6insertIRS7_EENSt9enable_ifIXsrSt16is_constructibleIS7_JT_EE5valueESt17_Rb_tree_iteratorIS7_EE4typeESt23_Rb_tree_const_iteratorIS7_EOSE_
FN:1036,_ZNSt3mapIN4Json5Value8CZStringES1_St4lessIS2_ESaISt4pairIKS2_S1_EEE5eraseB5cxx11ESt17_Rb_tree_iteratorIS7_E
FN:1067,_ZNSt3mapIN4Json5Value8CZStringES1_St4lessIS2_ESaISt4pairIKS2_S1_EEE5eraseERS6_
FN:1132,_ZNSt3mapIN4Json5Value8CZStringES1_St4lessIS2_ESaISt4pairIKS2_S1_EEE5clearEv
FN:1141,_ZNKSt3mapIN4Json5Value8CZStringES1_St4lessIS2_ESaISt4pairIKS2_S1_EEE8key_compEv
FN:1168,_ZNSt3mapIN4Json5Value8CZStringES1_St4lessIS2_ESaISt4pairIKS2_S1_EEE4findERS6_
FN:1238,_ZNSt3mapIN4Json5Value8CZStringES1_St4lessIS2_ESaISt4pairIKS2_S1_EEE11lower_boundERS6_
FN:1434,_ZSteqIN4Json5Value8CZStringES1_St4lessIS2_ESaISt4pairIKS2_S1_EEEbRKSt3mapIT_T0_T1_T2_ESG_
FN:1451,_ZStltIN4Json5Value8CZStringES1_St4lessIS2_ESaISt4pairIKS2_S1_EEEbRKSt3mapIT_T0_T1_T2_ESG_
FNDA:418,_ZNSt3mapIN4Json5Value8CZStringES1_St4lessIS2_ESaISt4pairIKS2_S1_EEEC2Ev
FNDA:628,_ZNSt3mapIN4Json5Value8CZStringES1_St4lessIS2_ESaISt4pairIKS2_S1_EEEC2ERKS9_
FNDA:1046,_ZNSt3mapIN4Json5Value8CZStringES1_St4lessIS2_ESaISt4pairIKS2_S1_EEED2Ev
FNDA:45,_ZNSt3mapIN4Json5Value8CZStringES1_St4lessIS2_ESaISt4pairIKS2_S1_EEE5beginEv
FNDA:4174,_ZNSt3mapIN4Json5Value8CZStringES1_St4lessIS2_ESaISt4pairIKS2_S1_EEE3endEv
FNDA:216,_ZNKSt3mapIN4Json5Value8CZStringES1_St4lessIS2_ESaISt4pairIKS2_S1_EEE5emptyEv
FNDA:0,_ZNKSt3mapIN4Json5Value8CZStringES1_St4lessIS2_ESaISt4pairIKS2_S1_EEE4sizeEv
FNDA:0,_ZNSt3mapIN4Json5Value8CZStringES1_St4lessIS2_ESaISt4pairIKS2_S1_EEEixERS6_
FNDA:1826,_ZNSt3mapIN4Json5Value8CZStringES1_St4lessIS2_ESaISt4pairIKS2_S1_EEE6insertIRS7_EENSt9enable_ifIXsrSt16is_constructibleIS7_JT_EE5valueESt17_Rb_tree_iteratorIS7_EE4typeESt23_Rb_tree_const_iteratorIS7_EOSE_
FNDA:0,_ZNSt3mapIN4Json5Value8CZStringES1_St4lessIS2_ESaISt4pairIKS2_S1_EEE5eraseB5cxx11ESt17_Rb_tree_iteratorIS7_E
FNDA:0,_ZNSt3mapIN4Json5Value8CZStringES1_St4lessIS2_ESaISt4pairIKS2_S1_EEE5eraseERS6_
FNDA:0,_ZNSt3mapIN4Json5Value8CZStringES1_St4lessIS2_ESaISt4pairIKS2_S1_EEE5clearEv
FNDA:0,_ZNKSt3mapIN4Json5Value8CZStringES1_St4lessIS2_ESaISt4pairIKS2_S1_EEE8key_compEv
FNDA:969,_ZNSt3mapIN4Json5Value8CZStringES1_St4lessIS2_ESaISt4pairIKS2_S1_EEE4findERS6_
FNDA:3012,_ZNSt3mapIN4Json5Value8CZStringES1_St4lessIS2_ESaISt4pairIKS2_S1_EEE11lower_boundERS6_
FNDA:0,_ZSteqIN4Json5Value8CZStringES1_St4lessIS2_ESaISt4pairIKS2_S1_EEEbRKSt3mapIT_T0_T1_T2_ESG_
FNDA:0,_ZStltIN4Json5Value8CZStringES1_St4lessIS2_ESaISt4pairIKS2_S1_EEEbRKSt3mapIT_T0_T1_T2_ESG_
FNF:17
FNH:9
DA:183,418
DA:205,628
DA:300,1046
DA:354,45
DA:355,45
DA:372,4174
DA:373,4174
DA:463,216
DA:464,216
DA:468,0
DA:469,0
DA:490,0
DA:495,0
DA:497,0
DA:499,0
DA:505,0
DA:873,1826
DA:876,1826
DA:1036,0
DA:1037,0
DA:1067,0
DA:1068,0
DA:1132,0
DA:1133,0
DA:1141,0
DA:1142,0
DA:1168,969
DA:1169,969
DA:1238,3012
DA:1239,3012
DA:1434,0
DA:1436,0
DA:1451,0
DA:1453,0
LF:34
LH:15
end_of_record
SF:/usr/include/c++/8/bits/stl_pair.h
FN:303,_ZNSt4pairIKN4Json5Value8CZStringES1_EC2ERKS4_
FN:311,_ZNSt4pairIPSt18_Rb_tree_node_baseS1_EC2IRS1_Lb1EEEOT_RKS1_
FN:311,_ZNSt4pairIKN4Json5Value8CZStringES1_EC2IRS2_Lb1EEEOT_RKS1_
FN:325,_ZNSt4pairIPSt18_Rb_tree_node_baseS1_EC2IRS1_Lb1EEERKS1_OT_
FN:341,_ZNSt4pairISt17_Rb_tree_iteratorINSt7__cxx1112basic_stringIcSt11char_traitsIcESaIcEEEEbEC2IS7_bLb1EEEOT_OT0_
FN:341,_ZNSt4pairISt23_Rb_tree_const_iteratorINSt7__cxx1112basic_stringIcSt11char_traitsIcESaIcEEEEbEC2IRSt17_Rb_tree_iteratorIS6_ERbLb1EEEOT_OT0_
FN:341,_ZNSt4pairIPSt18_Rb_tree_node_baseS1_EC2IRS1_S4_Lb1EEEOT_OT0_
FN:341,_ZNSt4pairIPSt18_Rb_tree_node_baseS1_EC2IRPSt13_Rb_tree_nodeIS_IKN4Json5Value8CZStringES6_EERS1_Lb1EEEOT_OT0_
FN:341,_ZNSt4pairISt17_Rb_tree_iteratorIS_IKN4Json5Value8CZStringES2_EES6_EC2IS6_S6_Lb1EEEOT_OT0_
FN:341,_ZNSt4pairIPSt18_Rb_tree_node_baseS1_EC2IRPSt13_Rb_tree_nodeINSt7__cxx1112basic_stringIcSt11char_traitsIcESaIcEEEERS1_Lb1EEEOT_OT0_
FN:448,_ZSteqIKN4Json5Value8CZStringES1_EbRKSt4pairIT_T0_ES9_
FN:454,_ZStltIKN4Json5Value8CZStringES1_EbRKSt4pairIT_T0_ES9_
FNDA:4798,_ZNSt4pairIKN4Json5Value8CZStringES1_EC2ERKS4_
FNDA:0,_ZNSt4pairIPSt18_Rb_tree_node_baseS1_EC2IRS1_Lb1EEEOT_RKS1_
FNDA:1826,_ZNSt4pairIKN4Json5Value8CZStringES1_EC2IRS2_Lb1EEEOT_RKS1_
FNDA:1309,_ZNSt4pairIPSt18_Rb_tree_node_baseS1_EC2IRS1_Lb1EEERKS1_OT_
FNDA:350,_ZNSt4pairIPSt18_Rb_tree_node_baseS1_EC2IRPSt13_Rb_tree_nodeIS_IKN4Json5Value8CZStringES6_EERS1_Lb1EEEOT_OT0_
FNDA:167,_ZNSt4pairIPSt18_Rb_tree_node_baseS1_EC2IRS1_S4_Lb1EEEOT_OT0_
FNDA:0,_ZNSt4pairISt17_Rb_tree_iteratorIS_IKN4Json5Value8CZStringES2_EES6_EC2IS6_S6_Lb1EEEOT_OT0_
FNDA:0,_ZNSt4pairIPSt18_Rb_tree_node_baseS1_EC2IRPSt13_Rb_tree_nodeINSt7__cxx1112basic_stringIcSt11char_traitsIcESaIcEEEERS1_Lb1EEEOT_OT0_
FNDA:0,_ZNSt4pairISt17_Rb_tree_iteratorINSt7__cxx1112basic_stringIcSt11char_traitsIcESaIcEEEEbEC2IS7_bLb1EEEOT_OT0_
FNDA:0,_ZNSt4pairISt23_Rb_tree_const_iteratorINSt7__cxx1112basic_stringIcSt11char_traitsIcESaIcEEEEbEC2IRSt17_Rb_tree_iteratorIS6_ERbLb1EEEOT_OT0_
FNDA:0,_ZSteqIKN4Json5Value8CZStringES1_EbRKSt4pairIT_T0_ES9_
FNDA:0,_ZStltIKN4Json5Value8CZStringES1_EbRKSt4pairIT_T0_ES9_
FNF:12
FNH:5
DA:303,4798
DA:311,1826
DA:312,1826
DA:313,0
DA:314,0
DA:315,1826
DA:316,1826
DA:329,1309
DA:330,1309
DA:345,517
DA:346,517
DA:347,350
DA:348,350
DA:349,167
DA:350,167
DA:351,0
DA:352,0
DA:353,0
DA:354,0
DA:355,0
DA:356,0
DA:357,0
DA:358,0
DA:464,0
DA:465,0
DA:470,0
DA:471,0
DA:472,0
LF:28
LH:13
end_of_record
SF:/usr/include/c++/8/bits/stl_set.h
FN:167,_ZNSt3setINSt7__cxx1112basic_stringIcSt11char_traitsIcESaIcEEESt4lessIS5_ESaIS5_EEC2Ev
FN:281,_ZNSt3setINSt7__cxx1112basic_stringIcSt11char_traitsIcESaIcEEESt4lessIS5_ESaIS5_EED2Ev
FN:353,_ZNKSt3setINSt7__cxx1112basic_stringIcSt11char_traitsIcESaIcEEESt4lessIS5_ESaIS5_EE3endEv
FN:518,_ZNSt3setINSt7__cxx1112basic_stringIcSt11char_traitsIcESaIcEEESt4lessIS5_ESaIS5_EE6insertEOS5_
FN:733,_ZNSt3setINSt7__cxx1112basic_stringIcSt11char_traitsIcESaIcEEESt4lessIS5_ESaIS5_EE5clearEv
FN:775,_ZNSt3setINSt7__cxx1112basic_stringIcSt11char_traitsIcESaIcEEESt4lessIS5_ESaIS5_EE4findERKS5_
FNDA:0,_ZNSt3setINSt7__cxx1112basic_stringIcSt11char_traitsIcESaIcEEESt4lessIS5_ESaIS5_EEC2Ev
FNDA:0,_ZNSt3setINSt7__cxx1112basic_stringIcSt11char_traitsIcESaIcEEESt4lessIS5_ESaIS5_EED2Ev
FNDA:0,_ZNKSt3setINSt7__cxx1112basic_stringIcSt11char_traitsIcESaIcEEESt4lessIS5_ESaIS5_EE3endEv
FNDA:0,_ZNSt3setINSt7__cxx1112basic_stringIcSt11char_traitsIcESaIcEEESt4lessIS5_ESaIS5_EE6insertEOS5_
FNDA:0,_ZNSt3setINSt7__cxx1112basic_stringIcSt11char_traitsIcESaIcEEESt4lessIS5_ESaIS5_EE5clearEv
FNDA:0,_ZNSt3setINSt7__cxx1112basic_stringIcSt11char_traitsIcESaIcEEESt4lessIS5_ESaIS5_EE4findERKS5_
FNF:6
FNH:0
DA:167,0
DA:281,0
DA:353,0
DA:354,0
DA:518,0
DA:520,0
DA:521,0
DA:522,0
DA:733,0
DA:734,0
DA:775,0
DA:776,0
LF:12
LH:0
end_of_record
SF:/usr/include/c++/8/bits/stl_stack.h
FN:148,_ZNSt5stackIPN4Json5ValueESt5dequeIS2_SaIS2_EEEC2IS5_vEEv
FN:185,_ZNKSt5stackIPN4Json5ValueESt5dequeIS2_SaIS2_EEE5emptyEv
FN:190,_ZNKSt5stackIPN4Json5ValueESt5dequeIS2_SaIS2_EEE4sizeEv
FN:198,_ZNSt5stackIPN4Json5ValueESt5dequeIS2_SaIS2_EEE3topEv
FN:230,_ZNSt5stackIPN4Json5ValueESt5dequeIS2_SaIS2_EEE4pushEOS2_
FN:258,_ZNSt5stackIPN4Json5ValueESt5dequeIS2_SaIS2_EEE3popEv
FNDA:2,_ZNSt5stackIPN4Json5ValueESt5dequeIS2_SaIS2_EEEC2IS5_vEEv
FNDA:2,_ZNKSt5stackIPN4Json5ValueESt5dequeIS2_SaIS2_EEE5emptyEv
FNDA:1808,_ZNKSt5stackIPN4Json5ValueESt5dequeIS2_SaIS2_EEE4sizeEv
FNDA:9038,_ZNSt5stackIPN4Json5ValueESt5dequeIS2_SaIS2_EEE3topEv
FNDA:1808,_ZNSt5stackIPN4Json5ValueESt5dequeIS2_SaIS2_EEE4pushEOS2_
FNDA:1808,_ZNSt5stackIPN4Json5ValueESt5dequeIS2_SaIS2_EEE3popEv
FNF:6
FNH:6
DA:148,2
DA:149,2
DA:185,2
DA:186,2
DA:190,1808
DA:191,1808
DA:198,9038
DA:201,9038
DA:230,1808
DA:231,1808
DA:258,1808
DA:261,1808
DA:262,1808
LF:13
LH:13
end_of_record
SF:/usr/include/c++/8/bits/stl_tree.h
FN:112,_ZNSt18_Rb_tree_node_base10_S_minimumEPS_
FN:126,_ZNSt18_Rb_tree_node_base10_S_maximumEPS_
FN:146,_ZNSt20_Rb_tree_key_compareISt4lessINSt7__cxx1112basic_stringIcSt11char_traitsIcESaIcEEEEEC2Ev
FN:146,_ZNSt20_Rb_tree_key_compareISt4lessIN4Json5Value8CZStringEEEC2Ev
FN:152,_ZNSt20_Rb_tree_key_compareISt4lessIN4Json5Value8CZStringEEEC2ERKS4_
FN:173,_ZNSt15_Rb_tree_headerC2Ev
FN:206,_ZNSt15_Rb_tree_header8_M_resetEv
FN:234,_ZNSt13_Rb_tree_nodeISt4pairIKN4Json5Value8CZStringES2_EE9_M_valptrEv
FN:234,_ZNSt13_Rb_tree_nodeINSt7__cxx1112basic_stringIcSt11char_traitsIcESaIcEEEE9_M_valptrEv
FN:238,_ZNKSt13_Rb_tree_nodeINSt7__cxx1112basic_stringIcSt11char_traitsIcESaIcEEEE9_M_valptrEv
FN:238,_ZNKSt13_Rb_tree_nodeISt4pairIKN4Json5Value8CZStringES2_EE9_M_valptrEv
FN:269,_ZNSt17_Rb_tree_iteratorISt4pairIKN4Json5Value8CZStringES2_EEC2Ev
FN:273,_ZNSt17_Rb_tree_iteratorISt4pairIKN4Json5Value8CZStringES2_EEC2EPSt18_Rb_tree_node_base
FN:273,_ZNSt17_Rb_tree_iteratorINSt7__cxx1112basic_stringIcSt11char_traitsIcESaIcEEEEC2EPSt18_Rb_tree_node_base
FN:277,_ZNKSt17_Rb_tree_iteratorISt4pairIKN4Json5Value8CZStringES2_EEdeEv
FN:281,_ZNKSt17_Rb_tree_iteratorISt4pairIKN4Json5Value8CZStringES2_EEptEv
FN:285,_ZNSt17_Rb_tree_iteratorISt4pairIKN4Json5Value8CZStringES2_EEppEv
FN:300,_ZNSt17_Rb_tree_iteratorINSt7__cxx1112basic_stringIcSt11char_traitsIcESaIcEEEEmmEv
FN:300,_ZNSt17_Rb_tree_iteratorISt4pairIKN4Json5Value8CZStringES2_EEmmEv
FN:315,_ZNKSt17_Rb_tree_iteratorISt4pairIKN4Json5Value8CZStringES2_EEeqERKS6_
FN:315,_ZNKSt17_Rb_tree_iteratorINSt7__cxx1112basic_stringIcSt11char_traitsIcESaIcEEEEeqERKS6_
FN:319,_ZNKSt17_Rb_tree_iteratorISt4pairIKN4Json5Value8CZStringES2_EEneERKS6_
FN:345,_ZNSt23_Rb_tree_const_iteratorISt4pairIKN4Json5Value8CZStringES2_EEC2EPKSt18_Rb_tree_node_base
FN:345,_ZNSt23_Rb_tree_const_iteratorINSt7__cxx1112basic_stringIcSt11char_traitsIcESaIcEEEEC2EPKSt18_Rb_tree_node_base
FN:348,_ZNSt23_Rb_tree_const_iteratorISt4pairIKN4Json5Value8CZStringES2_EEC2ERKSt17_Rb_tree_iteratorIS5_E
FN:348,_ZNSt23_Rb_tree_const_iteratorINSt7__cxx1112basic_stringIcSt11char_traitsIcESaIcEEEEC2ERKSt17_Rb_tree_iteratorIS5_E
FN:352,_ZNKSt23_Rb_tree_const_iteratorISt4pairIKN4Json5Value8CZStringES2_EE13_M_const_castEv
FN:356,_ZNKSt23_Rb_tree_const_iteratorISt4pairIKN4Json5Value8CZStringES2_EEdeEv
FN:364,_ZNSt23_Rb_tree_const_iteratorISt4pairIKN4Json5Value8CZStringES2_EEppEv
FN:371,_ZNSt23_Rb_tree_const_iteratorISt4pairIKN4Json5Value8CZStringES2_EEppEi
FN:379,_ZNSt23_Rb_tree_const_iteratorISt4pairIKN4Json5Value8CZStringES2_EEmmEv
FN:394,_ZNKSt23_Rb_tree_const_iteratorINSt7__cxx1112basic_stringIcSt11char_traitsIcESaIcEEEEeqERKS6_
FN:394,_ZNKSt23_Rb_tree_const_iteratorISt4pairIKN4Json5Value8CZStringES2_EEeqERKS6_
FN:398,_ZNKSt23_Rb_tree_const_iteratorISt4pairIKN4Json5Value8CZStringES2_EEneERKS6_
FN:557,_ZNSt8_Rb_treeINSt7__cxx1112basic_stringIcSt11char_traitsIcESaIcEEES5_St9_IdentityIS5_ESt4lessIS5_ESaIS5_EE11_Alloc_nodeC2ERSB_
FN:557,_ZNSt8_Rb_treeIN4Json5Value8CZStringESt4pairIKS2_S1_ESt10_Select1stIS5_ESt4lessIS2_ESaIS5_EE11_Alloc_nodeC2ERSB_
FN:565,_ZNKSt8_Rb_treeIN4Json5Value8CZStringESt4pairIKS2_S1_ESt10_Select1stIS5_ESt4lessIS2_ESaIS5_EE11_Alloc_nodeclIRKS5_EEPSt13_Rb_tree_nodeIS5_EOT_
FN:565,_ZNKSt8_Rb_treeINSt7__cxx1112basic_stringIcSt11char_traitsIcESaIcEEES5_St9_IdentityIS5_ESt4lessIS5_ESaIS5_EE11_Alloc_nodeclIS5_EEPSt13_Rb_tree_nodeIS5_EOT_
FN:585,_ZNSt8_Rb_treeIN4Json5Value8CZStringESt4pairIKS2_S1_ESt10_Select1stIS5_ESt4lessIS2_ESaIS5_EE21_M_get_Node_allocatorEv
FN:585,_ZNSt8_Rb_treeINSt7__cxx1112basic_stringIcSt11char_traitsIcESaIcEEES5_St9_IdentityIS5_ESt4lessIS5_ESaIS5_EE21_M_get_Node_allocatorEv
FN:598,_ZNSt8_Rb_treeINSt7__cxx1112basic_stringIcSt11char_traitsIcESaIcEEES5_St9_IdentityIS5_ESt4lessIS5_ESaIS5_EE11_M_get_nodeEv
FN:598,_ZNSt8_Rb_treeIN4Json5Value8CZStringESt4pairIKS2_S1_ESt10_Select1stIS5_ESt4lessIS2_ESaIS5_EE11_M_get_nodeEv
FN:602,_ZNSt8_Rb_treeINSt7__cxx1112basic_stringIcSt11char_traitsIcESaIcEEES5_St9_IdentityIS5_ESt4lessIS5_ESaIS5_EE11_M_put_nodeEPSt13_Rb_tree_nodeIS5_E
FN:602,_ZNSt8_Rb_treeIN4Json5Value8CZStringESt4pairIKS2_S1_ESt10_Select1stIS5_ESt4lessIS2_ESaIS5_EE11_M_put_nodeEPSt13_Rb_tree_nodeIS5_E
FN:632,_ZNSt8_Rb_treeINSt7__cxx1112basic_stringIcSt11char_traitsIcESaIcEEES5_St9_IdentityIS5_ESt4lessIS5_ESaIS5_EE17_M_construct_nodeIJS5_EEEvPSt13_Rb_tree_nodeIS5_EDpOT_
FN:632,_ZNSt8_Rb_treeIN4Json5Value8CZStringESt4pairIKS2_S1_ESt10_Select1stIS5_ESt4lessIS2_ESaIS5_EE17_M_construct_nodeIJRKSt21piecewise_construct_tSt5tupleIJRS4_EESG_IJEEEEEvPSt13_Rb_tree_nodeIS5_EDpOT_
FN:632,_ZNSt8_Rb_treeIN4Json5Value8CZStringESt4pairIKS2_S1_ESt10_Select1stIS5_ESt4lessIS2_ESaIS5_EE17_M_construct_nodeIJRS5_EEEvPSt13_Rb_tree_nodeIS5_EDpOT_
FN:632,_ZNSt8_Rb_treeIN4Json5Value8CZStringESt4pairIKS2_S1_ESt10_Select1stIS5_ESt4lessIS2_ESaIS5_EE17_M_construct_nodeIJRKS5_EEEvPSt13_Rb_tree_nodeIS5_EDpOT_
FN:651,_ZNSt8_Rb_treeIN4Json5Value8CZStringESt4pairIKS2_S1_ESt10_Select1stIS5_ESt4lessIS2_ESaIS5_EE14_M_create_nodeIJRKSt21piecewise_construct_tSt5tupleIJRS4_EESG_IJEEEEEPSt13_Rb_tree_nodeIS5_EDpOT_
FN:651,_ZNSt8_Rb_treeIN4Json5Value8CZStringESt4pairIKS2_S1_ESt10_Select1stIS5_ESt4lessIS2_ESaIS5_EE14_M_create_nodeIJRS5_EEEPSt13_Rb_tree_nodeIS5_EDpOT_
FN:651,_ZNSt8_Rb_treeINSt7__cxx1112basic_stringIcSt11char_traitsIcESaIcEEES5_St9_IdentityIS5_ESt4lessIS5_ESaIS5_EE14_M_create_nodeIJS5_EEEPSt13_Rb_tree_nodeIS5_EDpOT_
FN:651,_ZNSt8_Rb_treeIN4Json5Value8CZStringESt4pairIKS2_S1_ESt10_Select1stIS5_ESt4lessIS2_ESaIS5_EE14_M_create_nodeIJRKS5_EEEPSt13_Rb_tree_nodeIS5_EDpOT_
FN:659,_ZNSt8_Rb_treeIN4Json5Value8CZStringESt4pairIKS2_S1_ESt10_Select1stIS5_ESt4lessIS2_ESaIS5_EE15_M_destroy_nodeEPSt13_Rb_tree_nodeIS5_E
FN:659,_ZNSt8_Rb_treeINSt7__cxx1112basic_stringIcSt11char_traitsIcESaIcEEES5_St9_IdentityIS5_ESt4lessIS5_ESaIS5_EE15_M_destroy_nodeEPSt13_Rb_tree_nodeIS5_E
FN:667,_ZNSt8_Rb_treeINSt7__cxx1112basic_stringIcSt11char_traitsIcESaIcEEES5_St9_IdentityIS5_ESt4lessIS5_ESaIS5_EE12_M_drop_nodeEPSt13_Rb_tree_nodeIS5_E
FN:667,_ZNSt8_Rb_treeIN4Json5Value8CZStringESt4pairIKS2_S1_ESt10_Select1stIS5_ESt4lessIS2_ESaIS5_EE12_M_drop_nodeEPSt13_Rb_tree_nodeIS5_E
FN:675,_ZNSt8_Rb_treeIN4Json5Value8CZStringESt4pairIKS2_S1_ESt10_Select1stIS5_ESt4lessIS2_ESaIS5_EE13_M_clone_nodeINSB_11_Alloc_nodeEEEPSt13_Rb_tree_nodeIS5_EPKSF_RT_
FN:699,_ZNSt8_Rb_treeIN4Json5Value8CZStringESt4pairIKS2_S1_ESt10_Select1stIS5_ESt4lessIS2_ESaIS5_EE13_Rb_tree_implIS9_Lb1EEC2Ev
FN:699,_ZNSt8_Rb_treeINSt7__cxx1112basic_stringIcSt11char_traitsIcESaIcEEES5_St9_IdentityIS5_ESt4lessIS5_ESaIS5_EE13_Rb_tree_implIS9_Lb1EEC2Ev
FN:706,_ZNSt8_Rb_treeIN4Json5Value8CZStringESt4pairIKS2_S1_ESt10_Select1stIS5_ESt4lessIS2_ESaIS5_EE13_Rb_tree_implIS9_Lb1EEC2ERKSD_
FN:728,_ZNSt8_Rb_treeIN4Json5Value8CZStringESt4pairIKS2_S1_ESt10_Select1stIS5_ESt4lessIS2_ESaIS5_EE7_M_rootEv
FN:732,_ZNKSt8_Rb_treeIN4Json5Value8CZStringESt4pairIKS2_S1_ESt10_Select1stIS5_ESt4lessIS2_ESaIS5_EE7_M_rootEv
FN:736,_ZNSt8_Rb_treeIN4Json5Value8CZStringESt4pairIKS2_S1_ESt10_Select1stIS5_ESt4lessIS2_ESaIS5_EE11_M_leftmostEv
FN:744,_ZNSt8_Rb_treeIN4Json5Value8CZStringESt4pairIKS2_S1_ESt10_Select1stIS5_ESt4lessIS2_ESaIS5_EE12_M_rightmostEv
FN:752,_ZNSt8_Rb_treeINSt7__cxx1112basic_stringIcSt11char_traitsIcESaIcEEES5_St9_IdentityIS5_ESt4lessIS5_ESaIS5_EE8_M_beginEv
FN:752,_ZNSt8_Rb_treeIN4Json5Value8CZStringESt4pairIKS2_S1_ESt10_Select1stIS5_ESt4lessIS2_ESaIS5_EE8_M_beginEv
FN:756,_ZNKSt8_Rb_treeIN4Json5Value8CZStringESt4pairIKS2_S1_ESt10_Select1stIS5_ESt4lessIS2_ESaIS5_EE8_M_beginEv
FN:763,_ZNSt8_Rb_treeINSt7__cxx1112basic_stringIcSt11char_traitsIcESaIcEEES5_St9_IdentityIS5_ESt4lessIS5_ESaIS5_EE6_M_endEv
FN:763,_ZNSt8_Rb_treeIN4Json5Value8CZStringESt4pairIKS2_S1_ESt10_Select1stIS5_ESt4lessIS2_ESaIS5_EE6_M_endEv
FN:771,_ZNSt8_Rb_treeIN4Json5Value8CZStringESt4pairIKS2_S1_ESt10_Select1stIS5_ESt4lessIS2_ESaIS5_EE8_S_valueEPKSt13_Rb_tree_nodeIS5_E
FN:771,_ZNSt8_Rb_treeINSt7__cxx1112basic_stringIcSt11char_traitsIcESaIcEEES5_St9_IdentityIS5_ESt4lessIS5_ESaIS5_EE8_S_valueEPKSt13_Rb_tree_nodeIS5_E
FN:775,_ZNSt8_Rb_treeIN4Json5Value8CZStringESt4pairIKS2_S1_ESt10_Select1stIS5_ESt4lessIS2_ESaIS5_EE6_S_keyEPKSt13_Rb_tree_nodeIS5_E
FN:775,_ZNSt8_Rb_treeINSt7__cxx1112basic_stringIcSt11char_traitsIcESaIcEEES5_St9_IdentityIS5_ESt4lessIS5_ESaIS5_EE6_S_keyEPKSt13_Rb_tree_nodeIS5_E
FN:779,_ZNSt8_Rb_treeIN4Json5Value8CZStringESt4pairIKS2_S1_ESt10_Select1stIS5_ESt4lessIS2_ESaIS5_EE7_S_leftEPSt18_Rb_tree_node_base
FN:779,_ZNSt8_Rb_treeINSt7__cxx1112basic_stringIcSt11char_traitsIcESaIcEEES5_St9_IdentityIS5_ESt4lessIS5_ESaIS5_EE7_S_leftEPSt18_Rb_tree_node_base
FN:783,_ZNSt8_Rb_treeIN4Json5Value8CZStringESt4pairIKS2_S1_ESt10_Select1stIS5_ESt4lessIS2_ESaIS5_EE7_S_leftEPKSt18_Rb_tree_node_base
FN:787,_ZNSt8_Rb_treeINSt7__cxx1112basic_stringIcSt11char_traitsIcESaIcEEES5_St9_IdentityIS5_ESt4lessIS5_ESaIS5_EE8_S_rightEPSt18_Rb_tree_node_base
FN:787,_ZNSt8_Rb_treeIN4Json5Value8CZStringESt4pairIKS2_S1_ESt10_Select1stIS5_ESt4lessIS2_ESaIS5_EE8_S_rightEPSt18_Rb_tree_node_base
FN:791,_ZNSt8_Rb_treeIN4Json5Value8CZStringESt4pairIKS2_S1_ESt10_Select1stIS5_ESt4lessIS2_ESaIS5_EE8_S_rightEPKSt18_Rb_tree_node_base
FN:795,_ZNSt8_Rb_treeINSt7__cxx1112basic_stringIcSt11char_traitsIcESaIcEEES5_St9_IdentityIS5_ESt4lessIS5_ESaIS5_EE8_S_valueEPKSt18_Rb_tree_node_base
FN:795,_ZNSt8_Rb_treeIN4Json5Value8CZStringESt4pairIKS2_S1_ESt10_Select1stIS5_ESt4lessIS2_ESaIS5_EE8_S_valueEPKSt18_Rb_tree_node_base
FN:799,_ZNSt8_Rb_treeINSt7__cxx1112basic_stringIcSt11char_traitsIcESaIcEEES5_St9_IdentityIS5_ESt4lessIS5_ESaIS5_EE6_S_keyEPKSt18_Rb_tree_node_base
FN:799,_ZNSt8_Rb_treeIN4Json5Value8CZStringESt4pairIKS2_S1_ESt10_Select1stIS5_ESt4lessIS2_ESaIS5_EE6_S_keyEPKSt18_Rb_tree_node_base
FN:803,_ZNSt8_Rb_treeIN4Json5Value8CZStringESt4pairIKS2_S1_ESt10_Select1stIS5_ESt4lessIS2_ESaIS5_EE10_S_minimumEPSt18_Rb_tree_node_base
FN:811,_ZNSt8_Rb_treeIN4Json5Value8CZStringESt4pairIKS2_S1_ESt10_Select1stIS5_ESt4lessIS2_ESaIS5_EE10_S_maximumEPSt18_Rb_tree_node_base
FN:889,_ZNSt8_Rb_treeIN4Json5Value8CZStringESt4pairIKS2_S1_ESt10_Select1stIS5_ESt4lessIS2_ESaIS5_EE7_M_copyINSB_11_Alloc_nodeEEEPSt13_Rb_tree_nodeIS5_ERKSB_RT_
FN:899,_ZNSt8_Rb_treeIN4Json5Value8CZStringESt4pairIKS2_S1_ESt10_Select1stIS5_ESt4lessIS2_ESaIS5_EE7_M_copyERKSB_
FN:929,_ZNSt8_Rb_treeINSt7__cxx1112basic_stringIcSt11char_traitsIcESaIcEEES5_St9_IdentityIS5_ESt4lessIS5_ESaIS5_EEC2Ev
FN:929,_ZNSt8_Rb_treeIN4Json5Value8CZStringESt4pairIKS2_S1_ESt10_Select1stIS5_ESt4lessIS2_ESaIS5_EEC2Ev
FN:936,_ZNSt8_Rb_treeIN4Json5Value8CZStringESt4pairIKS2_S1_ESt10_Select1stIS5_ESt4lessIS2_ESaIS5_EEC2ERKSB_
FN:964,_ZNSt8_Rb_treeINSt7__cxx1112basic_stringIcSt11char_traitsIcESaIcEEES5_St9_IdentityIS5_ESt4lessIS5_ESaIS5_EED2Ev
FN:964,_ZNSt8_Rb_treeIN4Json5Value8CZStringESt4pairIKS2_S1_ESt10_Select1stIS5_ESt4lessIS2_ESaIS5_EED2Ev
FN:972,_ZNKSt8_Rb_treeIN4Json5Value8CZStringESt4pairIKS2_S1_ESt10_Select1stIS5_ESt4lessIS2_ESaIS5_EE8key_compEv
FN:976,_ZNSt8_Rb_treeIN4Json5Value8CZStringESt4pairIKS2_S1_ESt10_Select1stIS5_ESt4lessIS2_ESaIS5_EE5beginEv
FN:976,_ZNSt8_Rb_treeINSt7__cxx1112basic_stringIcSt11char_traitsIcESaIcEEES5_St9_IdentityIS5_ESt4lessIS5_ESaIS5_EE5beginEv
FN:980,_ZNKSt8_Rb_treeIN4Json5Value8CZStringESt4pairIKS2_S1_ESt10_Select1stIS5_ESt4lessIS2_ESaIS5_EE5beginEv
FN:984,_ZNSt8_Rb_treeIN4Json5Value8CZStringESt4pairIKS2_S1_ESt10_Select1stIS5_ESt4lessIS2_ESaIS5_EE3endEv
FN:984,_ZNSt8_Rb_treeINSt7__cxx1112basic_stringIcSt11char_traitsIcESaIcEEES5_St9_IdentityIS5_ESt4lessIS5_ESaIS5_EE3endEv
FN:988,_ZNKSt8_Rb_treeINSt7__cxx1112basic_stringIcSt11char_traitsIcESaIcEEES5_St9_IdentityIS5_ESt4lessIS5_ESaIS5_EE3endEv
FN:988,_ZNKSt8_Rb_treeIN4Json5Value8CZStringESt4pairIKS2_S1_ESt10_Select1stIS5_ESt4lessIS2_ESaIS5_EE3endEv
FN:1008,_ZNKSt8_Rb_treeIN4Json5Value8CZStringESt4pairIKS2_S1_ESt10_Select1stIS5_ESt4lessIS2_ESaIS5_EE5emptyEv
FN:1012,_ZNKSt8_Rb_treeIN4Json5Value8CZStringESt4pairIKS2_S1_ESt10_Select1stIS5_ESt4lessIS2_ESaIS5_EE4sizeEv
FN:1136,_ZNSt8_Rb_treeIN4Json5Value8CZStringESt4pairIKS2_S1_ESt10_Select1stIS5_ESt4lessIS2_ESaIS5_EE5eraseB5cxx11ESt17_Rb_tree_iteratorIS5_E
FN:1185,_ZNSt8_Rb_treeIN4Json5Value8CZStringESt4pairIKS2_S1_ESt10_Select1stIS5_ESt4lessIS2_ESaIS5_EE5clearEv
FN:1185,_ZNSt8_Rb_treeINSt7__cxx1112basic_stringIcSt11char_traitsIcESaIcEEES5_St9_IdentityIS5_ESt4lessIS5_ESaIS5_EE5clearEv
FN:1202,_ZNSt8_Rb_treeIN4Json5Value8CZStringESt4pairIKS2_S1_ESt10_Select1stIS5_ESt4lessIS2_ESaIS5_EE11lower_boundERS4_
FN:1549,_ZSteqIN4Json5Value8CZStringESt4pairIKS2_S1_ESt10_Select1stIS5_ESt4lessIS2_ESaIS5_EEbRKSt8_Rb_treeIT_T0_T1_T2_T3_ESJ_
FN:1559,_ZStltIN4Json5Value8CZStringESt4pairIKS2_S1_ESt10_Select1stIS5_ESt4lessIS2_ESaIS5_EEbRKSt8_Rb_treeIT_T0_T1_T2_T3_ESJ_
FN:1756,_ZNSt8_Rb_treeINSt7__cxx1112basic_stringIcSt11char_traitsIcESaIcEEES5_St9_IdentityIS5_ESt4lessIS5_ESaIS5_EE10_M_insert_IS5_NSB_11_Alloc_nodeEEESt17_Rb_tree_iteratorIS5_EPSt18_Rb_tree_node_baseSH_OT_RT0_
FN:1830,_ZNSt8_Rb_treeIN4Json5Value8CZStringESt4pairIKS2_S1_ESt10_Select1stIS5_ESt4lessIS2_ESaIS5_EE7_M_copyINSB_11_Alloc_nodeEEEPSt13_Rb_tree_nodeIS5_EPKSF_PSt18_Rb_tree_node_baseRT_
FN:1866,_ZNSt8_Rb_treeINSt7__cxx1112basic_stringIcSt11char_traitsIcESaIcEEES5_St9_IdentityIS5_ESt4lessIS5_ESaIS5_EE8_M_eraseEPSt13_Rb_tree_nodeIS5_E
FN:1866,_ZNSt8_Rb_treeIN4Json5Value8CZStringESt4pairIKS2_S1_ESt10_Select1stIS5_ESt4lessIS2_ESaIS5_EE8_M_eraseEPSt13_Rb_tree_nodeIS5_E
FN:1883,_ZNSt8_Rb_treeINSt7__cxx1112basic_stringIcSt11char_traitsIcESaIcEEES5_St9_IdentityIS5_ESt4lessIS5_ESaIS5_EE14_M_lower_boundEPSt13_Rb_tree_nodeIS5_EPSt18_Rb_tree_node_baseRKS5_
FN:1883,_ZNSt8_Rb_treeIN4Json5Value8CZStringESt4pairIKS2_S1_ESt10_Select1stIS5_ESt4lessIS2_ESaIS5_EE14_M_lower_boundEPSt13_Rb_tree_nodeIS5_EPSt18_Rb_tree_node_baseRS4_
FN:1915,_ZNSt8_Rb_treeIN4Json5Value8CZStringESt4pairIKS2_S1_ESt10_Select1stIS5_ESt4lessIS2_ESaIS5_EE14_M_upper_boundEPSt13_Rb_tree_nodeIS5_EPSt18_Rb_tree_node_baseRS4_
FN:1949,_ZNSt8_Rb_treeIN4Json5Value8CZStringESt4pairIKS2_S1_ESt10_Select1stIS5_ESt4lessIS2_ESaIS5_EE11equal_rangeERS4_
FN:2044,_ZNSt8_Rb_treeIN4Json5Value8CZStringESt4pairIKS2_S1_ESt10_Select1stIS5_ESt4lessIS2_ESaIS5_EE24_M_get_insert_unique_posERS4_
FN:2044,_ZNSt8_Rb_treeINSt7__cxx1112basic_stringIcSt11char_traitsIcESaIcEEES5_St9_IdentityIS5_ESt4lessIS5_ESaIS5_EE24_M_get_insert_unique_posERKS5_
FN:2098,_ZNSt8_Rb_treeINSt7__cxx1112basic_stringIcSt11char_traitsIcESaIcEEES5_St9_IdentityIS5_ESt4lessIS5_ESaIS5_EE16_M_insert_uniqueIS5_EESt4pairISt17_Rb_tree_iteratorIS5_EbEOT_
FN:2146,_ZNSt8_Rb_treeIN4Json5Value8CZStringESt4pairIKS2_S1_ESt10_Select1stIS5_ESt4lessIS2_ESaIS5_EE29_M_get_insert_hint_unique_posESt23_Rb_tree_const_iteratorIS5_ERS4_
FN:2313,_ZNSt8_Rb_treeIN4Json5Value8CZStringESt4pairIKS2_S1_ESt10_Select1stIS5_ESt4lessIS2_ESaIS5_EE14_M_insert_nodeEPSt18_Rb_tree_node_baseSD_PSt13_Rb_tree_nodeIS5_E
FN:2411,_ZNSt8_Rb_treeIN4Json5Value8CZStringESt4pairIKS2_S1_ESt10_Select1stIS5_ESt4lessIS2_ESaIS5_EE22_M_emplace_hint_uniqueIJRKSt21piecewise_construct_tSt5tupleIJRS4_EESG_IJEEEEESt17_Rb_tree_iteratorIS5_ESt23_Rb_tree_const_iteratorIS5_EDpOT_
FN:2411,_ZNSt8_Rb_treeIN4Json5Value8CZStringESt4pairIKS2_S1_ESt10_Select1stIS5_ESt4lessIS2_ESaIS5_EE22_M_emplace_hint_uniqueIJRS5_EEESt17_Rb_tree_iteratorIS5_ESt23_Rb_tree_const_iteratorIS5_EDpOT_
FN:2486,_ZNSt8_Rb_treeIN4Json5Value8CZStringESt4pairIKS2_S1_ESt10_Select1stIS5_ESt4lessIS2_ESaIS5_EE12_M_erase_auxESt23_Rb_tree_const_iteratorIS5_E
FN:2500,_ZNSt8_Rb_treeIN4Json5Value8CZStringESt4pairIKS2_S1_ESt10_Select1stIS5_ESt4lessIS2_ESaIS5_EE12_M_erase_auxESt23_Rb_tree_const_iteratorIS5_ESD_
FN:2513,_ZNSt8_Rb_treeIN4Json5Value8CZStringESt4pairIKS2_S1_ESt10_Select1stIS5_ESt4lessIS2_ESaIS5_EE5eraseERS4_
FNDA:492,_ZNSt18_Rb_tree_node_base10_S_minimumEPS_
FNDA:492,_ZNSt18_Rb_tree_node_base10_S_maximumEPS_
FNDA:418,_ZNSt20_Rb_tree_key_compareISt4lessIN4Json5Value8CZStringEEEC2Ev
FNDA:0,_ZNSt20_Rb_tree_key_compareISt4lessINSt7__cxx1112basic_stringIcSt11char_traitsIcESaIcEEEEEC2Ev
FNDA:628,_ZNSt20_Rb_tree_key_compareISt4lessIN4Json5Value8CZStringEEEC2ERKS4_
FNDA:1046,_ZNSt15_Rb_tree_headerC2Ev
FNDA:1046,_ZNSt15_Rb_tree_header8_M_resetEv
FNDA:0,_ZNSt13_Rb_tree_nodeINSt7__cxx1112basic_stringIcSt11char_traitsIcESaIcEEEE9_M_valptrEv
FNDA:14124,_ZNSt13_Rb_tree_nodeISt4pairIKN4Json5Value8CZStringES2_EE9_M_valptrEv
FNDA:0,_ZNKSt13_Rb_tree_nodeINSt7__cxx1112basic_stringIcSt11char_traitsIcESaIcEEEE9_M_valptrEv
FNDA:20114,_ZNKSt13_Rb_tree_nodeISt4pairIKN4Json5Value8CZStringES2_EE9_M_valptrEv
FNDA:0,_ZNSt17_Rb_tree_iteratorISt4pairIKN4Json5Value8CZStringES2_EEC2Ev
FNDA:13521,_ZNSt17_Rb_tree_iteratorISt4pairIKN4Json5Value8CZStringES2_EEC2EPSt18_Rb_tree_node_base
FNDA:0,_ZNSt17_Rb_tree_iteratorINSt7__cxx1112basic_stringIcSt11char_traitsIcESaIcEEEEC2EPSt18_Rb_tree_node_base
FNDA:4377,_ZNKSt17_Rb_tree_iteratorISt4pairIKN4Json5Value8CZStringES2_EEdeEv
FNDA:151,_ZNKSt17_Rb_tree_iteratorISt4pairIKN4Json5Value8CZStringES2_EEptEv
FNDA:151,_ZNSt17_Rb_tree_iteratorISt4pairIKN4Json5Value8CZStringES2_EEppEv
FNDA:0,_ZNSt17_Rb_tree_iteratorINSt7__cxx1112basic_stringIcSt11char_traitsIcESaIcEEEEmmEv
FNDA:20,_ZNSt17_Rb_tree_iteratorISt4pairIKN4Json5Value8CZStringES2_EEmmEv
FNDA:0,_ZNKSt17_Rb_tree_iteratorINSt7__cxx1112basic_stringIcSt11char_traitsIcESaIcEEEEeqERKS6_
FNDA:1515,_ZNKSt17_Rb_tree_iteratorISt4pairIKN4Json5Value8CZStringES2_EEeqERKS6_
FNDA:3012,_ZNKSt17_Rb_tree_iteratorISt4pairIKN4Json5Value8CZStringES2_EEneERKS6_
FNDA:0,_ZNSt23_Rb_tree_const_iteratorISt4pairIKN4Json5Value8CZStringES2_EEC2EPKSt18_Rb_tree_node_base
FNDA:0,_ZNSt23_Rb_tree_const_iteratorINSt7__cxx1112basic_stringIcSt11char_traitsIcESaIcEEEEC2EPKSt18_Rb_tree_node_base
FNDA:0,_ZNSt23_Rb_tree_const_iteratorINSt7__cxx1112basic_stringIcSt11char_traitsIcESaIcEEEEC2ERKSt17_Rb_tree_iteratorIS5_E
FNDA:3912,_ZNSt23_Rb_tree_const_iteratorISt4pairIKN4Json5Value8CZStringES2_EEC2ERKSt17_Rb_tree_iteratorIS5_E
FNDA:1826,_ZNKSt23_Rb_tree_const_iteratorISt4pairIKN4Json5Value8CZStringES2_EE13_M_const_castEv
FNDA:1117,_ZNKSt23_Rb_tree_const_iteratorISt4pairIKN4Json5Value8CZStringES2_EEdeEv
FNDA:0,_ZNSt23_Rb_tree_const_iteratorISt4pairIKN4Json5Value8CZStringES2_EEppEv
FNDA:0,_ZNSt23_Rb_tree_const_iteratorISt4pairIKN4Json5Value8CZStringES2_EEppEi
FNDA:148,_ZNSt23_Rb_tree_const_iteratorISt4pairIKN4Json5Value8CZStringES2_EEmmEv
FNDA:969,_ZNKSt23_Rb_tree_const_iteratorISt4pairIKN4Json5Value8CZStringES2_EEeqERKS6_
FNDA:0,_ZNKSt23_Rb_tree_const_iteratorINSt7__cxx1112basic_stringIcSt11char_traitsIcESaIcEEEEeqERKS6_
FNDA:0,_ZNKSt23_Rb_tree_const_iteratorISt4pairIKN4Json5Value8CZStringES2_EEneERKS6_
FNDA:492,_ZNSt8_Rb_treeIN4Json5Value8CZStringESt4pairIKS2_S1_ESt10_Select1stIS5_ESt4lessIS2_ESaIS5_EE11_Alloc_nodeC2ERSB_
FNDA:0,_ZNSt8_Rb_treeINSt7__cxx1112basic_stringIcSt11char_traitsIcESaIcEEES5_St9_IdentityIS5_ESt4lessIS5_ESaIS5_EE11_Alloc_nodeC2ERSB_
FNDA:2972,_ZNKSt8_Rb_treeIN4Json5Value8CZStringESt4pairIKS2_S1_ESt10_Select1stIS5_ESt4lessIS2_ESaIS5_EE11_Alloc_nodeclIRKS5_EEPSt13_Rb_tree_nodeIS5_EOT_
FNDA:0,_ZNKSt8_Rb_treeINSt7__cxx1112basic_stringIcSt11char_traitsIcESaIcEEES5_St9_IdentityIS5_ESt4lessIS5_ESaIS5_EE11_Alloc_nodeclIS5_EEPSt13_Rb_tree_nodeIS5_EOT_
FNDA:19192,_ZNSt8_Rb_treeIN4Json5Value8CZStringESt4pairIKS2_S1_ESt10_Select1stIS5_ESt4lessIS2_ESaIS5_EE21_M_get_Node_allocatorEv
FNDA:0,_ZNSt8_Rb_treeINSt7__cxx1112basic_stringIcSt11char_traitsIcESaIcEEES5_St9_IdentityIS5_ESt4lessIS5_ESaIS5_EE21_M_get_Node_allocatorEv
FNDA:0,_ZNSt8_Rb_treeINSt7__cxx1112basic_stringIcSt11char_traitsIcESaIcEEES5_St9_IdentityIS5_ESt4lessIS5_ESaIS5_EE11_M_get_nodeEv
FNDA:4798,_ZNSt8_Rb_treeIN4Json5Value8CZStringESt4pairIKS2_S1_ESt10_Select1stIS5_ESt4lessIS2_ESaIS5_EE11_M_get_nodeEv
FNDA:4798,_ZNSt8_Rb_treeIN4Json5Value8CZStringESt4pairIKS2_S1_ESt10_Select1stIS5_ESt4lessIS2_ESaIS5_EE11_M_put_nodeEPSt13_Rb_tree_nodeIS5_E
FNDA:0,_ZNSt8_Rb_treeINSt7__cxx1112basic_stringIcSt11char_traitsIcESaIcEEES5_St9_IdentityIS5_ESt4lessIS5_ESaIS5_EE11_M_put_nodeEPSt13_Rb_tree_nodeIS5_E
FNDA:2972,_ZNSt8_Rb_treeIN4Json5Value8CZStringESt4pairIKS2_S1_ESt10_Select1stIS5_ESt4lessIS2_ESaIS5_EE17_M_construct_nodeIJRKS5_EEEvPSt13_Rb_tree_nodeIS5_EDpOT_
FNDA:0,_ZNSt8_Rb_treeINSt7__cxx1112basic_stringIcSt11char_traitsIcESaIcEEES5_St9_IdentityIS5_ESt4lessIS5_ESaIS5_EE17_M_construct_nodeIJS5_EEEvPSt13_Rb_tree_nodeIS5_EDpOT_
FNDA:0,_ZNSt8_Rb_treeIN4Json5Value8CZStringESt4pairIKS2_S1_ESt10_Select1stIS5_ESt4lessIS2_ESaIS5_EE17_M_construct_nodeIJRKSt21piecewise_construct_tSt5tupleIJRS4_EESG_IJEEEEEvPSt13_Rb_tree_nodeIS5_EDpOT_
FNDA:1826,_ZNSt8_Rb_treeIN4Json5Value8CZStringESt4pairIKS2_S1_ESt10_Select1stIS5_ESt4lessIS2_ESaIS5_EE17_M_construct_nodeIJRS5_EEEvPSt13_Rb_tree_nodeIS5_EDpOT_
FNDA:2972,_ZNSt8_Rb_treeIN4Json5Value8CZStringESt4pairIKS2_S1_ESt10_Select1stIS5_ESt4lessIS2_ESaIS5_EE14_M_create_nodeIJRKS5_EEEPSt13_Rb_tree_nodeIS5_EDpOT_
FNDA:0,_ZNSt8_Rb_treeINSt7__cxx1112basic_stringIcSt11char_traitsIcESaIcEEES5_St9_IdentityIS5_ESt4lessIS5_ESaIS5_EE14_M_create_nodeIJS5_EEEPSt13_Rb_tree_nodeIS5_EDpOT_
FNDA:0,_ZNSt8_Rb_treeIN4Json5Value8CZStringESt4pairIKS2_S1_ESt10_Select1stIS5_ESt4lessIS2_ESaIS5_EE14_M_create_nodeIJRKSt21piecewise_construct_tSt5tupleIJRS4_EESG_IJEEEEEPSt13_Rb_tree_nodeIS5_EDpOT_
FNDA:1826,_ZNSt8_Rb_treeIN4Json5Value8CZStringESt4pairIKS2_S1_ESt10_Select1stIS5_ESt4lessIS2_ESaIS5_EE14_M_create_nodeIJRS5_EEEPSt13_Rb_tree_nodeIS5_EDpOT_
FNDA:4798,_ZNSt8_Rb_treeIN4Json5Value8CZStringESt4pairIKS2_S1_ESt10_Select1stIS5_ESt4lessIS2_ESaIS5_EE15_M_destroy_nodeEPSt13_Rb_tree_nodeIS5_E
FNDA:0,_ZNSt8_Rb_treeINSt7__cxx1112basic_stringIcSt11char_traitsIcESaIcEEES5_St9_IdentityIS5_ESt4lessIS5_ESaIS5_EE15_M_destroy_nodeEPSt13_Rb_tree_nodeIS5_E
FNDA:4798,_ZNSt8_Rb_treeIN4Json5Value8CZStringESt4pairIKS2_S1_ESt10_Select1stIS5_ESt4lessIS2_ESaIS5_EE12_M_drop_nodeEPSt13_Rb_tree_nodeIS5_E
FNDA:0,_ZNSt8_Rb_treeINSt7__cxx1112basic_stringIcSt11char_traitsIcESaIcEEES5_St9_IdentityIS5_ESt4lessIS5_ESaIS5_EE12_M_drop_nodeEPSt13_Rb_tree_nodeIS5_E
FNDA:2972,_ZNSt8_Rb_treeIN4Json5Value8CZStringESt4pairIKS2_S1_ESt10_Select1stIS5_ESt4lessIS2_ESaIS5_EE13_M_clone_nodeINSB_11_Alloc_nodeEEEPSt13_Rb_tree_nodeIS5_EPKSF_RT_
FNDA:418,_ZNSt8_Rb_treeIN4Json5Value8CZStringESt4pairIKS2_S1_ESt10_Select1stIS5_ESt4lessIS2_ESaIS5_EE13_Rb_tree_implIS9_Lb1EEC2Ev
FNDA:0,_ZNSt8_Rb_treeINSt7__cxx1112basic_stringIcSt11char_traitsIcESaIcEEES5_St9_IdentityIS5_ESt4lessIS5_ESaIS5_EE13_Rb_tree_implIS9_Lb1EEC2Ev
FNDA:628,_ZNSt8_Rb_treeIN4Json5Value8CZStringESt4pairIKS2_S1_ESt10_Select1stIS5_ESt4lessIS2_ESaIS5_EE13_Rb_tree_implIS9_Lb1EEC2ERKSD_
FNDA:492,_ZNSt8_Rb_treeIN4Json5Value8CZStringESt4pairIKS2_S1_ESt10_Select1stIS5_ESt4lessIS2_ESaIS5_EE7_M_rootEv
FNDA:628,_ZNKSt8_Rb_treeIN4Json5Value8CZStringESt4pairIKS2_S1_ESt10_Select1stIS5_ESt4lessIS2_ESaIS5_EE7_M_rootEv
FNDA:989,_ZNSt8_Rb_treeIN4Json5Value8CZStringESt4pairIKS2_S1_ESt10_Select1stIS5_ESt4lessIS2_ESaIS5_EE11_M_leftmostEv
FNDA:3086,_ZNSt8_Rb_treeIN4Json5Value8CZStringESt4pairIKS2_S1_ESt10_Select1stIS5_ESt4lessIS2_ESaIS5_EE12_M_rightmostEv
FNDA:5377,_ZNSt8_Rb_treeIN4Json5Value8CZStringESt4pairIKS2_S1_ESt10_Select1stIS5_ESt4lessIS2_ESaIS5_EE8_M_beginEv
FNDA:0,_ZNSt8_Rb_treeINSt7__cxx1112basic_stringIcSt11char_traitsIcESaIcEEES5_St9_IdentityIS5_ESt4lessIS5_ESaIS5_EE8_M_beginEv
FNDA:492,_ZNKSt8_Rb_treeIN4Json5Value8CZStringESt4pairIKS2_S1_ESt10_Select1stIS5_ESt4lessIS2_ESaIS5_EE8_M_beginEv
FNDA:8308,_ZNSt8_Rb_treeIN4Json5Value8CZStringESt4pairIKS2_S1_ESt10_Select1stIS5_ESt4lessIS2_ESaIS5_EE6_M_endEv
FNDA:0,_ZNSt8_Rb_treeINSt7__cxx1112basic_stringIcSt11char_traitsIcESaIcEEES5_St9_IdentityIS5_ESt4lessIS5_ESaIS5_EE6_M_endEv
FNDA:0,_ZNSt8_Rb_treeINSt7__cxx1112basic_stringIcSt11char_traitsIcESaIcEEES5_St9_IdentityIS5_ESt4lessIS5_ESaIS5_EE8_S_valueEPKSt13_Rb_tree_nodeIS5_E
FNDA:12251,_ZNSt8_Rb_treeIN4Json5Value8CZStringESt4pairIKS2_S1_ESt10_Select1stIS5_ESt4lessIS2_ESaIS5_EE8_S_valueEPKSt13_Rb_tree_nodeIS5_E
FNDA:0,_ZNSt8_Rb_treeINSt7__cxx1112basic_stringIcSt11char_traitsIcESaIcEEES5_St9_IdentityIS5_ESt4lessIS5_ESaIS5_EE6_S_keyEPKSt13_Rb_tree_nodeIS5_E
FNDA:12251,_ZNSt8_Rb_treeIN4Json5Value8CZStringESt4pairIKS2_S1_ESt10_Select1stIS5_ESt4lessIS2_ESaIS5_EE6_S_keyEPKSt13_Rb_tree_nodeIS5_E
FNDA:8243,_ZNSt8_Rb_treeIN4Json5Value8CZStringESt4pairIKS2_S1_ESt10_Select1stIS5_ESt4lessIS2_ESaIS5_EE7_S_leftEPSt18_Rb_tree_node_base
FNDA:0,_ZNSt8_Rb_treeINSt7__cxx1112basic_stringIcSt11char_traitsIcESaIcEEES5_St9_IdentityIS5_ESt4lessIS5_ESaIS5_EE7_S_leftEPSt18_Rb_tree_node_base
FNDA:2972,_ZNSt8_Rb_treeIN4Json5Value8CZStringESt4pairIKS2_S1_ESt10_Select1stIS5_ESt4lessIS2_ESaIS5_EE7_S_leftEPKSt18_Rb_tree_node_base
FNDA:10489,_ZNSt8_Rb_treeIN4Json5Value8CZStringESt4pairIKS2_S1_ESt10_Select1stIS5_ESt4lessIS2_ESaIS5_EE8_S_rightEPSt18_Rb_tree_node_base
FNDA:0,_ZNSt8_Rb_treeINSt7__cxx1112basic_stringIcSt11char_traitsIcESaIcEEES5_St9_IdentityIS5_ESt4lessIS5_ESaIS5_EE8_S_rightEPSt18_Rb_tree_node_base
FNDA:1398,_ZNSt8_Rb_treeIN4Json5Value8CZStringESt4pairIKS2_S1_ESt10_Select1stIS5_ESt4lessIS2_ESaIS5_EE8_S_rightEPKSt18_Rb_tree_node_base
FNDA:3774,_ZNSt8_Rb_treeIN4Json5Value8CZStringESt4pairIKS2_S1_ESt10_Select1stIS5_ESt4lessIS2_ESaIS5_EE8_S_valueEPKSt18_Rb_tree_node_base
FNDA:0,_ZNSt8_Rb_treeINSt7__cxx1112basic_stringIcSt11char_traitsIcESaIcEEES5_St9_IdentityIS5_ESt4lessIS5_ESaIS5_EE8_S_valueEPKSt18_Rb_tree_node_base
FNDA:3774,_ZNSt8_Rb_treeIN4Json5Value8CZStringESt4pairIKS2_S1_ESt10_Select1stIS5_ESt4lessIS2_ESaIS5_EE6_S_keyEPKSt18_Rb_tree_node_base
FNDA:0,_ZNSt8_Rb_treeINSt7__cxx1112basic_stringIcSt11char_traitsIcESaIcEEES5_St9_IdentityIS5_ESt4lessIS5_ESaIS5_EE6_S_keyEPKSt18_Rb_tree_node_base
FNDA:492,_ZNSt8_Rb_treeIN4Json5Value8CZStringESt4pairIKS2_S1_ESt10_Select1stIS5_ESt4lessIS2_ESaIS5_EE10_S_minimumEPSt18_Rb_tree_node_base
FNDA:492,_ZNSt8_Rb_treeIN4Json5Value8CZStringESt4pairIKS2_S1_ESt10_Select1stIS5_ESt4lessIS2_ESaIS5_EE10_S_maximumEPSt18_Rb_tree_node_base
FNDA:492,_ZNSt8_Rb_treeIN4Json5Value8CZStringESt4pairIKS2_S1_ESt10_Select1stIS5_ESt4lessIS2_ESaIS5_EE7_M_copyINSB_11_Alloc_nodeEEEPSt13_Rb_tree_nodeIS5_ERKSB_RT_
FNDA:492,_ZNSt8_Rb_treeIN4Json5Value8CZStringESt4pairIKS2_S1_ESt10_Select1stIS5_ESt4lessIS2_ESaIS5_EE7_M_copyERKSB_
FNDA:418,_ZNSt8_Rb_treeIN4Json5Value8CZStringESt4pairIKS2_S1_ESt10_Select1stIS5_ESt4lessIS2_ESaIS5_EEC2Ev
FNDA:0,_ZNSt8_Rb_treeINSt7__cxx1112basic_stringIcSt11char_traitsIcESaIcEEES5_St9_IdentityIS5_ESt4lessIS5_ESaIS5_EEC2Ev
FNDA:628,_ZNSt8_Rb_treeIN4Json5Value8CZStringESt4pairIKS2_S1_ESt10_Select1stIS5_ESt4lessIS2_ESaIS5_EEC2ERKSB_
FNDA:1046,_ZNSt8_Rb_treeIN4Json5Value8CZStringESt4pairIKS2_S1_ESt10_Select1stIS5_ESt4lessIS2_ESaIS5_EED2Ev
FNDA:0,_ZNSt8_Rb_treeINSt7__cxx1112basic_stringIcSt11char_traitsIcESaIcEEES5_St9_IdentityIS5_ESt4lessIS5_ESaIS5_EED2Ev
FNDA:0,_ZNKSt8_Rb_treeIN4Json5Value8CZStringESt4pairIKS2_S1_ESt10_Select1stIS5_ESt4lessIS2_ESaIS5_EE8key_compEv
FNDA:0,_ZNSt8_Rb_treeINSt7__cxx1112basic_stringIcSt11char_traitsIcESaIcEEES5_St9_IdentityIS5_ESt4lessIS5_ESaIS5_EE5beginEv
FNDA:395,_ZNSt8_Rb_treeIN4Json5Value8CZStringESt4pairIKS2_S1_ESt10_Select1stIS5_ESt4lessIS2_ESaIS5_EE5beginEv
FNDA:0,_ZNKSt8_Rb_treeIN4Json5Value8CZStringESt4pairIKS2_S1_ESt10_Select1stIS5_ESt4lessIS2_ESaIS5_EE5beginEv
FNDA:0,_ZNSt8_Rb_treeINSt7__cxx1112basic_stringIcSt11char_traitsIcESaIcEEES5_St9_IdentityIS5_ESt4lessIS5_ESaIS5_EE3endEv
FNDA:5143,_ZNSt8_Rb_treeIN4Json5Value8CZStringESt4pairIKS2_S1_ESt10_Select1stIS5_ESt4lessIS2_ESaIS5_EE3endEv
FNDA:0,_ZNKSt8_Rb_treeIN4Json5Value8CZStringESt4pairIKS2_S1_ESt10_Select1stIS5_ESt4lessIS2_ESaIS5_EE3endEv
FNDA:0,_ZNKSt8_Rb_treeINSt7__cxx1112basic_stringIcSt11char_traitsIcESaIcEEES5_St9_IdentityIS5_ESt4lessIS5_ESaIS5_EE3endEv
FNDA:216,_ZNKSt8_Rb_treeIN4Json5Value8CZStringESt4pairIKS2_S1_ESt10_Select1stIS5_ESt4lessIS2_ESaIS5_EE5emptyEv
FNDA:1647,_ZNKSt8_Rb_treeIN4Json5Value8CZStringESt4pairIKS2_S1_ESt10_Select1stIS5_ESt4lessIS2_ESaIS5_EE4sizeEv
FNDA:0,_ZNSt8_Rb_treeIN4Json5Value8CZStringESt4pairIKS2_S1_ESt10_Select1stIS5_ESt4lessIS2_ESaIS5_EE5eraseB5cxx11ESt17_Rb_tree_iteratorIS5_E
FNDA:0,_ZNSt8_Rb_treeIN4Json5Value8CZStringESt4pairIKS2_S1_ESt10_Select1stIS5_ESt4lessIS2_ESaIS5_EE5clearEv
FNDA:0,_ZNSt8_Rb_treeINSt7__cxx1112basic_stringIcSt11char_traitsIcESaIcEEES5_St9_IdentityIS5_ESt4lessIS5_ESaIS5_EE5clearEv
FNDA:3012,_ZNSt8_Rb_treeIN4Json5Value8CZStringESt4pairIKS2_S1_ESt10_Select1stIS5_ESt4lessIS2_ESaIS5_EE11lower_boundERS4_
FNDA:0,_ZSteqIN4Json5Value8CZStringESt4pairIKS2_S1_ESt10_Select1stIS5_ESt4lessIS2_ESaIS5_EEbRKSt8_Rb_treeIT_T0_T1_T2_T3_ESJ_
FNDA:0,_ZStltIN4Json5Value8CZStringESt4pairIKS2_S1_ESt10_Select1stIS5_ESt4lessIS2_ESaIS5_EEbRKSt8_Rb_treeIT_T0_T1_T2_T3_ESJ_
FNDA:0,_ZNSt8_Rb_treeINSt7__cxx1112basic_stringIcSt11char_traitsIcESaIcEEES5_St9_IdentityIS5_ESt4lessIS5_ESaIS5_EE10_M_insert_IS5_NSB_11_Alloc_nodeEEESt17_Rb_tree_iteratorIS5_EPSt18_Rb_tree_node_baseSH_OT_RT0_
FNDA:1890,_ZNSt8_Rb_treeIN4Json5Value8CZStringESt4pairIKS2_S1_ESt10_Select1stIS5_ESt4lessIS2_ESaIS5_EE7_M_copyINSB_11_Alloc_nodeEEEPSt13_Rb_tree_nodeIS5_EPKSF_PSt18_Rb_tree_node_baseRT_
FNDA:5844,_ZNSt8_Rb_treeIN4Json5Value8CZStringESt4pairIKS2_S1_ESt10_Select1stIS5_ESt4lessIS2_ESaIS5_EE8_M_eraseEPSt13_Rb_tree_nodeIS5_E
FNDA:0,_ZNSt8_Rb_treeINSt7__cxx1112basic_stringIcSt11char_traitsIcESaIcEEES5_St9_IdentityIS5_ESt4lessIS5_ESaIS5_EE8_M_eraseEPSt13_Rb_tree_nodeIS5_E
FNDA:3981,_ZNSt8_Rb_treeIN4Json5Value8CZStringESt4pairIKS2_S1_ESt10_Select1stIS5_ESt4lessIS2_ESaIS5_EE14_M_lower_boundEPSt13_Rb_tree_nodeIS5_EPSt18_Rb_tree_node_baseRS4_
FNDA:0,_ZNSt8_Rb_treeINSt7__cxx1112basic_stringIcSt11char_traitsIcESaIcEEES5_St9_IdentityIS5_ESt4lessIS5_ESaIS5_EE14_M_lower_boundEPSt13_Rb_tree_nodeIS5_EPSt18_Rb_tree_node_baseRKS5_
FNDA:0,_ZNSt8_Rb_treeIN4Json5Value8CZStringESt4pairIKS2_S1_ESt10_Select1stIS5_ESt4lessIS2_ESaIS5_EE14_M_upper_boundEPSt13_Rb_tree_nodeIS5_EPSt18_Rb_tree_node_baseRS4_
FNDA:0,_ZNSt8_Rb_treeIN4Json5Value8CZStringESt4pairIKS2_S1_ESt10_Select1stIS5_ESt4lessIS2_ESaIS5_EE11equal_rangeERS4_
FNDA:350,_ZNSt8_Rb_treeIN4Json5Value8CZStringESt4pairIKS2_S1_ESt10_Select1stIS5_ESt4lessIS2_ESaIS5_EE24_M_get_insert_unique_posERS4_
FNDA:0,_ZNSt8_Rb_treeINSt7__cxx1112basic_stringIcSt11char_traitsIcESaIcEEES5_St9_IdentityIS5_ESt4lessIS5_ESaIS5_EE24_M_get_insert_unique_posERKS5_
FNDA:0,_ZNSt8_Rb_treeINSt7__cxx1112basic_stringIcSt11char_traitsIcESaIcEEES5_St9_IdentityIS5_ESt4lessIS5_ESaIS5_EE16_M_insert_uniqueIS5_EESt4pairISt17_Rb_tree_iteratorIS5_EbEOT_
FNDA:1826,_ZNSt8_Rb_treeIN4Json5Value8CZStringESt4pairIKS2_S1_ESt10_Select1stIS5_ESt4lessIS2_ESaIS5_EE29_M_get_insert_hint_unique_posESt23_Rb_tree_const_iteratorIS5_ERS4_
FNDA:1826,_ZNSt8_Rb_treeIN4Json5Value8CZStringESt4pairIKS2_S1_ESt10_Select1stIS5_ESt4lessIS2_ESaIS5_EE14_M_insert_nodeEPSt18_Rb_tree_node_baseSD_PSt13_Rb_tree_nodeIS5_E
FNDA:0,_ZNSt8_Rb_treeIN4Json5Value8CZStringESt4pairIKS2_S1_ESt10_Select1stIS5_ESt4lessIS2_ESaIS5_EE22_M_emplace_hint_uniqueIJRKSt21piecewise_construct_tSt5tupleIJRS4_EESG_IJEEEEESt17_Rb_tree_iteratorIS5_ESt23_Rb_tree_const_iteratorIS5_EDpOT_
FNDA:1826,_ZNSt8_Rb_treeIN4Json5Value8CZStringESt4pairIKS2_S1_ESt10_Select1stIS5_ESt4lessIS2_ESaIS5_EE22_M_emplace_hint_uniqueIJRS5_EEESt17_Rb_tree_iteratorIS5_ESt23_Rb_tree_const_iteratorIS5_EDpOT_
FNDA:0,_ZNSt8_Rb_treeIN4Json5Value8CZStringESt4pairIKS2_S1_ESt10_Select1stIS5_ESt4lessIS2_ESaIS5_EE12_M_erase_auxESt23_Rb_tree_const_iteratorIS5_E
FNDA:0,_ZNSt8_Rb_treeIN4Json5Value8CZStringESt4pairIKS2_S1_ESt10_Select1stIS5_ESt4lessIS2_ESaIS5_EE12_M_erase_auxESt23_Rb_tree_const_iteratorIS5_ESD_
FNDA:0,_ZNSt8_Rb_treeIN4Json5Value8CZStringESt4pairIKS2_S1_ESt10_Select1stIS5_ESt4lessIS2_ESaIS5_EE5eraseERS4_
FNF:126
FNH:68
DA:112,1264
DA:114,1264
DA:115,492
DA:126,1585
DA:128,1585
DA:129,492
DA:146,418
DA:150,418
DA:151,418
DA:155,418
DA:156,0
DA:160,0
DA:162,628
DA:164,628
DA:183,1046
DA:184,1046
DA:185,1046
DA:186,1046
DA:187,1046
DA:216,1046
DA:218,1046
DA:219,1046
DA:220,1046
DA:221,1046
DA:222,1046
DA:244,14124
DA:245,14124
DA:246,0
DA:247,0
DA:248,14124
DA:249,14124
DA:252,20114
DA:253,20114
DA:254,0
DA:255,0
DA:256,20114
DA:257,20114
DA:287,0
DA:288,0
DA:291,13521
DA:292,13521
DA:293,13521
DA:294,13521
DA:295,0
DA:296,0
DA:299,4377
DA:300,4377
DA:303,151
DA:304,151
DA:307,151
DA:309,151
DA:310,151
DA:322,20
DA:324,20
DA:325,20
DA:327,0
DA:329,0
DA:330,0
DA:332,20
DA:334,20
DA:335,20
DA:347,1515
DA:348,1515
DA:349,0
DA:350,0
DA:351,1515
DA:352,1515
DA:355,3012
DA:356,3012
DA:381,0
DA:382,0
DA:383,0
DA:384,0
DA:385,0
DA:386,0
DA:388,3912
DA:389,3912
DA:390,0
DA:391,0
DA:392,3912
DA:393,3912
DA:396,1826
DA:397,1826
DA:400,1117
DA:401,1117
DA:408,0
DA:410,0
DA:411,0
DA:415,0
DA:417,0
DA:418,0
DA:419,0
DA:423,148
DA:425,148
DA:426,148
DA:438,969
DA:439,969
DA:440,969
DA:441,969
DA:442,0
DA:443,0
DA:446,0
DA:447,0
DA:605,492
DA:606,492
DA:607,492
DA:608,492
DA:609,0
DA:610,0
DA:617,2972
DA:619,2972
DA:620,2972
DA:622,2972
DA:623,0
DA:625,0
DA:643,19192
DA:644,19192
DA:645,19192
DA:646,19192
DA:647,0
DA:648,0
DA:660,4798
DA:661,4798
DA:662,0
DA:663,0
DA:664,4798
DA:665,4798
DA:668,4798
DA:669,4798
DA:670,4798
DA:671,4798
DA:672,0
DA:673,0
DA:702,4798
DA:706,4798
DA:707,4798
DA:711,0
DA:714,0
DA:715,0
DA:717,4798
DA:718,2972
DA:722,2972
DA:723,2972
DA:727,0
DA:730,0
DA:731,0
DA:733,2972
DA:734,0
DA:738,0
DA:739,0
DA:743,0
DA:746,0
DA:747,0
DA:749,0
DA:750,0
DA:754,0
DA:755,0
DA:759,0
DA:762,0
DA:763,0
DA:765,0
DA:766,1826
DA:770,1826
DA:771,1826
DA:775,0
DA:778,0
DA:779,0
DA:781,1826
DA:785,4798
DA:787,4798
DA:788,4798
DA:789,4798
DA:791,2972
DA:793,2972
DA:794,2972
DA:795,2972
DA:797,0
DA:799,0
DA:800,0
DA:801,0
DA:803,0
DA:805,0
DA:806,0
DA:807,0
DA:809,1826
DA:811,1826
DA:812,1826
DA:813,1826
DA:817,4798
DA:819,4798
DA:821,4798
DA:822,4798
DA:824,4798
DA:826,4798
DA:827,0
DA:829,0
DA:831,0
DA:835,4798
DA:837,4798
DA:838,4798
DA:839,4798
DA:840,4798
DA:842,4798
DA:843,4798
DA:844,4798
DA:845,0
DA:847,0
DA:848,0
DA:849,0
DA:853,2972
DA:855,2972
DA:856,2972
DA:857,2972
DA:858,2972
DA:859,2972
DA:877,418
DA:881,418
DA:882,418
DA:883,418
DA:887,418
DA:888,418
DA:889,0
DA:893,0
DA:894,0
DA:896,628
DA:898,628
DA:899,628
DA:918,492
DA:919,492
DA:922,628
DA:923,628
DA:926,989
DA:927,989
DA:934,3086
DA:935,3086
DA:942,5377
DA:943,5377
DA:944,5377
DA:945,5377
DA:946,0
DA:947,0
DA:950,492
DA:953,492
DA:957,8308
DA:958,8308
DA:959,8308
DA:960,8308
DA:961,0
DA:962,0
DA:969,12251
DA:970,12251
DA:971,0
DA:972,0
DA:973,12251
DA:974,12251
DA:977,12251
DA:978,12251
DA:979,0
DA:980,0
DA:981,12251
DA:982,12251
DA:985,8243
DA:986,8243
DA:987,8243
DA:988,8243
DA:989,0
DA:990,0
DA:993,2972
DA:994,2972
DA:997,10489
DA:998,10489
DA:999,10489
DA:1000,10489
DA:1001,0
DA:1002,0
DA:1005,1398
DA:1006,1398
DA:1009,3774
DA:1010,3774
DA:1011,3774
DA:1012,3774
DA:1013,0
DA:1014,0
DA:1017,3774
DA:1018,3774
DA:1019,3774
DA:1020,3774
DA:1021,0
DA:1022,0
DA:1025,492
DA:1026,492
DA:1033,492
DA:1034,492
DA:1111,492
DA:1113,492
DA:1114,492
DA:1115,492
DA:1116,492
DA:1117,492
DA:1121,492
DA:1123,492
DA:1124,492
DA:1151,418
DA:1158,628
DA:1159,628
DA:1161,628
DA:1162,492
DA:1163,628
DA:1186,1046
DA:1187,1046
DA:1188,1046
DA:1189,1046
DA:1190,0
DA:1191,0
DA:1198,0
DA:1199,0
DA:1202,395
DA:1203,395
DA:1204,0
DA:1205,0
DA:1206,395
DA:1207,395
DA:1210,0
DA:1211,0
DA:1214,5143
DA:1215,5143
DA:1216,0
DA:1217,0
DA:1218,5143
DA:1219,5143
DA:1222,0
DA:1223,0
DA:1224,0
DA:1225,0
DA:1226,0
DA:1227,0
DA:1246,216
DA:1247,216
DA:1250,1647
DA:1251,1647
DA:1374,0
DA:1377,0
DA:1378,0
DA:1379,0
DA:1380,0
DA:1423,0
DA:1425,0
DA:1426,0
DA:1427,0
DA:1428,0
DA:1430,0
DA:1431,0
DA:1432,0
DA:1433,0
DA:1435,0
DA:1436,0
DA:1437,0
DA:1450,3012
DA:1451,3012
DA:1797,0
DA:1800,0
DA:1801,0
DA:1807,0
DA:1810,0
DA:1811,0
DA:2004,0
DA:2013,0
DA:2014,0
DA:2017,0
DA:2019,0
DA:2020,0
DA:2021,0
DA:2022,0
DA:2078,1890
DA:2082,1890
DA:2083,1890
DA:2087,1890
DA:2088,1094
DA:2089,1890
DA:2090,1890
DA:2092,2972
DA:2094,1082
DA:2095,1082
DA:2096,1082
DA:2097,1082
DA:2098,304
DA:2099,1082
DA:2100,1082
DA:2103,0
DA:2105,0
DA:2106,0
DA:2108,1890
DA:2114,10642
DA:2118,10642
DA:2120,4798
DA:2121,4798
DA:2122,4798
DA:2123,4798
DA:2125,5844
DA:2126,10642
DA:2130,10642
DA:2132,4798
DA:2133,4798
DA:2134,4798
DA:2135,4798
DA:2137,5844
DA:2138,0
DA:2142,0
DA:2144,0
DA:2145,0
DA:2146,0
DA:2147,0
DA:2149,0
DA:2155,13097
DA:2159,13097
DA:2160,9116
DA:2161,3445
DA:2163,5671
DA:2164,3981
DA:2166,13097
DA:2170,13097
DA:2171,9116
DA:2172,3445
DA:2174,5671
DA:2175,3981
DA:2177,0
DA:2181,0
DA:2182,0
DA:2183,0
DA:2185,0
DA:2186,0
DA:2209,0
DA:2213,0
DA:2214,0
DA:2215,0
DA:2217,0
DA:2218,0
DA:2243,0
DA:2246,0
DA:2247,0
DA:2248,0
DA:2250,0
DA:2251,0
DA:2252,0
DA:2253,0
DA:2256,0
DA:2257,0
DA:2258,0
DA:2259,0
DA:2260,0
DA:2262,0
DA:2266,0
DA:2338,350
DA:2342,350
DA:2343,350
DA:2344,350
DA:2345,350
DA:2347,0
DA:2348,0
DA:2349,0
DA:2351,350
DA:2352,350
DA:2354,350
DA:2355,350
DA:2357,0
DA:2359,0
DA:2360,0
DA:2361,0
DA:2363,350
DA:2367,350
DA:2368,350
DA:2369,350
DA:2370,350
DA:2372,0
DA:2373,0
DA:2374,0
DA:2376,350
DA:2377,350
DA:2379,350
DA:2380,350
DA:2382,0
DA:2384,0
DA:2385,0
DA:2386,0
DA:2388,0
DA:2392,0
DA:2393,0
DA:2394,0
DA:2395,0
DA:2397,0
DA:2398,0
DA:2399,0
DA:2401,0
DA:2402,0
DA:2404,0
DA:2405,0
DA:2407,0
DA:2409,0
DA:2410,0
DA:2411,0
DA:2442,0
DA:2450,0
DA:2451,0
DA:2453,0
DA:2455,0
DA:2456,0
DA:2458,0
DA:2461,0
DA:2490,1826
DA:2494,1826
DA:2498,1826
DA:2500,1647
DA:2501,1647
DA:2502,1297
DA:2504,350
DA:2506,179
DA:2509,179
DA:2510,179
DA:2511,159
DA:2512,20
DA:2514,20
DA:2515,12
DA:2517,8
DA:2520,0
DA:2522,0
DA:2525,0
DA:2526,0
DA:2527,0
DA:2528,0
DA:2530,0
DA:2531,0
DA:2533,0
DA:2536,0
DA:2540,0
DA:2657,1826
DA:2660,1659
DA:2661,3485
DA:2664,1826
DA:2665,1826
DA:2666,1826
DA:2667,1826
DA:2755,1826
DA:2758,1826
DA:2762,1826
DA:2764,1826
DA:2765,1826
DA:2767,0
DA:2768,0
DA:2770,0
DA:2772,0
DA:2773,0
DA:2776,0
DA:2779,0
DA:2783,0
DA:2785,0
DA:2786,0
DA:2788,0
DA:2789,0
DA:2791,0
DA:2793,0
DA:2794,0
DA:2797,1826
DA:2800,1826
DA:2804,1826
DA:2806,1826
DA:2807,1826
DA:2809,0
DA:2810,0
DA:2812,0
DA:2814,0
DA:2815,0
DA:2872,0
DA:2877,0
DA:2878,0
DA:2879,0
DA:2880,0
DA:2881,0
DA:2886,0
DA:2889,0
DA:2890,0
DA:2892,0
DA:2893,0
DA:2894,0
DA:2899,0
DA:2902,0
DA:2903,0
DA:2904,0
DA:2905,0
DA:2922,969
DA:2925,969
DA:2926,1938
DA:2927,969
DA:2928,2907
LF:593
LH:322
end_of_record
SF:/usr/include/c++/8/bits/stl_uninitialized.h
FN:76,_ZNSt20__uninitialized_copyILb0EE13__uninit_copyISt13move_iteratorIPN4Json12PathArgumentEES5_EET0_T_S8_S7_
FN:76,_ZNSt20__uninitialized_copyILb0EE13__uninit_copyISt13move_iteratorIPNSt7__cxx1112basic_stringIcSt11char_traitsIcESaIcEEEES9_EET0_T_SC_SB_
FN:76,_ZNSt20__uninitialized_copyILb0EE13__uninit_copyISt13move_iteratorIPN4Json6Reader15StructuredErrorEES6_EET0_T_S9_S8_
FN:76,_ZNSt20__uninitialized_copyILb0EE13__uninit_copyISt13move_iteratorIPN4Json9OurReader15StructuredErrorEES6_EET0_T_S9_S8_
FN:99,_ZNSt20__uninitialized_copyILb1EE13__uninit_copyISt13move_iteratorIPPKN4Json12PathArgumentEES7_EET0_T_SA_S9_
FN:115,_ZSt18uninitialized_copyISt13move_iteratorIPPKN4Json12PathArgumentEES5_ET0_T_S8_S7_
FN:115,_ZSt18uninitialized_copyISt13move_iteratorIPN4Json9OurReader15StructuredErrorEES4_ET0_T_S7_S6_
FN:115,_ZSt18uninitialized_copyISt13move_iteratorIPN4Json12PathArgumentEES3_ET0_T_S6_S5_
FN:115,_ZSt18uninitialized_copyISt13move_iteratorIPNSt7__cxx1112basic_stringIcSt11char_traitsIcESaIcEEEES7_ET0_T_SA_S9_
FN:115,_ZSt18uninitialized_copyISt13move_iteratorIPN4Json6Reader15StructuredErrorEES4_ET0_T_S7_S6_
FN:287,_ZSt22__uninitialized_copy_aISt13move_iteratorIPN4Json12PathArgumentEES3_S2_ET0_T_S6_S5_RSaIT1_E
FN:287,_ZSt22__uninitialized_copy_aISt13move_iteratorIPN4Json9OurReader15StructuredErrorEES4_S3_ET0_T_S7_S6_RSaIT1_E
FN:287,_ZSt22__uninitialized_copy_aISt13move_iteratorIPPKN4Json12PathArgumentEES5_S4_ET0_T_S8_S7_RSaIT1_E
FN:287,_ZSt22__uninitialized_copy_aISt13move_iteratorIPN4Json6Reader15StructuredErrorEES4_S3_ET0_T_S7_S6_RSaIT1_E
FN:287,_ZSt22__uninitialized_copy_aISt13move_iteratorIPNSt7__cxx1112basic_stringIcSt11char_traitsIcESaIcEEEES7_S6_ET0_T_SA_S9_RSaIT1_E
FN:305,_ZSt34__uninitialized_move_if_noexcept_aIPN4Json6Reader15StructuredErrorES3_SaIS2_EET0_T_S6_S5_RT1_
FN:305,_ZSt34__uninitialized_move_if_noexcept_aIPN4Json9OurReader15StructuredErrorES3_SaIS2_EET0_T_S6_S5_RT1_
FN:305,_ZSt34__uninitialized_move_if_noexcept_aIPN4Json12PathArgumentES2_SaIS1_EET0_T_S5_S4_RT1_
FN:305,_ZSt34__uninitialized_move_if_noexcept_aIPPKN4Json12PathArgumentES4_SaIS3_EET0_T_S7_S6_RT1_
FN:305,_ZSt34__uninitialized_move_if_noexcept_aIPNSt7__cxx1112basic_stringIcSt11char_traitsIcESaIcEEES6_SaIS5_EET0_T_S9_S8_RT1_
FN:486,_ZNSt25__uninitialized_default_1ILb0EE16__uninit_defaultISt15_Deque_iteratorIN4Json6Reader9ErrorInfoERS5_PS5_EEEvT_S9_
FN:486,_ZNSt25__uninitialized_default_1ILb0EE16__uninit_defaultISt15_Deque_iteratorIN4Json9OurReader9ErrorInfoERS5_PS5_EEEvT_S9_
FN:557,_ZSt23__uninitialized_defaultISt15_Deque_iteratorIN4Json9OurReader9ErrorInfoERS3_PS3_EEvT_S7_
FN:557,_ZSt23__uninitialized_defaultISt15_Deque_iteratorIN4Json6Reader9ErrorInfoERS3_PS3_EEvT_S7_
FN:612,_ZSt25__uninitialized_default_aISt15_Deque_iteratorIN4Json9OurReader9ErrorInfoERS3_PS3_ES3_EvT_S7_RSaIT0_E
FN:612,_ZSt25__uninitialized_default_aISt15_Deque_iteratorIN4Json6Reader9ErrorInfoERS3_PS3_ES3_EvT_S7_RSaIT0_E
FNDA:0,_ZNSt20__uninitialized_copyILb0EE13__uninit_copyISt13move_iteratorIPN4Json12PathArgumentEES5_EET0_T_S8_S7_
FNDA:0,_ZNSt20__uninitialized_copyILb0EE13__uninit_copyISt13move_iteratorIPN4Json9OurReader15StructuredErrorEES6_EET0_T_S9_S8_
FNDA:0,_ZNSt20__uninitialized_copyILb0EE13__uninit_copyISt13move_iteratorIPN4Json6Reader15StructuredErrorEES6_EET0_T_S9_S8_
FNDA:0,_ZNSt20__uninitialized_copyILb0EE13__uninit_copyISt13move_iteratorIPNSt7__cxx1112basic_stringIcSt11char_traitsIcESaIcEEEES9_EET0_T_SC_SB_
FNDA:0,_ZNSt20__uninitialized_copyILb1EE13__uninit_copyISt13move_iteratorIPPKN4Json12PathArgumentEES7_EET0_T_SA_S9_
FNDA:0,_ZSt18uninitialized_copyISt13move_iteratorIPN4Json12PathArgumentEES3_ET0_T_S6_S5_
FNDA:0,_ZSt18uninitialized_copyISt13move_iteratorIPN4Json9OurReader15StructuredErrorEES4_ET0_T_S7_S6_
FNDA:0,_ZSt18uninitialized_copyISt13move_iteratorIPN4Json6Reader15StructuredErrorEES4_ET0_T_S7_S6_
FNDA:0,_ZSt18uninitialized_copyISt13move_iteratorIPPKN4Json12PathArgumentEES5_ET0_T_S8_S7_
FNDA:0,_ZSt18uninitialized_copyISt13move_iteratorIPNSt7__cxx1112basic_stringIcSt11char_traitsIcESaIcEEEES7_ET0_T_SA_S9_
FNDA:0,_ZSt22__uninitialized_copy_aISt13move_iteratorIPN4Json12PathArgumentEES3_S2_ET0_T_S6_S5_RSaIT1_E
FNDA:0,_ZSt22__uninitialized_copy_aISt13move_iteratorIPN4Json9OurReader15StructuredErrorEES4_S3_ET0_T_S7_S6_RSaIT1_E
FNDA:0,_ZSt22__uninitialized_copy_aISt13move_iteratorIPN4Json6Reader15StructuredErrorEES4_S3_ET0_T_S7_S6_RSaIT1_E
FNDA:0,_ZSt22__uninitialized_copy_aISt13move_iteratorIPPKN4Json12PathArgumentEES5_S4_ET0_T_S8_S7_RSaIT1_E
FNDA:0,_ZSt22__uninitialized_copy_aISt13move_iteratorIPNSt7__cxx1112basic_stringIcSt11char_traitsIcESaIcEEEES7_S6_ET0_T_SA_S9_RSaIT1_E
FNDA:0,_ZSt34__uninitialized_move_if_noexcept_aIPPKN4Json12PathArgumentES4_SaIS3_EET0_T_S7_S6_RT1_
FNDA:0,_ZSt34__uninitialized_move_if_noexcept_aIPNSt7__cxx1112basic_stringIcSt11char_traitsIcESaIcEEES6_SaIS5_EET0_T_S9_S8_RT1_
FNDA:0,_ZSt34__uninitialized_move_if_noexcept_aIPN4Json12PathArgumentES2_SaIS1_EET0_T_S5_S4_RT1_
FNDA:0,_ZSt34__uninitialized_move_if_noexcept_aIPN4Json9OurReader15StructuredErrorES3_SaIS2_EET0_T_S6_S5_RT1_
FNDA:0,_ZSt34__uninitialized_move_if_noexcept_aIPN4Json6Reader15StructuredErrorES3_SaIS2_EET0_T_S6_S5_RT1_
FNDA:0,_ZNSt25__uninitialized_default_1ILb0EE16__uninit_defaultISt15_Deque_iteratorIN4Json9OurReader9ErrorInfoERS5_PS5_EEEvT_S9_
FNDA:0,_ZNSt25__uninitialized_default_1ILb0EE16__uninit_defaultISt15_Deque_iteratorIN4Json6Reader9ErrorInfoERS5_PS5_EEEvT_S9_
FNDA:0,_ZSt23__uninitialized_defaultISt15_Deque_iteratorIN4Json9OurReader9ErrorInfoERS3_PS3_EEvT_S7_
FNDA:0,_ZSt23__uninitialized_defaultISt15_Deque_iteratorIN4Json6Reader9ErrorInfoERS3_PS3_EEvT_S7_
FNDA:0,_ZSt25__uninitialized_default_aISt15_Deque_iteratorIN4Json9OurReader9ErrorInfoERS3_PS3_ES3_EvT_S7_RSaIT0_E
FNDA:0,_ZSt25__uninitialized_default_aISt15_Deque_iteratorIN4Json6Reader9ErrorInfoERS3_PS3_ES3_EvT_S7_RSaIT0_E
FNF:26
FNH:0
DA:76,0
DA:79,0
DA:82,0
DA:83,0
DA:84,0
DA:86,0
DA:88,0
DA:89,0
DA:92,0
DA:95,0
DA:98,0
DA:99,0
DA:100,0
DA:102,0
DA:104,0
DA:105,0
DA:108,0
DA:111,0
DA:114,0
DA:115,0
DA:116,0
DA:118,0
DA:120,0
DA:121,0
DA:124,0
DA:127,0
DA:130,0
DA:131,0
DA:132,0
DA:134,0
DA:136,0
DA:137,0
DA:140,0
DA:143,0
DA:146,0
DA:147,0
DA:148,0
DA:150,0
DA:152,0
DA:153,0
DA:163,0
DA:165,0
DA:179,0
DA:192,0
DA:198,0
DA:200,0
DA:213,0
DA:219,0
DA:221,0
DA:234,0
DA:240,0
DA:242,0
DA:255,0
DA:261,0
DA:263,0
DA:276,0
DA:282,0
DA:284,0
DA:297,0
DA:303,0
DA:456,0
DA:458,0
DA:459,0
DA:461,0
DA:462,0
DA:464,0
DA:465,0
DA:467,0
DA:468,0
DA:470,0
DA:471,0
DA:473,0
DA:489,0
DA:495,0
DA:496,0
DA:498,0
DA:504,0
DA:505,0
DA:507,0
DA:513,0
DA:514,0
DA:516,0
DA:522,0
DA:523,0
DA:525,0
DA:531,0
DA:532,0
DA:534,0
DA:540,0
DA:541,0
DA:715,0
DA:717,0
DA:720,0
DA:721,0
DA:728,0
DA:729,0
DA:731,0
DA:734,0
DA:735,0
DA:742,0
DA:743,0
DA:745,0
DA:748,0
DA:749,0
DA:756,0
DA:814,0
DA:820,0
DA:824,0
DA:825,0
DA:826,0
DA:832,0
DA:836,0
DA:837,0
DA:838,0
DA:844,0
DA:848,0
DA:849,0
DA:893,0
DA:896,0
DA:897,0
DA:900,0
DA:901,0
DA:904,0
LF:123
LH:0
end_of_record
SF:/usr/include/c++/8/bits/stl_vector.h
FN:95,_ZNSt12_Vector_baseIN4Json9OurReader15StructuredErrorESaIS2_EE12_Vector_implC2Ev
FN:95,_ZNSt12_Vector_baseIN4Json12PathArgumentESaIS1_EE12_Vector_implC2Ev
FN:95,_ZNSt12_Vector_baseIN4Json6Reader15StructuredErrorESaIS2_EE12_Vector_implC2Ev
FN:95,_ZNSt12_Vector_baseINSt7__cxx1112basic_stringIcSt11char_traitsIcESaIcEEESaIS5_EE12_Vector_implC2Ev
FN:95,_ZNSt12_Vector_baseIPKN4Json12PathArgumentESaIS3_EE12_Vector_implC2Ev
FN:104,_ZNSt12_Vector_baseINSt7__cxx1112basic_stringIcSt11char_traitsIcESaIcEEESaIS5_EE12_Vector_implC2EOS6_
FN:110,_ZNSt12_Vector_baseINSt7__cxx1112basic_stringIcSt11char_traitsIcESaIcEEESaIS5_EE12_Vector_impl12_M_swap_dataERS8_
FN:237,_ZNSt12_Vector_baseIPKN4Json12PathArgumentESaIS3_EE19_M_get_Tp_allocatorEv
FN:237,_ZNSt12_Vector_baseIN4Json9OurReader15StructuredErrorESaIS2_EE19_M_get_Tp_allocatorEv
FN:237,_ZNSt12_Vector_baseIN4Json6Reader15StructuredErrorESaIS2_EE19_M_get_Tp_allocatorEv
FN:237,_ZNSt12_Vector_baseINSt7__cxx1112basic_stringIcSt11char_traitsIcESaIcEEESaIS5_EE19_M_get_Tp_allocatorEv
FN:237,_ZNSt12_Vector_baseIN4Json12PathArgumentESaIS1_EE19_M_get_Tp_allocatorEv
FN:241,_ZNKSt12_Vector_baseIPKN4Json12PathArgumentESaIS3_EE19_M_get_Tp_allocatorEv
FN:241,_ZNKSt12_Vector_baseIN4Json9OurReader15StructuredErrorESaIS2_EE19_M_get_Tp_allocatorEv
FN:241,_ZNKSt12_Vector_baseIN4Json6Reader15StructuredErrorESaIS2_EE19_M_get_Tp_allocatorEv
FN:241,_ZNKSt12_Vector_baseINSt7__cxx1112basic_stringIcSt11char_traitsIcESaIcEEESaIS5_EE19_M_get_Tp_allocatorEv
FN:241,_ZNKSt12_Vector_baseIN4Json12PathArgumentESaIS1_EE19_M_get_Tp_allocatorEv
FN:248,_ZNSt12_Vector_baseINSt7__cxx1112basic_stringIcSt11char_traitsIcESaIcEEESaIS5_EEC2Ev
FN:248,_ZNSt12_Vector_baseIN4Json12PathArgumentESaIS1_EEC2Ev
FN:248,_ZNSt12_Vector_baseIN4Json6Reader15StructuredErrorESaIS2_EEC2Ev
FN:248,_ZNSt12_Vector_baseIN4Json9OurReader15StructuredErrorESaIS2_EEC2Ev
FN:248,_ZNSt12_Vector_baseIPKN4Json12PathArgumentESaIS3_EEC2Ev
FN:266,_ZNSt12_Vector_baseINSt7__cxx1112basic_stringIcSt11char_traitsIcESaIcEEESaIS5_EEC2EOS7_
FN:283,_ZNSt12_Vector_baseIN4Json9OurReader15StructuredErrorESaIS2_EED2Ev
FN:283,_ZNSt12_Vector_baseIN4Json12PathArgumentESaIS1_EED2Ev
FN:283,_ZNSt12_Vector_baseIN4Json6Reader15StructuredErrorESaIS2_EED2Ev
FN:283,_ZNSt12_Vector_baseINSt7__cxx1112basic_stringIcSt11char_traitsIcESaIcEEESaIS5_EED2Ev
FN:283,_ZNSt12_Vector_baseIPKN4Json12PathArgumentESaIS3_EED2Ev
FN:293,_ZNSt12_Vector_baseIN4Json12PathArgumentESaIS1_EE11_M_allocateEm
FN:293,_ZNSt12_Vector_baseIN4Json6Reader15StructuredErrorESaIS2_EE11_M_allocateEm
FN:293,_ZNSt12_Vector_baseIPKN4Json12PathArgumentESaIS3_EE11_M_allocateEm
FN:293,_ZNSt12_Vector_baseINSt7__cxx1112basic_stringIcSt11char_traitsIcESaIcEEESaIS5_EE11_M_allocateEm
FN:293,_ZNSt12_Vector_baseIN4Json9OurReader15StructuredErrorESaIS2_EE11_M_allocateEm
FN:300,_ZNSt12_Vector_baseINSt7__cxx1112basic_stringIcSt11char_traitsIcESaIcEEESaIS5_EE13_M_deallocateEPS5_m
FN:300,_ZNSt12_Vector_baseIN4Json9OurReader15StructuredErrorESaIS2_EE13_M_deallocateEPS2_m
FN:300,_ZNSt12_Vector_baseIN4Json12PathArgumentESaIS1_EE13_M_deallocateEPS1_m
FN:300,_ZNSt12_Vector_baseIN4Json6Reader15StructuredErrorESaIS2_EE13_M_deallocateEPS2_m
FN:300,_ZNSt12_Vector_baseIPKN4Json12PathArgumentESaIS3_EE13_M_deallocateEPS3_m
FN:391,_ZNSt6vectorINSt7__cxx1112basic_stringIcSt11char_traitsIcESaIcEEESaIS5_EEC2Ev
FN:391,_ZNSt6vectorIN4Json9OurReader15StructuredErrorESaIS2_EEC2Ev
FN:391,_ZNSt6vectorIPKN4Json12PathArgumentESaIS3_EEC2Ev
FN:391,_ZNSt6vectorIN4Json6Reader15StructuredErrorESaIS2_EEC2Ev
FN:391,_ZNSt6vectorIN4Json12PathArgumentESaIS1_EEC2Ev
FN:476,_ZNSt6vectorINSt7__cxx1112basic_stringIcSt11char_traitsIcESaIcEEESaIS5_EEC2EOS7_
FN:565,_ZNSt6vectorIN4Json12PathArgumentESaIS1_EED2Ev
FN:565,_ZNSt6vectorIN4Json9OurReader15StructuredErrorESaIS2_EED2Ev
FN:565,_ZNSt6vectorIPKN4Json12PathArgumentESaIS3_EED2Ev
FN:565,_ZNSt6vectorINSt7__cxx1112basic_stringIcSt11char_traitsIcESaIcEEESaIS5_EED2Ev
FN:565,_ZNSt6vectorIN4Json6Reader15StructuredErrorESaIS2_EED2Ev
FN:698,_ZNSt6vectorINSt7__cxx1112basic_stringIcSt11char_traitsIcESaIcEEESaIS5_EE5beginEv
FN:698,_ZNSt6vectorIN4Json12PathArgumentESaIS1_EE5beginEv
FN:698,_ZNSt6vectorIPKN4Json12PathArgumentESaIS3_EE5beginEv
FN:698,_ZNSt6vectorIN4Json9OurReader15StructuredErrorESaIS2_EE5beginEv
FN:698,_ZNSt6vectorIN4Json6Reader15StructuredErrorESaIS2_EE5beginEv
FN:707,_ZNKSt6vectorIPKN4Json12PathArgumentESaIS3_EE5beginEv
FN:707,_ZNKSt6vectorIN4Json12PathArgumentESaIS1_EE5beginEv
FN:707,_ZNKSt6vectorINSt7__cxx1112basic_stringIcSt11char_traitsIcESaIcEEESaIS5_EE5beginEv
FN:716,_ZNSt6vectorIN4Json6Reader15StructuredErrorESaIS2_EE3endEv
FN:716,_ZNSt6vectorIPKN4Json12PathArgumentESaIS3_EE3endEv
FN:716,_ZNSt6vectorINSt7__cxx1112basic_stringIcSt11char_traitsIcESaIcEEESaIS5_EE3endEv
FN:716,_ZNSt6vectorIN4Json9OurReader15StructuredErrorESaIS2_EE3endEv
FN:716,_ZNSt6vectorIN4Json12PathArgumentESaIS1_EE3endEv
FN:725,_ZNKSt6vectorIPKN4Json12PathArgumentESaIS3_EE3endEv
FN:725,_ZNKSt6vectorIN4Json12PathArgumentESaIS1_EE3endEv
FN:725,_ZNKSt6vectorINSt7__cxx1112basic_stringIcSt11char_traitsIcESaIcEEESaIS5_EE3endEv
FN:805,_ZNKSt6vectorIN4Json9OurReader15StructuredErrorESaIS2_EE4sizeEv
FN:805,_ZNKSt6vectorIPKN4Json12PathArgumentESaIS3_EE4sizeEv
FN:805,_ZNKSt6vectorIN4Json12PathArgumentESaIS1_EE4sizeEv
FN:805,_ZNKSt6vectorIN4Json6Reader15StructuredErrorESaIS2_EE4sizeEv
FN:805,_ZNKSt6vectorINSt7__cxx1112basic_stringIcSt11char_traitsIcESaIcEEESaIS5_EE4sizeEv
FN:810,_ZNKSt6vectorINSt7__cxx1112basic_stringIcSt11char_traitsIcESaIcEEESaIS5_EE8max_sizeEv
FN:810,_ZNKSt6vectorIPKN4Json12PathArgumentESaIS3_EE8max_sizeEv
FN:810,_ZNKSt6vectorIN4Json6Reader15StructuredErrorESaIS2_EE8max_sizeEv
FN:810,_ZNKSt6vectorIN4Json9OurReader15StructuredErrorESaIS2_EE8max_sizeEv
FN:810,_ZNKSt6vectorIN4Json12PathArgumentESaIS1_EE8max_sizeEv
FN:885,_ZNKSt6vectorIPKN4Json12PathArgumentESaIS3_EE8capacityEv
FN:885,_ZNKSt6vectorINSt7__cxx1112basic_stringIcSt11char_traitsIcESaIcEEESaIS5_EE8capacityEv
FN:894,_ZNKSt6vectorINSt7__cxx1112basic_stringIcSt11char_traitsIcESaIcEEESaIS5_EE5emptyEv
FN:930,_ZNSt6vectorINSt7__cxx1112basic_stringIcSt11char_traitsIcESaIcEEESaIS5_EEixEm
FN:1030,_ZNSt6vectorINSt7__cxx1112basic_stringIcSt11char_traitsIcESaIcEEESaIS5_EE4backEv
FN:1030,_ZNSt6vectorIPKN4Json12PathArgumentESaIS3_EE4backEv
FN:1030,_ZNSt6vectorIN4Json12PathArgumentESaIS1_EE4backEv
FN:1074,_ZNSt6vectorIN4Json12PathArgumentESaIS1_EE9push_backERKS1_
FN:1074,_ZNSt6vectorINSt7__cxx1112basic_stringIcSt11char_traitsIcESaIcEEESaIS5_EE9push_backERKS5_
FN:1074,_ZNSt6vectorIN4Json9OurReader15StructuredErrorESaIS2_EE9push_backERKS2_
FN:1074,_ZNSt6vectorIN4Json6Reader15StructuredErrorESaIS2_EE9push_backERKS2_
FN:1090,_ZNSt6vectorIN4Json12PathArgumentESaIS1_EE9push_backEOS1_
FN:1090,_ZNSt6vectorINSt7__cxx1112basic_stringIcSt11char_traitsIcESaIcEEESaIS5_EE9push_backEOS5_
FN:1090,_ZNSt6vectorIPKN4Json12PathArgumentESaIS3_EE9push_backEOS3_
FN:1385,_ZNSt6vectorINSt7__cxx1112basic_stringIcSt11char_traitsIcESaIcEEESaIS5_EE5clearEv
FN:1395,_ZNSt6vectorINSt7__cxx1112basic_stringIcSt11char_traitsIcESaIcEEESaIS5_EE20_M_allocate_and_copyISt13move_iteratorIPS5_EEESA_mT_SC_
FN:1395,_ZNSt6vectorIPKN4Json12PathArgumentESaIS3_EE20_M_allocate_and_copyISt13move_iteratorIPS3_EEES8_mT_SA_
FN:1640,_ZNKSt6vectorIPKN4Json12PathArgumentESaIS3_EE12_M_check_lenEmPKc
FN:1640,_ZNKSt6vectorIN4Json12PathArgumentESaIS1_EE12_M_check_lenEmPKc
FN:1640,_ZNKSt6vectorIN4Json9OurReader15StructuredErrorESaIS2_EE12_M_check_lenEmPKc
FN:1640,_ZNKSt6vectorIN4Json6Reader15StructuredErrorESaIS2_EE12_M_check_lenEmPKc
FN:1640,_ZNKSt6vectorINSt7__cxx1112basic_stringIcSt11char_traitsIcESaIcEEESaIS5_EE12_M_check_lenEmPKc
FN:1654,_ZNSt6vectorINSt7__cxx1112basic_stringIcSt11char_traitsIcESaIcEEESaIS5_EE15_M_erase_at_endEPS5_
FNDA:0,_ZNSt12_Vector_baseIPKN4Json12PathArgumentESaIS3_EE12_Vector_implC2Ev
FNDA:0,_ZNSt12_Vector_baseIN4Json12PathArgumentESaIS1_EE12_Vector_implC2Ev
FNDA:0,_ZNSt12_Vector_baseINSt7__cxx1112basic_stringIcSt11char_traitsIcESaIcEEESaIS5_EE12_Vector_implC2Ev
FNDA:0,_ZNSt12_Vector_baseIN4Json9OurReader15StructuredErrorESaIS2_EE12_Vector_implC2Ev
FNDA:0,_ZNSt12_Vector_baseIN4Json6Reader15StructuredErrorESaIS2_EE12_Vector_implC2Ev
FNDA:0,_ZNSt12_Vector_baseINSt7__cxx1112basic_stringIcSt11char_traitsIcESaIcEEESaIS5_EE12_Vector_implC2EOS6_
FNDA:0,_ZNSt12_Vector_baseINSt7__cxx1112basic_stringIcSt11char_traitsIcESaIcEEESaIS5_EE12_Vector_impl12_M_swap_dataERS8_
FNDA:0,_ZNSt12_Vector_baseIPKN4Json12PathArgumentESaIS3_EE19_M_get_Tp_allocatorEv
FNDA:0,_ZNSt12_Vector_baseIN4Json12PathArgumentESaIS1_EE19_M_get_Tp_allocatorEv
FNDA:0,_ZNSt12_Vector_baseINSt7__cxx1112basic_stringIcSt11char_traitsIcESaIcEEESaIS5_EE19_M_get_Tp_allocatorEv
FNDA:0,_ZNSt12_Vector_baseIN4Json9OurReader15StructuredErrorESaIS2_EE19_M_get_Tp_allocatorEv
FNDA:0,_ZNSt12_Vector_baseIN4Json6Reader15StructuredErrorESaIS2_EE19_M_get_Tp_allocatorEv
FNDA:0,_ZNKSt12_Vector_baseIN4Json12PathArgumentESaIS1_EE19_M_get_Tp_allocatorEv
FNDA:0,_ZNKSt12_Vector_baseIN4Json9OurReader15StructuredErrorESaIS2_EE19_M_get_Tp_allocatorEv
FNDA:0,_ZNKSt12_Vector_baseIN4Json6Reader15StructuredErrorESaIS2_EE19_M_get_Tp_allocatorEv
FNDA:0,_ZNKSt12_Vector_baseIPKN4Json12PathArgumentESaIS3_EE19_M_get_Tp_allocatorEv
FNDA:0,_ZNKSt12_Vector_baseINSt7__cxx1112basic_stringIcSt11char_traitsIcESaIcEEESaIS5_EE19_M_get_Tp_allocatorEv
FNDA:0,_ZNSt12_Vector_baseIPKN4Json12PathArgumentESaIS3_EEC2Ev
FNDA:0,_ZNSt12_Vector_baseIN4Json12PathArgumentESaIS1_EEC2Ev
FNDA:0,_ZNSt12_Vector_baseINSt7__cxx1112basic_stringIcSt11char_traitsIcESaIcEEESaIS5_EEC2Ev
FNDA:0,_ZNSt12_Vector_baseIN4Json9OurReader15StructuredErrorESaIS2_EEC2Ev
FNDA:0,_ZNSt12_Vector_baseIN4Json6Reader15StructuredErrorESaIS2_EEC2Ev
FNDA:0,_ZNSt12_Vector_baseINSt7__cxx1112basic_stringIcSt11char_traitsIcESaIcEEESaIS5_EEC2EOS7_
FNDA:0,_ZNSt12_Vector_baseIPKN4Json12PathArgumentESaIS3_EED2Ev
FNDA:0,_ZNSt12_Vector_baseIN4Json12PathArgumentESaIS1_EED2Ev
FNDA:0,_ZNSt12_Vector_baseINSt7__cxx1112basic_stringIcSt11char_traitsIcESaIcEEESaIS5_EED2Ev
FNDA:0,_ZNSt12_Vector_baseIN4Json9OurReader15StructuredErrorESaIS2_EED2Ev
FNDA:0,_ZNSt12_Vector_baseIN4Json6Reader15StructuredErrorESaIS2_EED2Ev
FNDA:0,_ZNSt12_Vector_baseIN4Json12PathArgumentESaIS1_EE11_M_allocateEm
FNDA:0,_ZNSt12_Vector_baseIPKN4Json12PathArgumentESaIS3_EE11_M_allocateEm
FNDA:0,_ZNSt12_Vector_baseINSt7__cxx1112basic_stringIcSt11char_traitsIcESaIcEEESaIS5_EE11_M_allocateEm
FNDA:0,_ZNSt12_Vector_baseIN4Json9OurReader15StructuredErrorESaIS2_EE11_M_allocateEm
FNDA:0,_ZNSt12_Vector_baseIN4Json6Reader15StructuredErrorESaIS2_EE11_M_allocateEm
FNDA:0,_ZNSt12_Vector_baseIN4Json12PathArgumentESaIS1_EE13_M_deallocateEPS1_m
FNDA:0,_ZNSt12_Vector_baseIN4Json9OurReader15StructuredErrorESaIS2_EE13_M_deallocateEPS2_m
FNDA:0,_ZNSt12_Vector_baseIN4Json6Reader15StructuredErrorESaIS2_EE13_M_deallocateEPS2_m
FNDA:0,_ZNSt12_Vector_baseIPKN4Json12PathArgumentESaIS3_EE13_M_deallocateEPS3_m
FNDA:0,_ZNSt12_Vector_baseINSt7__cxx1112basic_stringIcSt11char_traitsIcESaIcEEESaIS5_EE13_M_deallocateEPS5_m
FNDA:0,_ZNSt6vectorIPKN4Json12PathArgumentESaIS3_EEC2Ev
FNDA:0,_ZNSt6vectorIN4Json12PathArgumentESaIS1_EEC2Ev
FNDA:0,_ZNSt6vectorINSt7__cxx1112basic_stringIcSt11char_traitsIcESaIcEEESaIS5_EEC2Ev
FNDA:0,_ZNSt6vectorIN4Json9OurReader15StructuredErrorESaIS2_EEC2Ev
FNDA:0,_ZNSt6vectorIN4Json6Reader15StructuredErrorESaIS2_EEC2Ev
FNDA:0,_ZNSt6vectorINSt7__cxx1112basic_stringIcSt11char_traitsIcESaIcEEESaIS5_EEC2EOS7_
FNDA:0,_ZNSt6vectorIPKN4Json12PathArgumentESaIS3_EED2Ev
FNDA:0,_ZNSt6vectorIN4Json12PathArgumentESaIS1_EED2Ev
FNDA:0,_ZNSt6vectorINSt7__cxx1112basic_stringIcSt11char_traitsIcESaIcEEESaIS5_EED2Ev
FNDA:0,_ZNSt6vectorIN4Json9OurReader15StructuredErrorESaIS2_EED2Ev
FNDA:0,_ZNSt6vectorIN4Json6Reader15StructuredErrorESaIS2_EED2Ev
FNDA:0,_ZNSt6vectorIPKN4Json12PathArgumentESaIS3_EE5beginEv
FNDA:0,_ZNSt6vectorIN4Json12PathArgumentESaIS1_EE5beginEv
FNDA:0,_ZNSt6vectorIN4Json9OurReader15StructuredErrorESaIS2_EE5beginEv
FNDA:0,_ZNSt6vectorIN4Json6Reader15StructuredErrorESaIS2_EE5beginEv
FNDA:0,_ZNSt6vectorINSt7__cxx1112basic_stringIcSt11char_traitsIcESaIcEEESaIS5_EE5beginEv
FNDA:0,_ZNKSt6vectorINSt7__cxx1112basic_stringIcSt11char_traitsIcESaIcEEESaIS5_EE5beginEv
FNDA:0,_ZNKSt6vectorIN4Json12PathArgumentESaIS1_EE5beginEv
FNDA:0,_ZNKSt6vectorIPKN4Json12PathArgumentESaIS3_EE5beginEv
FNDA:0,_ZNSt6vectorIPKN4Json12PathArgumentESaIS3_EE3endEv
FNDA:0,_ZNSt6vectorIN4Json12PathArgumentESaIS1_EE3endEv
FNDA:0,_ZNSt6vectorIN4Json9OurReader15StructuredErrorESaIS2_EE3endEv
FNDA:0,_ZNSt6vectorIN4Json6Reader15StructuredErrorESaIS2_EE3endEv
FNDA:0,_ZNSt6vectorINSt7__cxx1112basic_stringIcSt11char_traitsIcESaIcEEESaIS5_EE3endEv
FNDA:0,_ZNKSt6vectorINSt7__cxx1112basic_stringIcSt11char_traitsIcESaIcEEESaIS5_EE3endEv
FNDA:0,_ZNKSt6vectorIN4Json12PathArgumentESaIS1_EE3endEv
FNDA:0,_ZNKSt6vectorIPKN4Json12PathArgumentESaIS3_EE3endEv
FNDA:0,_ZNKSt6vectorIN4Json12PathArgumentESaIS1_EE4sizeEv
FNDA:0,_ZNKSt6vectorIN4Json9OurReader15StructuredErrorESaIS2_EE4sizeEv
FNDA:0,_ZNKSt6vectorIN4Json6Reader15StructuredErrorESaIS2_EE4sizeEv
FNDA:0,_ZNKSt6vectorIPKN4Json12PathArgumentESaIS3_EE4sizeEv
FNDA:0,_ZNKSt6vectorINSt7__cxx1112basic_stringIcSt11char_traitsIcESaIcEEESaIS5_EE4sizeEv
FNDA:0,_ZNKSt6vectorIN4Json12PathArgumentESaIS1_EE8max_sizeEv
FNDA:0,_ZNKSt6vectorIN4Json9OurReader15StructuredErrorESaIS2_EE8max_sizeEv
FNDA:0,_ZNKSt6vectorIN4Json6Reader15StructuredErrorESaIS2_EE8max_sizeEv
FNDA:0,_ZNKSt6vectorIPKN4Json12PathArgumentESaIS3_EE8max_sizeEv
FNDA:0,_ZNKSt6vectorINSt7__cxx1112basic_stringIcSt11char_traitsIcESaIcEEESaIS5_EE8max_sizeEv
FNDA:0,_ZNKSt6vectorIPKN4Json12PathArgumentESaIS3_EE8capacityEv
FNDA:0,_ZNKSt6vectorINSt7__cxx1112basic_stringIcSt11char_traitsIcESaIcEEESaIS5_EE8capacityEv
FNDA:0,_ZNKSt6vectorINSt7__cxx1112basic_stringIcSt11char_traitsIcESaIcEEESaIS5_EE5emptyEv
FNDA:0,_ZNSt6vectorINSt7__cxx1112basic_stringIcSt11char_traitsIcESaIcEEESaIS5_EEixEm
FNDA:0,_ZNSt6vectorIN4Json12PathArgumentESaIS1_EE4backEv
FNDA:0,_ZNSt6vectorIPKN4Json12PathArgumentESaIS3_EE4backEv
FNDA:0,_ZNSt6vectorINSt7__cxx1112basic_stringIcSt11char_traitsIcESaIcEEESaIS5_EE4backEv
FNDA:0,_ZNSt6vectorINSt7__cxx1112basic_stringIcSt11char_traitsIcESaIcEEESaIS5_EE9push_backERKS5_
FNDA:0,_ZNSt6vectorIN4Json12PathArgumentESaIS1_EE9push_backERKS1_
FNDA:0,_ZNSt6vectorIN4Json9OurReader15StructuredErrorESaIS2_EE9push_backERKS2_
FNDA:0,_ZNSt6vectorIN4Json6Reader15StructuredErrorESaIS2_EE9push_backERKS2_
FNDA:0,_ZNSt6vectorIN4Json12PathArgumentESaIS1_EE9push_backEOS1_
FNDA:0,_ZNSt6vectorIPKN4Json12PathArgumentESaIS3_EE9push_backEOS3_
FNDA:0,_ZNSt6vectorINSt7__cxx1112basic_stringIcSt11char_traitsIcESaIcEEESaIS5_EE9push_backEOS5_
FNDA:0,_ZNSt6vectorINSt7__cxx1112basic_stringIcSt11char_traitsIcESaIcEEESaIS5_EE5clearEv
FNDA:0,_ZNSt6vectorIPKN4Json12PathArgumentESaIS3_EE20_M_allocate_and_copyISt13move_iteratorIPS3_EEES8_mT_SA_
FNDA:0,_ZNSt6vectorINSt7__cxx1112basic_stringIcSt11char_traitsIcESaIcEEESaIS5_EE20_M_allocate_and_copyISt13move_iteratorIPS5_EEESA_mT_SC_
FNDA:0,_ZNKSt6vectorIPKN4Json12PathArgumentESaIS3_EE12_M_check_lenEmPKc
FNDA:0,_ZNKSt6vectorINSt7__cxx1112basic_stringIcSt11char_traitsIcESaIcEEESaIS5_EE12_M_check_lenEmPKc
FNDA:0,_ZNKSt6vectorIN4Json12PathArgumentESaIS1_EE12_M_check_lenEmPKc
FNDA:0,_ZNKSt6vectorIN4Json9OurReader15StructuredErrorESaIS2_EE12_M_check_lenEmPKc
FNDA:0,_ZNKSt6vectorIN4Json6Reader15StructuredErrorESaIS2_EE12_M_check_lenEmPKc
FNDA:0,_ZNSt6vectorINSt7__cxx1112basic_stringIcSt11char_traitsIcESaIcEEESaIS5_EE15_M_erase_at_endEPS5_
FNF:98
FNH:0
DA:95,0
DA:96,0
DA:97,0
DA:98,0
DA:99,0
DA:100,0
DA:101,0
DA:102,0
DA:103,0
DA:104,0
DA:105,0
DA:106,0
DA:107,0
DA:108,0
DA:109,0
DA:110,0
DA:111,0
DA:112,0
DA:119,0
DA:120,0
DA:121,0
DA:122,0
DA:125,0
DA:127,0
DA:128,0
DA:129,0
DA:130,0
DA:252,0
DA:253,0
DA:254,0
DA:255,0
DA:256,0
DA:257,0
DA:258,0
DA:259,0
DA:260,0
DA:261,0
DA:262,0
DA:263,0
DA:266,0
DA:267,0
DA:268,0
DA:269,0
DA:270,0
DA:271,0
DA:272,0
DA:273,0
DA:274,0
DA:275,0
DA:276,0
DA:277,0
DA:283,0
DA:284,0
DA:285,0
DA:286,0
DA:287,0
DA:288,0
DA:289,0
DA:290,0
DA:291,0
DA:292,0
DA:293,0
DA:294,0
DA:311,0
DA:312,0
DA:313,0
DA:328,0
DA:330,0
DA:331,0
DA:332,0
DA:333,0
DA:335,0
DA:336,0
DA:337,0
DA:338,0
DA:340,0
DA:341,0
DA:342,0
DA:343,0
DA:345,0
DA:346,0
DA:347,0
DA:348,0
DA:350,0
DA:351,0
DA:352,0
DA:353,0
DA:355,0
DA:356,0
DA:357,0
DA:363,0
DA:366,0
DA:368,0
DA:371,0
DA:373,0
DA:376,0
DA:378,0
DA:381,0
DA:383,0
DA:386,0
DA:388,0
DA:391,0
DA:395,0
DA:398,0
DA:399,0
DA:400,0
DA:401,0
DA:404,0
DA:405,0
DA:406,0
DA:407,0
DA:410,0
DA:411,0
DA:412,0
DA:413,0
DA:416,0
DA:417,0
DA:418,0
DA:419,0
DA:422,0
DA:423,0
DA:424,0
DA:425,0
DA:428,0
DA:429,0
DA:430,0
DA:516,0
DA:520,0
DA:521,0
DA:525,0
DA:526,0
DA:530,0
DA:531,0
DA:535,0
DA:536,0
DA:540,0
DA:541,0
DA:545,0
DA:626,0
DA:627,0
DA:715,0
DA:717,0
DA:718,0
DA:720,0
DA:721,0
DA:723,0
DA:724,0
DA:726,0
DA:727,0
DA:729,0
DA:730,0
DA:732,0
DA:733,0
DA:735,0
DA:736,0
DA:738,0
DA:739,0
DA:741,0
DA:742,0
DA:744,0
DA:745,0
DA:747,0
DA:748,0
DA:750,0
DA:878,0
DA:879,0
DA:880,0
DA:881,0
DA:882,0
DA:883,0
DA:884,0
DA:885,0
DA:886,0
DA:887,0
DA:888,0
DA:889,0
DA:897,0
DA:898,0
DA:899,0
DA:900,0
DA:901,0
DA:902,0
DA:903,0
DA:904,0
DA:912,0
DA:913,0
DA:914,0
DA:915,0
DA:916,0
DA:917,0
DA:918,0
DA:919,0
DA:920,0
DA:921,0
DA:922,0
DA:923,0
DA:931,0
DA:932,0
DA:933,0
DA:934,0
DA:935,0
DA:936,0
DA:937,0
DA:938,0
DA:1017,0
DA:1018,0
DA:1019,0
DA:1020,0
DA:1021,0
DA:1022,0
DA:1023,0
DA:1024,0
DA:1025,0
DA:1026,0
DA:1027,0
DA:1028,0
DA:1032,0
DA:1033,0
DA:1034,0
DA:1035,0
DA:1036,0
DA:1037,0
DA:1038,0
DA:1039,0
DA:1040,0
DA:1041,0
DA:1042,0
DA:1043,0
DA:1117,0
DA:1118,0
DA:1119,0
DA:1120,0
DA:1121,0
DA:1122,0
DA:1123,0
DA:1124,0
DA:1125,0
DA:1132,0
DA:1133,0
DA:1168,0
DA:1171,0
DA:1268,0
DA:1271,0
DA:1273,0
DA:1276,0
DA:1278,0
DA:1281,0
DA:1283,0
DA:1286,0
DA:1327,0
DA:1329,0
DA:1332,0
DA:1334,0
DA:1338,0
DA:1339,0
DA:1340,0
DA:1342,0
DA:1345,0
DA:1347,0
DA:1351,0
DA:1352,0
DA:1353,0
DA:1355,0
DA:1358,0
DA:1360,0
DA:1364,0
DA:1365,0
DA:1366,0
DA:1368,0
DA:1371,0
DA:1373,0
DA:1377,0
DA:1378,0
DA:1379,0
DA:1381,0
DA:1384,0
DA:1386,0
DA:1390,0
DA:1391,0
DA:1395,0
DA:1396,0
DA:1397,0
DA:1398,0
DA:1399,0
DA:1400,0
DA:1401,0
DA:1402,0
DA:1696,0
DA:1697,0
DA:1706,0
DA:1709,0
DA:1712,0
DA:1713,0
DA:1714,0
DA:1716,0
DA:1718,0
DA:1719,0
DA:1722,0
DA:1725,0
DA:1728,0
DA:1729,0
DA:1730,0
DA:1732,0
DA:1734,0
DA:1735,0
DA:1738,0
DA:1741,0
DA:1744,0
DA:1745,0
DA:1746,0
DA:1748,0
DA:1750,0
DA:1751,0
DA:1983,0
DA:1985,0
DA:1986,0
DA:1988,0
DA:1989,0
DA:1991,0
DA:1993,0
DA:1994,0
DA:1996,0
DA:1997,0
DA:1999,0
DA:2001,0
DA:2002,0
DA:2004,0
DA:2005,0
DA:2007,0
DA:2009,0
DA:2010,0
DA:2012,0
DA:2013,0
DA:2015,0
DA:2017,0
DA:2018,0
DA:2020,0
DA:2021,0
DA:2023,0
DA:2025,0
DA:2026,0
DA:2028,0
DA:2029,0
DA:2037,0
DA:2039,0
DA:2041,0
DA:2042,0
DA:2043,0
DA:2046,0
LF:349
LH:0
end_of_record
SF:/usr/include/c++/8/bits/unique_ptr.h
FN:75,_ZNKSt14default_deleteIN4Json12StreamWriterEEclEPS1_
FN:75,_ZNKSt14default_deleteIN4Json10CharReaderEEclEPS1_
FN:75,_ZNKSt14default_deleteISt5arrayINSt7__cxx1112basic_stringIcSt11char_traitsIcESaIcEEELm3EEEclEPS7_
FN:142,_ZNSt15__uniq_ptr_implISt5arrayINSt7__cxx1112basic_stringIcSt11char_traitsIcESaIcEEELm3EESt14default_deleteIS7_EEC2Ev
FN:143,_ZNSt15__uniq_ptr_implIN4Json12StreamWriterESt14default_deleteIS1_EEC2EPS1_
FN:143,_ZNSt15__uniq_ptr_implIN4Json10CharReaderESt14default_deleteIS1_EEC2EPS1_
FN:143,_ZNSt15__uniq_ptr_implISt5arrayINSt7__cxx1112basic_stringIcSt11char_traitsIcESaIcEEELm3EESt14default_deleteIS7_EEC2EPS7_
FN:146,_ZNSt15__uniq_ptr_implISt5arrayINSt7__cxx1112basic_stringIcSt11char_traitsIcESaIcEEELm3EESt14default_deleteIS7_EEC2IS9_EEPS7_OT_
FN:149,_ZNSt15__uniq_ptr_implISt5arrayINSt7__cxx1112basic_stringIcSt11char_traitsIcESaIcEEELm3EESt14default_deleteIS7_EE6_M_ptrEv
FN:149,_ZNSt15__uniq_ptr_implIN4Json10CharReaderESt14default_deleteIS1_EE6_M_ptrEv
FN:149,_ZNSt15__uniq_ptr_implIN4Json12StreamWriterESt14default_deleteIS1_EE6_M_ptrEv
FN:150,_ZNKSt15__uniq_ptr_implIN4Json12StreamWriterESt14default_deleteIS1_EE6_M_ptrEv
FN:150,_ZNKSt15__uniq_ptr_implIN4Json10CharReaderESt14default_deleteIS1_EE6_M_ptrEv
FN:150,_ZNKSt15__uniq_ptr_implISt5arrayINSt7__cxx1112basic_stringIcSt11char_traitsIcESaIcEEELm3EESt14default_deleteIS7_EE6_M_ptrEv
FN:151,_ZNSt15__uniq_ptr_implIN4Json10CharReaderESt14default_deleteIS1_EE10_M_deleterEv
FN:151,_ZNSt15__uniq_ptr_implISt5arrayINSt7__cxx1112basic_stringIcSt11char_traitsIcESaIcEEELm3EESt14default_deleteIS7_EE10_M_deleterEv
FN:151,_ZNSt15__uniq_ptr_implIN4Json12StreamWriterESt14default_deleteIS1_EE10_M_deleterEv
FN:191,_ZNSt10unique_ptrISt5arrayINSt7__cxx1112basic_stringIcSt11char_traitsIcESaIcEEELm3EESt14default_deleteIS7_EEC1IS9_vEEv
FN:204,_ZNSt10unique_ptrIN4Json12StreamWriterESt14default_deleteIS1_EEC2IS3_vEEPS1_
FN:204,_ZNSt10unique_ptrISt5arrayINSt7__cxx1112basic_stringIcSt11char_traitsIcESaIcEEELm3EESt14default_deleteIS7_EEC2IS9_vEEPS7_
FN:204,_ZNSt10unique_ptrIN4Json10CharReaderESt14default_deleteIS1_EEC2IS3_vEEPS1_
FN:241,_ZNSt10unique_ptrISt5arrayINSt7__cxx1112basic_stringIcSt11char_traitsIcESaIcEEELm3EESt14default_deleteIS7_EEC2EOSA_
FN:270,_ZNSt10unique_ptrIN4Json12StreamWriterESt14default_deleteIS1_EED2Ev
FN:270,_ZNSt10unique_ptrISt5arrayINSt7__cxx1112basic_stringIcSt11char_traitsIcESaIcEEELm3EESt14default_deleteIS7_EED2Ev
FN:270,_ZNSt10unique_ptrIN4Json10CharReaderESt14default_deleteIS1_EED2Ev
FN:287,_ZNSt10unique_ptrISt5arrayINSt7__cxx1112basic_stringIcSt11char_traitsIcESaIcEEELm3EESt14default_deleteIS7_EEaSEOSA_
FN:326,_ZNKSt10unique_ptrISt5arrayINSt7__cxx1112basic_stringIcSt11char_traitsIcESaIcEEELm3EESt14default_deleteIS7_EEdeEv
FN:334,_ZNKSt10unique_ptrIN4Json10CharReaderESt14default_deleteIS1_EEptEv
FN:334,_ZNKSt10unique_ptrIN4Json12StreamWriterESt14default_deleteIS1_EEptEv
FN:342,_ZNKSt10unique_ptrIN4Json12StreamWriterESt14default_deleteIS1_EE3getEv
FN:342,_ZNKSt10unique_ptrIN4Json10CharReaderESt14default_deleteIS1_EE3getEv
FN:342,_ZNKSt10unique_ptrISt5arrayINSt7__cxx1112basic_stringIcSt11char_traitsIcESaIcEEELm3EESt14default_deleteIS7_EE3getEv
FN:347,_ZNSt10unique_ptrIN4Json10CharReaderESt14default_deleteIS1_EE11get_deleterEv
FN:347,_ZNSt10unique_ptrISt5arrayINSt7__cxx1112basic_stringIcSt11char_traitsIcESaIcEEELm3EESt14default_deleteIS7_EE11get_deleterEv
FN:347,_ZNSt10unique_ptrIN4Json12StreamWriterESt14default_deleteIS1_EE11get_deleterEv
FN:356,_ZNKSt10unique_ptrISt5arrayINSt7__cxx1112basic_stringIcSt11char_traitsIcESaIcEEELm3EESt14default_deleteIS7_EEcvbEv
FN:363,_ZNSt10unique_ptrISt5arrayINSt7__cxx1112basic_stringIcSt11char_traitsIcESaIcEEELm3EESt14default_deleteIS7_EE7releaseEv
FN:377,_ZNSt10unique_ptrISt5arrayINSt7__cxx1112basic_stringIcSt11char_traitsIcESaIcEEELm3EESt14default_deleteIS7_EE5resetEPS7_
FNDA:0,_ZNKSt14default_deleteIN4Json12StreamWriterEEclEPS1_
FNDA:0,_ZNKSt14default_deleteISt5arrayINSt7__cxx1112basic_stringIcSt11char_traitsIcESaIcEEELm3EEEclEPS7_
FNDA:2,_ZNKSt14default_deleteIN4Json10CharReaderEEclEPS1_
FNDA:10550,_ZNSt15__uniq_ptr_implISt5arrayINSt7__cxx1112basic_stringIcSt11char_traitsIcESaIcEEELm3EESt14default_deleteIS7_EEC2Ev
FNDA:0,_ZNSt15__uniq_ptr_implIN4Json12StreamWriterESt14default_deleteIS1_EEC2EPS1_
FNDA:0,_ZNSt15__uniq_ptr_implISt5arrayINSt7__cxx1112basic_stringIcSt11char_traitsIcESaIcEEELm3EESt14default_deleteIS7_EEC2EPS7_
FNDA:2,_ZNSt15__uniq_ptr_implIN4Json10CharReaderESt14default_deleteIS1_EEC2EPS1_
FNDA:41,_ZNSt15__uniq_ptr_implISt5arrayINSt7__cxx1112basic_stringIcSt11char_traitsIcESaIcEEELm3EESt14default_deleteIS7_EEC2IS9_EEPS7_OT_
FNDA:0,_ZNSt15__uniq_ptr_implIN4Json12StreamWriterESt14default_deleteIS1_EE6_M_ptrEv
FNDA:35030,_ZNSt15__uniq_ptr_implISt5arrayINSt7__cxx1112basic_stringIcSt11char_traitsIcESaIcEEELm3EESt14default_deleteIS7_EE6_M_ptrEv
FNDA:4,_ZNSt15__uniq_ptr_implIN4Json10CharReaderESt14default_deleteIS1_EE6_M_ptrEv
FNDA:0,_ZNKSt15__uniq_ptr_implIN4Json12StreamWriterESt14default_deleteIS1_EE6_M_ptrEv
FNDA:15661,_ZNKSt15__uniq_ptr_implISt5arrayINSt7__cxx1112basic_stringIcSt11char_traitsIcESaIcEEELm3EESt14default_deleteIS7_EE6_M_ptrEv
FNDA:2,_ZNKSt15__uniq_ptr_implIN4Json10CharReaderESt14default_deleteIS1_EE6_M_ptrEv
FNDA:0,_ZNSt15__uniq_ptr_implIN4Json12StreamWriterESt14default_deleteIS1_EE10_M_deleterEv
FNDA:17597,_ZNSt15__uniq_ptr_implISt5arrayINSt7__cxx1112basic_stringIcSt11char_traitsIcESaIcEEELm3EESt14default_deleteIS7_EE10_M_deleterEv
FNDA:2,_ZNSt15__uniq_ptr_implIN4Json10CharReaderESt14default_deleteIS1_EE10_M_deleterEv
FNDA:10550,_ZNSt10unique_ptrISt5arrayINSt7__cxx1112basic_stringIcSt11char_traitsIcESaIcEEELm3EESt14default_deleteIS7_EEC1IS9_vEEv
FNDA:0,_ZNSt10unique_ptrIN4Json12StreamWriterESt14default_deleteIS1_EEC2IS3_vEEPS1_
FNDA:0,_ZNSt10unique_ptrISt5arrayINSt7__cxx1112basic_stringIcSt11char_traitsIcESaIcEEELm3EESt14default_deleteIS7_EEC2IS9_vEEPS7_
FNDA:2,_ZNSt10unique_ptrIN4Json10CharReaderESt14default_deleteIS1_EEC2IS3_vEEPS1_
FNDA:41,_ZNSt10unique_ptrISt5arrayINSt7__cxx1112basic_stringIcSt11char_traitsIcESaIcEEELm3EESt14default_deleteIS7_EEC2EOSA_
FNDA:0,_ZNSt10unique_ptrIN4Json12StreamWriterESt14default_deleteIS1_EED2Ev
FNDA:17433,_ZNSt10unique_ptrISt5arrayINSt7__cxx1112basic_stringIcSt11char_traitsIcESaIcEEELm3EESt14default_deleteIS7_EED2Ev
FNDA:2,_ZNSt10unique_ptrIN4Json10CharReaderESt14default_deleteIS1_EED2Ev
FNDA:8778,_ZNSt10unique_ptrISt5arrayINSt7__cxx1112basic_stringIcSt11char_traitsIcESaIcEEELm3EESt14default_deleteIS7_EEaSEOSA_
FNDA:0,_ZNKSt10unique_ptrISt5arrayINSt7__cxx1112basic_stringIcSt11char_traitsIcESaIcEEELm3EESt14default_deleteIS7_EEdeEv
FNDA:0,_ZNKSt10unique_ptrIN4Json12StreamWriterESt14default_deleteIS1_EEptEv
FNDA:2,_ZNKSt10unique_ptrIN4Json10CharReaderESt14default_deleteIS1_EEptEv
FNDA:0,_ZNKSt10unique_ptrIN4Json12StreamWriterESt14default_deleteIS1_EE3getEv
FNDA:15661,_ZNKSt10unique_ptrISt5arrayINSt7__cxx1112basic_stringIcSt11char_traitsIcESaIcEEELm3EESt14default_deleteIS7_EE3getEv
FNDA:2,_ZNKSt10unique_ptrIN4Json10CharReaderESt14default_deleteIS1_EE3getEv
FNDA:0,_ZNSt10unique_ptrIN4Json12StreamWriterESt14default_deleteIS1_EE11get_deleterEv
FNDA:17597,_ZNSt10unique_ptrISt5arrayINSt7__cxx1112basic_stringIcSt11char_traitsIcESaIcEEELm3EESt14default_deleteIS7_EE11get_deleterEv
FNDA:2,_ZNSt10unique_ptrIN4Json10CharReaderESt14default_deleteIS1_EE11get_deleterEv
FNDA:6842,_ZNKSt10unique_ptrISt5arrayINSt7__cxx1112basic_stringIcSt11char_traitsIcESaIcEEELm3EESt14default_deleteIS7_EEcvbEv
FNDA:8819,_ZNSt10unique_ptrISt5arrayINSt7__cxx1112basic_stringIcSt11char_traitsIcESaIcEEELm3EESt14default_deleteIS7_EE7releaseEv
FNDA:8778,_ZNSt10unique_ptrISt5arrayINSt7__cxx1112basic_stringIcSt11char_traitsIcESaIcEEELm3EESt14default_deleteIS7_EE5resetEPS7_
FNF:38
FNH:24
DA:75,2
DA:81,2
DA:82,2
DA:83,0
DA:89,0
DA:90,0
DA:91,0
DA:97,0
DA:98,0
DA:99,2
DA:105,2
DA:106,2
DA:166,10550
DA:167,2
DA:170,41
DA:171,41
DA:173,35034
DA:174,15663
DA:175,17599
DA:215,10550
DA:216,10550
DA:217,10550
DA:228,2
DA:229,2
DA:230,2
DA:231,0
DA:232,0
DA:233,0
DA:234,0
DA:235,0
DA:236,0
DA:237,2
DA:238,2
DA:239,2
DA:274,41
DA:275,41
DA:303,17435
DA:305,17435
DA:306,17435
DA:307,2
DA:308,17435
DA:309,17435
DA:310,0
DA:312,0
DA:313,0
DA:314,0
DA:315,0
DA:316,0
DA:317,17433
DA:319,17433
DA:320,17433
DA:321,0
DA:322,17433
DA:323,17433
DA:324,2
DA:326,2
DA:327,2
DA:328,2
DA:329,2
DA:330,2
DA:341,8778
DA:343,8778
DA:344,8778
DA:345,8778
DA:380,0
DA:383,0
DA:388,2
DA:391,2
DA:393,0
DA:396,0
DA:398,2
DA:401,2
DA:406,15663
DA:407,15663
DA:408,0
DA:409,0
DA:410,15661
DA:411,15661
DA:412,2
DA:413,2
DA:417,17599
DA:418,17599
DA:419,0
DA:420,0
DA:421,17597
DA:422,17597
DA:423,2
DA:424,2
DA:432,6842
DA:433,6842
DA:439,8819
DA:441,8819
DA:442,8819
DA:443,8819
DA:453,8778
DA:456,8778
DA:457,8778
DA:458,0
DA:459,8778
LF:99
LH:71
end_of_record
SF:/usr/include/c++/8/bits/vector.tcc
FN:66,_ZNSt6vectorIPKN4Json12PathArgumentESaIS3_EE7reserveEm
FN:66,_ZNSt6vectorINSt7__cxx1112basic_stringIcSt11char_traitsIcESaIcEEESaIS5_EE7reserveEm
FN:97,_ZNSt6vectorIPKN4Json12PathArgumentESaIS3_EE12emplace_backIJS3_EEERS3_DpOT_
FN:97,_ZNSt6vectorINSt7__cxx1112basic_stringIcSt11char_traitsIcESaIcEEESaIS5_EE12emplace_backIJS5_EEERS5_DpOT_
FN:97,_ZNSt6vectorIN4Json12PathArgumentESaIS1_EE12emplace_backIJS1_EEERS1_DpOT_
FN:413,_ZNSt6vectorIPKN4Json12PathArgumentESaIS3_EE17_M_realloc_insertIJS3_EEEvN9__gnu_cxx17__normal_iteratorIPS3_S5_EEDpOT_
FN:413,_ZNSt6vectorIN4Json12PathArgumentESaIS1_EE17_M_realloc_insertIJS1_EEEvN9__gnu_cxx17__normal_iteratorIPS1_S3_EEDpOT_
FN:413,_ZNSt6vectorIN4Json9OurReader15StructuredErrorESaIS2_EE17_M_realloc_insertIJRKS2_EEEvN9__gnu_cxx17__normal_iteratorIPS2_S4_EEDpOT_
FN:413,_ZNSt6vectorIN4Json12PathArgumentESaIS1_EE17_M_realloc_insertIJRKS1_EEEvN9__gnu_cxx17__normal_iteratorIPS1_S3_EEDpOT_
FN:413,_ZNSt6vectorINSt7__cxx1112basic_stringIcSt11char_traitsIcESaIcEEESaIS5_EE17_M_realloc_insertIJRKS5_EEEvN9__gnu_cxx17__normal_iteratorIPS5_S7_EEDpOT_
FN:413,_ZNSt6vectorINSt7__cxx1112basic_stringIcSt11char_traitsIcESaIcEEESaIS5_EE17_M_realloc_insertIJS5_EEEvN9__gnu_cxx17__normal_iteratorIPS5_S7_EEDpOT_
FN:413,_ZNSt6vectorIN4Json6Reader15StructuredErrorESaIS2_EE17_M_realloc_insertIJRKS2_EEEvN9__gnu_cxx17__normal_iteratorIPS2_S4_EEDpOT_
FNDA:0,_ZNSt6vectorIPKN4Json12PathArgumentESaIS3_EE7reserveEm
FNDA:0,_ZNSt6vectorINSt7__cxx1112basic_stringIcSt11char_traitsIcESaIcEEESaIS5_EE7reserveEm
FNDA:0,_ZNSt6vectorIN4Json12PathArgumentESaIS1_EE12emplace_backIJS1_EEERS1_DpOT_
FNDA:0,_ZNSt6vectorIPKN4Json12PathArgumentESaIS3_EE12emplace_backIJS3_EEERS3_DpOT_
FNDA:0,_ZNSt6vectorINSt7__cxx1112basic_stringIcSt11char_traitsIcESaIcEEESaIS5_EE12emplace_backIJS5_EEERS5_DpOT_
FNDA:0,_ZNSt6vectorIN4Json12PathArgumentESaIS1_EE17_M_realloc_insertIJS1_EEEvN9__gnu_cxx17__normal_iteratorIPS1_S3_EEDpOT_
FNDA:0,_ZNSt6vectorIPKN4Json12PathArgumentESaIS3_EE17_M_realloc_insertIJS3_EEEvN9__gnu_cxx17__normal_iteratorIPS3_S5_EEDpOT_
FNDA:0,_ZNSt6vectorINSt7__cxx1112basic_stringIcSt11char_traitsIcESaIcEEESaIS5_EE17_M_realloc_insertIJS5_EEEvN9__gnu_cxx17__normal_iteratorIPS5_S7_EEDpOT_
FNDA:0,_ZNSt6vectorINSt7__cxx1112basic_stringIcSt11char_traitsIcESaIcEEESaIS5_EE17_M_realloc_insertIJRKS5_EEEvN9__gnu_cxx17__normal_iteratorIPS5_S7_EEDpOT_
FNDA:0,_ZNSt6vectorIN4Json12PathArgumentESaIS1_EE17_M_realloc_insertIJRKS1_EEEvN9__gnu_cxx17__normal_iteratorIPS1_S3_EEDpOT_
FNDA:0,_ZNSt6vectorIN4Json9OurReader15StructuredErrorESaIS2_EE17_M_realloc_insertIJRKS2_EEEvN9__gnu_cxx17__normal_iteratorIPS2_S4_EEDpOT_
FNDA:0,_ZNSt6vectorIN4Json6Reader15StructuredErrorESaIS2_EE17_M_realloc_insertIJRKS2_EEEvN9__gnu_cxx17__normal_iteratorIPS2_S4_EEDpOT_
FNF:12
FNH:0
DA:66,0
DA:69,0
DA:70,0
DA:71,0
DA:73,0
DA:74,0
DA:78,0
DA:79,0
DA:80,0
DA:81,0
DA:82,0
DA:83,0
DA:84,0
DA:85,0
DA:87,0
DA:88,0
DA:91,0
DA:92,0
DA:93,0
DA:95,0
DA:96,0
DA:100,0
DA:101,0
DA:102,0
DA:103,0
DA:104,0
DA:105,0
DA:106,0
DA:107,0
DA:109,0
DA:110,0
DA:113,0
DA:114,0
DA:115,0
DA:117,0
DA:118,0
DA:122,0
DA:123,0
DA:124,0
DA:125,0
DA:126,0
DA:127,0
DA:128,0
DA:129,0
DA:131,0
DA:141,0
DA:144,0
DA:147,0
DA:149,0
DA:153,0
DA:155,0
DA:158,0
DA:161,0
DA:164,0
DA:166,0
DA:170,0
DA:172,0
DA:175,0
DA:178,0
DA:181,0
DA:183,0
DA:187,0
DA:189,0
DA:192,0
DA:195,0
DA:198,0
DA:200,0
DA:204,0
DA:206,0
DA:508,0
DA:517,0
DA:519,0
DA:520,0
DA:521,0
DA:522,0
DA:523,0
DA:531,0
DA:532,0
DA:538,0
DA:542,0
DA:543,0
DA:545,0
DA:549,0
DA:550,0
DA:552,0
DA:554,0
DA:555,0
DA:556,0
DA:558,0
DA:559,0
DA:560,0
DA:563,0
DA:564,0
DA:565,0
DA:566,0
DA:567,0
DA:568,0
DA:569,0
DA:570,0
DA:579,0
DA:581,0
DA:582,0
DA:583,0
DA:584,0
DA:585,0
DA:593,0
DA:594,0
DA:600,0
DA:604,0
DA:605,0
DA:607,0
DA:611,0
DA:612,0
DA:614,0
DA:616,0
DA:617,0
DA:618,0
DA:620,0
DA:621,0
DA:622,0
DA:625,0
DA:626,0
DA:627,0
DA:628,0
DA:629,0
DA:630,0
DA:631,0
DA:632,0
DA:641,0
DA:643,0
DA:644,0
DA:645,0
DA:646,0
DA:647,0
DA:655,0
DA:656,0
DA:662,0
DA:666,0
DA:667,0
DA:669,0
DA:673,0
DA:674,0
DA:676,0
DA:678,0
DA:679,0
DA:680,0
DA:682,0
DA:683,0
DA:684,0
DA:687,0
DA:688,0
DA:689,0
DA:690,0
DA:691,0
DA:692,0
DA:693,0
DA:694,0
DA:703,0
DA:705,0
DA:706,0
DA:707,0
DA:708,0
DA:709,0
DA:717,0
DA:718,0
DA:724,0
DA:728,0
DA:729,0
DA:731,0
DA:735,0
DA:736,0
DA:738,0
DA:740,0
DA:741,0
DA:742,0
DA:744,0
DA:745,0
DA:746,0
DA:749,0
DA:750,0
DA:751,0
DA:752,0
DA:753,0
DA:754,0
DA:755,0
DA:756,0
DA:765,0
DA:767,0
DA:768,0
DA:769,0
DA:770,0
DA:771,0
DA:779,0
DA:780,0
DA:786,0
DA:790,0
DA:791,0
DA:793,0
DA:797,0
DA:798,0
DA:800,0
DA:802,0
DA:803,0
DA:804,0
DA:806,0
DA:807,0
DA:808,0
DA:811,0
DA:812,0
DA:813,0
DA:814,0
DA:815,0
DA:816,0
DA:817,0
DA:818,0
DA:827,0
DA:829,0
DA:830,0
DA:831,0
DA:832,0
DA:833,0
DA:841,0
DA:842,0
DA:848,0
DA:852,0
DA:853,0
DA:855,0
DA:859,0
DA:860,0
DA:862,0
DA:864,0
DA:865,0
DA:866,0
DA:868,0
DA:869,0
DA:870,0
DA:873,0
DA:874,0
DA:875,0
DA:876,0
DA:877,0
DA:878,0
DA:879,0
DA:880,0
DA:889,0
DA:891,0
DA:892,0
DA:893,0
DA:894,0
DA:895,0
DA:903,0
DA:904,0
DA:910,0
DA:914,0
DA:915,0
DA:917,0
DA:921,0
DA:922,0
DA:924,0
DA:926,0
DA:927,0
DA:928,0
DA:930,0
DA:931,0
DA:932,0
DA:935,0
DA:936,0
DA:937,0
DA:938,0
DA:939,0
DA:940,0
DA:941,0
DA:942,0
DA:951,0
DA:953,0
DA:954,0
DA:955,0
DA:956,0
DA:957,0
DA:965,0
DA:966,0
DA:972,0
DA:976,0
DA:977,0
DA:979,0
DA:983,0
DA:984,0
DA:986,0
DA:988,0
DA:989,0
DA:990,0
DA:992,0
DA:993,0
DA:994,0
DA:997,0
DA:998,0
DA:999,0
DA:1000,0
DA:1001,0
DA:1002,0
DA:1003,0
LF:301
LH:0
end_of_record
SF:/usr/include/c++/8/cmath
FN:542,_ZSt10fpclassifyd
FN:566,_ZSt8isfinited
FN:619,_ZSt5isnand
FNDA:0,_ZSt10fpclassifyd
FNDA:0,_ZSt8isfinited
FNDA:0,_ZSt5isnand
FNF:3
FNH:0
DA:542,0
DA:543,0
DA:544,0
DA:566,0
DA:567,0
DA:619,0
DA:620,0
LF:7
LH:0
end_of_record
SF:/usr/include/c++/8/ext/aligned_buffer.h
FN:64,_ZN9__gnu_cxx16__aligned_membufISt4pairIKN4Json5Value8CZStringES3_EE7_M_addrEv
FN:64,_ZN9__gnu_cxx16__aligned_membufINSt7__cxx1112basic_stringIcSt11char_traitsIcESaIcEEEE7_M_addrEv
FN:68,_ZNK9__gnu_cxx16__aligned_membufISt4pairIKN4Json5Value8CZStringES3_EE7_M_addrEv
FN:68,_ZNK9__gnu_cxx16__aligned_membufINSt7__cxx1112basic_stringIcSt11char_traitsIcESaIcEEEE7_M_addrEv
FN:72,_ZN9__gnu_cxx16__aligned_membufISt4pairIKN4Json5Value8CZStringES3_EE6_M_ptrEv
FN:72,_ZN9__gnu_cxx16__aligned_membufINSt7__cxx1112basic_stringIcSt11char_traitsIcESaIcEEEE6_M_ptrEv
FN:76,_ZNK9__gnu_cxx16__aligned_membufINSt7__cxx1112basic_stringIcSt11char_traitsIcESaIcEEEE6_M_ptrEv
FN:76,_ZNK9__gnu_cxx16__aligned_membufISt4pairIKN4Json5Value8CZStringES3_EE6_M_ptrEv
FNDA:0,_ZN9__gnu_cxx16__aligned_membufINSt7__cxx1112basic_stringIcSt11char_traitsIcESaIcEEEE7_M_addrEv
FNDA:14124,_ZN9__gnu_cxx16__aligned_membufISt4pairIKN4Json5Value8CZStringES3_EE7_M_addrEv
FNDA:0,_ZNK9__gnu_cxx16__aligned_membufINSt7__cxx1112basic_stringIcSt11char_traitsIcESaIcEEEE7_M_addrEv
FNDA:20114,_ZNK9__gnu_cxx16__aligned_membufISt4pairIKN4Json5Value8CZStringES3_EE7_M_addrEv
FNDA:0,_ZN9__gnu_cxx16__aligned_membufINSt7__cxx1112basic_stringIcSt11char_traitsIcESaIcEEEE6_M_ptrEv
FNDA:14124,_ZN9__gnu_cxx16__aligned_membufISt4pairIKN4Json5Value8CZStringES3_EE6_M_ptrEv
FNDA:0,_ZNK9__gnu_cxx16__aligned_membufINSt7__cxx1112basic_stringIcSt11char_traitsIcESaIcEEEE6_M_ptrEv
FNDA:20114,_ZNK9__gnu_cxx16__aligned_membufISt4pairIKN4Json5Value8CZStringES3_EE6_M_ptrEv
FNF:8
FNH:4
DA:64,14124
DA:65,14124
DA:66,0
DA:67,0
DA:68,14124
DA:69,14124
DA:72,20114
DA:73,20114
DA:74,0
DA:75,0
DA:76,20114
DA:77,20114
DA:80,14124
DA:81,14124
DA:82,0
DA:83,0
DA:84,14124
DA:85,14124
DA:88,20114
DA:89,20114
DA:90,0
DA:91,0
DA:92,20114
DA:93,20114
LF:24
LH:16
end_of_record
SF:/usr/include/c++/8/ext/alloc_traits.h
FN:94,_ZN9__gnu_cxx14__alloc_traitsISaIcEcE17_S_select_on_copyERKS1_
FN:94,_ZN9__gnu_cxx14__alloc_traitsISaISt13_Rb_tree_nodeISt4pairIKN4Json5Value8CZStringES4_EEES8_E17_S_select_on_copyERKS9_
FN:100,_ZN9__gnu_cxx14__alloc_traitsISaIcEcE27_S_propagate_on_copy_assignEv
FN:103,_ZN9__gnu_cxx14__alloc_traitsISaIcEcE27_S_propagate_on_move_assignEv
FN:109,_ZN9__gnu_cxx14__alloc_traitsISaIcEcE15_S_always_equalEv
FNDA:628,_ZN9__gnu_cxx14__alloc_traitsISaISt13_Rb_tree_nodeISt4pairIKN4Json5Value8CZStringES4_EEES8_E17_S_select_on_copyERKS9_
FNDA:0,_ZN9__gnu_cxx14__alloc_traitsISaIcEcE17_S_select_on_copyERKS1_
FNDA:0,_ZN9__gnu_cxx14__alloc_traitsISaIcEcE27_S_propagate_on_copy_assignEv
FNDA:0,_ZN9__gnu_cxx14__alloc_traitsISaIcEcE27_S_propagate_on_move_assignEv
FNDA:0,_ZN9__gnu_cxx14__alloc_traitsISaIcEcE15_S_always_equalEv
FNF:5
FNH:1
DA:94,628
DA:95,628
DA:96,628
DA:97,628
DA:98,0
DA:99,0
DA:104,0
DA:105,0
DA:107,0
DA:108,0
DA:113,0
DA:114,0
LF:12
LH:4
end_of_record
SF:/usr/include/c++/8/ext/new_allocator.h
FN:79,_ZN9__gnu_cxx13new_allocatorIN4Json12PathArgumentEEC2Ev
FN:79,_ZN9__gnu_cxx13new_allocatorIPPN4Json5ValueEEC2Ev
FN:79,_ZN9__gnu_cxx13new_allocatorIcEC2Ev
FN:79,_ZN9__gnu_cxx13new_allocatorIN4Json6Reader15StructuredErrorEEC2Ev
FN:79,_ZN9__gnu_cxx13new_allocatorIPKN4Json12PathArgumentEEC2Ev
FN:79,_ZN9__gnu_cxx13new_allocatorIPN4Json6Reader9ErrorInfoEEC2Ev
FN:79,_ZN9__gnu_cxx13new_allocatorIN4Json9OurReader9ErrorInfoEEC2Ev
FN:79,_ZN9__gnu_cxx13new_allocatorIPN4Json9OurReader9ErrorInfoEEC2Ev
FN:79,_ZN9__gnu_cxx13new_allocatorISt13_Rb_tree_nodeISt4pairIKN4Json5Value8CZStringES4_EEEC2Ev
FN:79,_ZN9__gnu_cxx13new_allocatorISt13_Rb_tree_nodeINSt7__cxx1112basic_stringIcSt11char_traitsIcESaIcEEEEEC2Ev
FN:79,_ZN9__gnu_cxx13new_allocatorIPN4Json5ValueEEC2Ev
FN:79,_ZN9__gnu_cxx13new_allocatorIN4Json6Reader9ErrorInfoEEC2Ev
FN:79,_ZN9__gnu_cxx13new_allocatorIN4Json9OurReader15StructuredErrorEEC2Ev
FN:79,_ZN9__gnu_cxx13new_allocatorINSt7__cxx1112basic_stringIcSt11char_traitsIcESaIcEEEEC2Ev
FN:81,_ZN9__gnu_cxx13new_allocatorINSt7__cxx1112basic_stringIcSt11char_traitsIcESaIcEEEEC2ERKS7_
FN:81,_ZN9__gnu_cxx13new_allocatorISt13_Rb_tree_nodeISt4pairIKN4Json5Value8CZStringES4_EEEC2ERKS9_
FN:81,_ZN9__gnu_cxx13new_allocatorIcEC2ERKS1_
FN:86,_ZN9__gnu_cxx13new_allocatorIN4Json9OurReader9ErrorInfoEED2Ev
FN:86,_ZN9__gnu_cxx13new_allocatorINSt7__cxx1112basic_stringIcSt11char_traitsIcESaIcEEEED2Ev
FN:86,_ZN9__gnu_cxx13new_allocatorISt13_Rb_tree_nodeINSt7__cxx1112basic_stringIcSt11char_traitsIcESaIcEEEEED2Ev
FN:86,_ZN9__gnu_cxx13new_allocatorIPKN4Json12PathArgumentEED2Ev
FN:86,_ZN9__gnu_cxx13new_allocatorIcED2Ev
FN:86,_ZN9__gnu_cxx13new_allocatorIN4Json6Reader15StructuredErrorEED2Ev
FN:86,_ZN9__gnu_cxx13new_allocatorIN4Json12PathArgumentEED2Ev
FN:86,_ZN9__gnu_cxx13new_allocatorIPN4Json6Reader9ErrorInfoEED2Ev
FN:86,_ZN9__gnu_cxx13new_allocatorIPN4Json5ValueEED2Ev
FN:86,_ZN9__gnu_cxx13new_allocatorISt13_Rb_tree_nodeISt4pairIKN4Json5Value8CZStringES4_EEED2Ev
FN:86,_ZN9__gnu_cxx13new_allocatorIN4Json9OurReader15StructuredErrorEED2Ev
FN:86,_ZN9__gnu_cxx13new_allocatorIPN4Json9OurReader9ErrorInfoEED2Ev
FN:86,_ZN9__gnu_cxx13new_allocatorIPPN4Json5ValueEED2Ev
FN:86,_ZN9__gnu_cxx13new_allocatorIN4Json6Reader9ErrorInfoEED2Ev
FN:99,_ZN9__gnu_cxx13new_allocatorIPN4Json9OurReader9ErrorInfoEE8allocateEmPKv
FN:99,_ZN9__gnu_cxx13new_allocatorIN4Json6Reader9ErrorInfoEE8allocateEmPKv
FN:99,_ZN9__gnu_cxx13new_allocatorISt13_Rb_tree_nodeINSt7__cxx1112basic_stringIcSt11char_traitsIcESaIcEEEEE8allocateEmPKv
FN:99,_ZN9__gnu_cxx13new_allocatorIcE8allocateEmPKv
FN:99,_ZN9__gnu_cxx13new_allocatorIPN4Json6Reader9ErrorInfoEE8allocateEmPKv
FN:99,_ZN9__gnu_cxx13new_allocatorINSt7__cxx1112basic_stringIcSt11char_traitsIcESaIcEEEE8allocateEmPKv
FN:99,_ZN9__gnu_cxx13new_allocatorIPKN4Json12PathArgumentEE8allocateEmPKv
FN:99,_ZN9__gnu_cxx13new_allocatorISt13_Rb_tree_nodeISt4pairIKN4Json5Value8CZStringES4_EEE8allocateEmPKv
FN:99,_ZN9__gnu_cxx13new_allocatorIPN4Json5ValueEE8allocateEmPKv
FN:99,_ZN9__gnu_cxx13new_allocatorIN4Json9OurReader15StructuredErrorEE8allocateEmPKv
FN:99,_ZN9__gnu_cxx13new_allocatorIPPN4Json5ValueEE8allocateEmPKv
FN:99,_ZN9__gnu_cxx13new_allocatorIN4Json12PathArgumentEE8allocateEmPKv
FN:99,_ZN9__gnu_cxx13new_allocatorIN4Json6Reader15StructuredErrorEE8allocateEmPKv
FN:99,_ZN9__gnu_cxx13new_allocatorIN4Json9OurReader9ErrorInfoEE8allocateEmPKv
FN:116,_ZN9__gnu_cxx13new_allocatorIPN4Json9OurReader9ErrorInfoEE10deallocateEPS4_m
FN:116,_ZN9__gnu_cxx13new_allocatorIPN4Json6Reader9ErrorInfoEE10deallocateEPS4_m
FN:116,_ZN9__gnu_cxx13new_allocatorIPPN4Json5ValueEE10deallocateEPS4_m
FN:116,_ZN9__gnu_cxx13new_allocatorIPKN4Json12PathArgumentEE10deallocateEPS4_m
FN:116,_ZN9__gnu_cxx13new_allocatorINSt7__cxx1112basic_stringIcSt11char_traitsIcESaIcEEEE10deallocateEPS6_m
FN:116,_ZN9__gnu_cxx13new_allocatorISt13_Rb_tree_nodeINSt7__cxx1112basic_stringIcSt11char_traitsIcESaIcEEEEE10deallocateEPS8_m
FN:116,_ZN9__gnu_cxx13new_allocatorIN4Json9OurReader15StructuredErrorEE10deallocateEPS3_m
FN:116,_ZN9__gnu_cxx13new_allocatorIN4Json6Reader9ErrorInfoEE10deallocateEPS3_m
FN:116,_ZN9__gnu_cxx13new_allocatorISt13_Rb_tree_nodeISt4pairIKN4Json5Value8CZStringES4_EEE10deallocateEPS8_m
FN:116,_ZN9__gnu_cxx13new_allocatorIN4Json12PathArgumentEE10deallocateEPS2_m
FN:116,_ZN9__gnu_cxx13new_allocatorIN4Json9OurReader9ErrorInfoEE10deallocateEPS3_m
FN:116,_ZN9__gnu_cxx13new_allocatorIPN4Json5ValueEE10deallocateEPS3_m
FN:116,_ZN9__gnu_cxx13new_allocatorIN4Json6Reader15StructuredErrorEE10deallocateEPS3_m
FN:116,_ZN9__gnu_cxx13new_allocatorIcE10deallocateEPcm
FN:129,_ZNK9__gnu_cxx13new_allocatorIN4Json9OurReader9ErrorInfoEE8max_sizeEv
FN:129,_ZNK9__gnu_cxx13new_allocatorIN4Json6Reader9ErrorInfoEE8max_sizeEv
FN:129,_ZNK9__gnu_cxx13new_allocatorIPN4Json9OurReader9ErrorInfoEE8max_sizeEv
FN:129,_ZNK9__gnu_cxx13new_allocatorIN4Json12PathArgumentEE8max_sizeEv
FN:129,_ZNK9__gnu_cxx13new_allocatorIPN4Json5ValueEE8max_sizeEv
FN:129,_ZNK9__gnu_cxx13new_allocatorIPN4Json6Reader9ErrorInfoEE8max_sizeEv
FN:129,_ZNK9__gnu_cxx13new_allocatorIcE8max_sizeEv
FN:129,_ZNK9__gnu_cxx13new_allocatorIPPN4Json5ValueEE8max_sizeEv
FN:129,_ZNK9__gnu_cxx13new_allocatorIPKN4Json12PathArgumentEE8max_sizeEv
FN:129,_ZNK9__gnu_cxx13new_allocatorINSt7__cxx1112basic_stringIcSt11char_traitsIcESaIcEEEE8max_sizeEv
FN:129,_ZNK9__gnu_cxx13new_allocatorIN4Json6Reader15StructuredErrorEE8max_sizeEv
FN:129,_ZNK9__gnu_cxx13new_allocatorISt13_Rb_tree_nodeISt4pairIKN4Json5Value8CZStringES4_EEE8max_sizeEv
FN:129,_ZNK9__gnu_cxx13new_allocatorIN4Json9OurReader15StructuredErrorEE8max_sizeEv
FN:129,_ZNK9__gnu_cxx13new_allocatorISt13_Rb_tree_nodeINSt7__cxx1112basic_stringIcSt11char_traitsIcESaIcEEEEE8max_sizeEv
FN:135,_ZN9__gnu_cxx13new_allocatorIPN4Json5ValueEE9constructIS3_JS3_EEEvPT_DpOT0_
FN:135,_ZN9__gnu_cxx13new_allocatorIN4Json9OurReader15StructuredErrorEE9constructIS3_JRKS3_EEEvPT_DpOT0_
FN:135,_ZN9__gnu_cxx13new_allocatorISt13_Rb_tree_nodeINSt7__cxx1112basic_stringIcSt11char_traitsIcESaIcEEEEE9constructIS7_JS7_EEEvPT_DpOT0_
FN:135,_ZN9__gnu_cxx13new_allocatorINSt7__cxx1112basic_stringIcSt11char_traitsIcESaIcEEEE9constructIS6_JS6_EEEvPT_DpOT0_
FN:135,_ZN9__gnu_cxx13new_allocatorIN4Json12PathArgumentEE9constructIS2_JRKS2_EEEvPT_DpOT0_
FN:135,_ZN9__gnu_cxx13new_allocatorISt13_Rb_tree_nodeISt4pairIKN4Json5Value8CZStringES4_EEE9constructIS7_JRKSt21piecewise_construct_tSt5tupleIJRS6_EESE_IJEEEEEvPT_DpOT0_
FN:135,_ZN9__gnu_cxx13new_allocatorIN4Json12PathArgumentEE9constructIS2_JS2_EEEvPT_DpOT0_
FN:135,_ZN9__gnu_cxx13new_allocatorIPKN4Json12PathArgumentEE9constructIS4_JS4_EEEvPT_DpOT0_
FN:135,_ZN9__gnu_cxx13new_allocatorIN4Json9OurReader9ErrorInfoEE9constructIS3_JRKS3_EEEvPT_DpOT0_
FN:135,_ZN9__gnu_cxx13new_allocatorINSt7__cxx1112basic_stringIcSt11char_traitsIcESaIcEEEE9constructIS6_JRKS6_EEEvPT_DpOT0_
FN:135,_ZN9__gnu_cxx13new_allocatorIN4Json6Reader9ErrorInfoEE9constructIS3_JRKS3_EEEvPT_DpOT0_
FN:135,_ZN9__gnu_cxx13new_allocatorIN4Json6Reader15StructuredErrorEE9constructIS3_JRKS3_EEEvPT_DpOT0_
FN:135,_ZN9__gnu_cxx13new_allocatorISt13_Rb_tree_nodeISt4pairIKN4Json5Value8CZStringES4_EEE9constructIS7_JRKS7_EEEvPT_DpOT0_
FN:135,_ZN9__gnu_cxx13new_allocatorISt13_Rb_tree_nodeISt4pairIKN4Json5Value8CZStringES4_EEE9constructIS7_JRS7_EEEvPT_DpOT0_
FN:140,_ZN9__gnu_cxx13new_allocatorIPKN4Json12PathArgumentEE7destroyIS4_EEvPT_
FN:140,_ZN9__gnu_cxx13new_allocatorISt13_Rb_tree_nodeISt4pairIKN4Json5Value8CZStringES4_EEE7destroyIS7_EEvPT_
FN:140,_ZN9__gnu_cxx13new_allocatorIN4Json6Reader15StructuredErrorEE7destroyIS3_EEvPT_
FN:140,_ZN9__gnu_cxx13new_allocatorISt13_Rb_tree_nodeINSt7__cxx1112basic_stringIcSt11char_traitsIcESaIcEEEEE7destroyIS7_EEvPT_
FN:140,_ZN9__gnu_cxx13new_allocatorIN4Json12PathArgumentEE7destroyIS2_EEvPT_
FN:140,_ZN9__gnu_cxx13new_allocatorIN4Json9OurReader15StructuredErrorEE7destroyIS3_EEvPT_
FN:140,_ZN9__gnu_cxx13new_allocatorIPN4Json5ValueEE7destroyIS3_EEvPT_
FN:140,_ZN9__gnu_cxx13new_allocatorINSt7__cxx1112basic_stringIcSt11char_traitsIcESaIcEEEE7destroyIS6_EEvPT_
FNDA:4,_ZN9__gnu_cxx13new_allocatorIPN4Json9OurReader9ErrorInfoEEC2Ev
FNDA:0,_ZN9__gnu_cxx13new_allocatorIPN4Json6Reader9ErrorInfoEEC2Ev
FNDA:4,_ZN9__gnu_cxx13new_allocatorIPPN4Json5ValueEEC2Ev
FNDA:2,_ZN9__gnu_cxx13new_allocatorIPN4Json5ValueEEC2Ev
FNDA:0,_ZN9__gnu_cxx13new_allocatorIPKN4Json12PathArgumentEEC2Ev
FNDA:0,_ZN9__gnu_cxx13new_allocatorIN4Json12PathArgumentEEC2Ev
FNDA:0,_ZN9__gnu_cxx13new_allocatorINSt7__cxx1112basic_stringIcSt11char_traitsIcESaIcEEEEC2Ev
FNDA:0,_ZN9__gnu_cxx13new_allocatorIN4Json9OurReader15StructuredErrorEEC2Ev
FNDA:2,_ZN9__gnu_cxx13new_allocatorIN4Json9OurReader9ErrorInfoEEC2Ev
FNDA:0,_ZN9__gnu_cxx13new_allocatorIN4Json6Reader15StructuredErrorEEC2Ev
FNDA:0,_ZN9__gnu_cxx13new_allocatorIN4Json6Reader9ErrorInfoEEC2Ev
FNDA:418,_ZN9__gnu_cxx13new_allocatorISt13_Rb_tree_nodeISt4pairIKN4Json5Value8CZStringES4_EEEC2Ev
FNDA:0,_ZN9__gnu_cxx13new_allocatorISt13_Rb_tree_nodeINSt7__cxx1112basic_stringIcSt11char_traitsIcESaIcEEEEEC2Ev
FNDA:0,_ZN9__gnu_cxx13new_allocatorIcEC2Ev
FNDA:0,_ZN9__gnu_cxx13new_allocatorINSt7__cxx1112basic_stringIcSt11char_traitsIcESaIcEEEEC2ERKS7_
FNDA:628,_ZN9__gnu_cxx13new_allocatorISt13_Rb_tree_nodeISt4pairIKN4Json5Value8CZStringES4_EEEC2ERKS9_
FNDA:0,_ZN9__gnu_cxx13new_allocatorIcEC2ERKS1_
FNDA:4,_ZN9__gnu_cxx13new_allocatorIPN4Json9OurReader9ErrorInfoEED2Ev
FNDA:0,_ZN9__gnu_cxx13new_allocatorIPN4Json6Reader9ErrorInfoEED2Ev
FNDA:4,_ZN9__gnu_cxx13new_allocatorIPPN4Json5ValueEED2Ev
FNDA:0,_ZN9__gnu_cxx13new_allocatorIPKN4Json12PathArgumentEED2Ev
FNDA:0,_ZN9__gnu_cxx13new_allocatorIN4Json12PathArgumentEED2Ev
FNDA:0,_ZN9__gnu_cxx13new_allocatorINSt7__cxx1112basic_stringIcSt11char_traitsIcESaIcEEEED2Ev
FNDA:0,_ZN9__gnu_cxx13new_allocatorIN4Json9OurReader15StructuredErrorEED2Ev
FNDA:2,_ZN9__gnu_cxx13new_allocatorIN4Json9OurReader9ErrorInfoEED2Ev
FNDA:0,_ZN9__gnu_cxx13new_allocatorIN4Json6Reader15StructuredErrorEED2Ev
FNDA:0,_ZN9__gnu_cxx13new_allocatorIN4Json6Reader9ErrorInfoEED2Ev
FNDA:2,_ZN9__gnu_cxx13new_allocatorIPN4Json5ValueEED2Ev
FNDA:1046,_ZN9__gnu_cxx13new_allocatorISt13_Rb_tree_nodeISt4pairIKN4Json5Value8CZStringES4_EEED2Ev
FNDA:0,_ZN9__gnu_cxx13new_allocatorISt13_Rb_tree_nodeINSt7__cxx1112basic_stringIcSt11char_traitsIcESaIcEEEEED2Ev
FNDA:0,_ZN9__gnu_cxx13new_allocatorIcED2Ev
FNDA:0,_ZN9__gnu_cxx13new_allocatorISt13_Rb_tree_nodeINSt7__cxx1112basic_stringIcSt11char_traitsIcESaIcEEEEE8allocateEmPKv
FNDA:2,_ZN9__gnu_cxx13new_allocatorIPN4Json5ValueEE8allocateEmPKv
FNDA:2,_ZN9__gnu_cxx13new_allocatorIPPN4Json5ValueEE8allocateEmPKv
FNDA:4798,_ZN9__gnu_cxx13new_allocatorISt13_Rb_tree_nodeISt4pairIKN4Json5Value8CZStringES4_EEE8allocateEmPKv
FNDA:2,_ZN9__gnu_cxx13new_allocatorIPN4Json9OurReader9ErrorInfoEE8allocateEmPKv
FNDA:0,_ZN9__gnu_cxx13new_allocatorIPN4Json6Reader9ErrorInfoEE8allocateEmPKv
FNDA:0,_ZN9__gnu_cxx13new_allocatorIN4Json12PathArgumentEE8allocateEmPKv
FNDA:0,_ZN9__gnu_cxx13new_allocatorIPKN4Json12PathArgumentEE8allocateEmPKv
FNDA:0,_ZN9__gnu_cxx13new_allocatorINSt7__cxx1112basic_stringIcSt11char_traitsIcESaIcEEEE8allocateEmPKv
FNDA:0,_ZN9__gnu_cxx13new_allocatorIN4Json9OurReader15StructuredErrorEE8allocateEmPKv
FNDA:2,_ZN9__gnu_cxx13new_allocatorIN4Json9OurReader9ErrorInfoEE8allocateEmPKv
FNDA:0,_ZN9__gnu_cxx13new_allocatorIN4Json6Reader15StructuredErrorEE8allocateEmPKv
FNDA:0,_ZN9__gnu_cxx13new_allocatorIN4Json6Reader9ErrorInfoEE8allocateEmPKv
FNDA:0,_ZN9__gnu_cxx13new_allocatorIcE8allocateEmPKv
FNDA:4798,_ZN9__gnu_cxx13new_allocatorISt13_Rb_tree_nodeISt4pairIKN4Json5Value8CZStringES4_EEE10deallocateEPS8_m
FNDA:0,_ZN9__gnu_cxx13new_allocatorISt13_Rb_tree_nodeINSt7__cxx1112basic_stringIcSt11char_traitsIcESaIcEEEEE10deallocateEPS8_m
FNDA:2,_ZN9__gnu_cxx13new_allocatorIPN4Json5ValueEE10deallocateEPS3_m
FNDA:0,_ZN9__gnu_cxx13new_allocatorIN4Json12PathArgumentEE10deallocateEPS2_m
FNDA:0,_ZN9__gnu_cxx13new_allocatorIN4Json9OurReader15StructuredErrorEE10deallocateEPS3_m
FNDA:2,_ZN9__gnu_cxx13new_allocatorIN4Json9OurReader9ErrorInfoEE10deallocateEPS3_m
FNDA:2,_ZN9__gnu_cxx13new_allocatorIPN4Json9OurReader9ErrorInfoEE10deallocateEPS4_m
FNDA:0,_ZN9__gnu_cxx13new_allocatorIN4Json6Reader15StructuredErrorEE10deallocateEPS3_m
FNDA:0,_ZN9__gnu_cxx13new_allocatorIN4Json6Reader9ErrorInfoEE10deallocateEPS3_m
FNDA:0,_ZN9__gnu_cxx13new_allocatorIPN4Json6Reader9ErrorInfoEE10deallocateEPS4_m
FNDA:2,_ZN9__gnu_cxx13new_allocatorIPPN4Json5ValueEE10deallocateEPS4_m
FNDA:0,_ZN9__gnu_cxx13new_allocatorIPKN4Json12PathArgumentEE10deallocateEPS4_m
FNDA:0,_ZN9__gnu_cxx13new_allocatorINSt7__cxx1112basic_stringIcSt11char_traitsIcESaIcEEEE10deallocateEPS6_m
FNDA:0,_ZN9__gnu_cxx13new_allocatorIcE10deallocateEPcm
FNDA:0,_ZNK9__gnu_cxx13new_allocatorISt13_Rb_tree_nodeINSt7__cxx1112basic_stringIcSt11char_traitsIcESaIcEEEEE8max_sizeEv
FNDA:2,_ZNK9__gnu_cxx13new_allocatorIPN4Json5ValueEE8max_sizeEv
FNDA:2,_ZNK9__gnu_cxx13new_allocatorIPPN4Json5ValueEE8max_sizeEv
FNDA:4798,_ZNK9__gnu_cxx13new_allocatorISt13_Rb_tree_nodeISt4pairIKN4Json5Value8CZStringES4_EEE8max_sizeEv
FNDA:2,_ZNK9__gnu_cxx13new_allocatorIPN4Json9OurReader9ErrorInfoEE8max_sizeEv
FNDA:0,_ZNK9__gnu_cxx13new_allocatorIPN4Json6Reader9ErrorInfoEE8max_sizeEv
FNDA:0,_ZNK9__gnu_cxx13new_allocatorIN4Json12PathArgumentEE8max_sizeEv
FNDA:0,_ZNK9__gnu_cxx13new_allocatorIN4Json9OurReader15StructuredErrorEE8max_sizeEv
FNDA:2,_ZNK9__gnu_cxx13new_allocatorIN4Json9OurReader9ErrorInfoEE8max_sizeEv
FNDA:0,_ZNK9__gnu_cxx13new_allocatorIN4Json6Reader15StructuredErrorEE8max_sizeEv
FNDA:0,_ZNK9__gnu_cxx13new_allocatorIN4Json6Reader9ErrorInfoEE8max_sizeEv
FNDA:0,_ZNK9__gnu_cxx13new_allocatorIPKN4Json12PathArgumentEE8max_sizeEv
FNDA:0,_ZNK9__gnu_cxx13new_allocatorINSt7__cxx1112basic_stringIcSt11char_traitsIcESaIcEEEE8max_sizeEv
FNDA:0,_ZNK9__gnu_cxx13new_allocatorIcE8max_sizeEv
FNDA:2972,_ZN9__gnu_cxx13new_allocatorISt13_Rb_tree_nodeISt4pairIKN4Json5Value8CZStringES4_EEE9constructIS7_JRKS7_EEEvPT_DpOT0_
FNDA:0,_ZN9__gnu_cxx13new_allocatorISt13_Rb_tree_nodeINSt7__cxx1112basic_stringIcSt11char_traitsIcESaIcEEEEE9constructIS7_JS7_EEEvPT_DpOT0_
FNDA:0,_ZN9__gnu_cxx13new_allocatorISt13_Rb_tree_nodeISt4pairIKN4Json5Value8CZStringES4_EEE9constructIS7_JRKSt21piecewise_construct_tSt5tupleIJRS6_EESE_IJEEEEEvPT_DpOT0_
FNDA:1826,_ZN9__gnu_cxx13new_allocatorISt13_Rb_tree_nodeISt4pairIKN4Json5Value8CZStringES4_EEE9constructIS7_JRS7_EEEvPT_DpOT0_
FNDA:1808,_ZN9__gnu_cxx13new_allocatorIPN4Json5ValueEE9constructIS3_JS3_EEEvPT_DpOT0_
FNDA:0,_ZN9__gnu_cxx13new_allocatorIN4Json12PathArgumentEE9constructIS2_JS2_EEEvPT_DpOT0_
FNDA:0,_ZN9__gnu_cxx13new_allocatorIPKN4Json12PathArgumentEE9constructIS4_JS4_EEEvPT_DpOT0_
FNDA:0,_ZN9__gnu_cxx13new_allocatorINSt7__cxx1112basic_stringIcSt11char_traitsIcESaIcEEEE9constructIS6_JS6_EEEvPT_DpOT0_
FNDA:0,_ZN9__gnu_cxx13new_allocatorINSt7__cxx1112basic_stringIcSt11char_traitsIcESaIcEEEE9constructIS6_JRKS6_EEEvPT_DpOT0_
FNDA:0,_ZN9__gnu_cxx13new_allocatorIN4Json12PathArgumentEE9constructIS2_JRKS2_EEEvPT_DpOT0_
FNDA:0,_ZN9__gnu_cxx13new_allocatorIN4Json9OurReader15StructuredErrorEE9constructIS3_JRKS3_EEEvPT_DpOT0_
FNDA:0,_ZN9__gnu_cxx13new_allocatorIN4Json9OurReader9ErrorInfoEE9constructIS3_JRKS3_EEEvPT_DpOT0_
FNDA:0,_ZN9__gnu_cxx13new_allocatorIN4Json6Reader15StructuredErrorEE9constructIS3_JRKS3_EEEvPT_DpOT0_
FNDA:0,_ZN9__gnu_cxx13new_allocatorIN4Json6Reader9ErrorInfoEE9constructIS3_JRKS3_EEEvPT_DpOT0_
FNDA:4798,_ZN9__gnu_cxx13new_allocatorISt13_Rb_tree_nodeISt4pairIKN4Json5Value8CZStringES4_EEE7destroyIS7_EEvPT_
FNDA:0,_ZN9__gnu_cxx13new_allocatorISt13_Rb_tree_nodeINSt7__cxx1112basic_stringIcSt11char_traitsIcESaIcEEEEE7destroyIS7_EEvPT_
FNDA:0,_ZN9__gnu_cxx13new_allocatorIPKN4Json12PathArgumentEE7destroyIS4_EEvPT_
FNDA:0,_ZN9__gnu_cxx13new_allocatorINSt7__cxx1112basic_stringIcSt11char_traitsIcESaIcEEEE7destroyIS6_EEvPT_
FNDA:0,_ZN9__gnu_cxx13new_allocatorIN4Json12PathArgumentEE7destroyIS2_EEvPT_
FNDA:0,_ZN9__gnu_cxx13new_allocatorIN4Json9OurReader15StructuredErrorEE7destroyIS3_EEvPT_
FNDA:0,_ZN9__gnu_cxx13new_allocatorIN4Json6Reader15StructuredErrorEE7destroyIS3_EEvPT_
FNDA:1808,_ZN9__gnu_cxx13new_allocatorIPN4Json5ValueEE7destroyIS3_EEvPT_
FNF:95
FNH:31
DA:79,430
DA:81,628
DA:86,1058
DA:99,4806
DA:101,4806
DA:102,0
DA:111,4806
DA:113,0
DA:115,0
DA:116,0
DA:125,0
DA:127,2
DA:129,2
DA:130,0
DA:139,2
DA:141,2
DA:143,2
DA:144,0
DA:153,2
DA:155,4798
DA:157,4798
DA:158,0
DA:167,4798
DA:169,2
DA:171,2
DA:172,0
DA:181,2
DA:183,0
DA:185,0
DA:186,0
DA:195,0
DA:197,0
DA:199,0
DA:200,0
DA:209,0
DA:211,0
DA:213,0
DA:214,0
DA:223,0
DA:225,0
DA:227,0
DA:228,0
DA:237,0
DA:239,0
DA:241,0
DA:242,0
DA:251,0
DA:253,2
DA:255,2
DA:256,0
DA:265,2
DA:267,0
DA:269,0
DA:270,0
DA:279,0
DA:281,0
DA:283,0
DA:284,0
DA:293,0
DA:295,0
DA:297,0
DA:298,0
DA:307,0
DA:312,4806
DA:321,4806
DA:323,4798
DA:332,4798
DA:334,0
DA:343,0
DA:345,2
DA:354,2
DA:356,0
DA:365,0
DA:367,0
DA:376,0
DA:378,2
DA:387,2
DA:389,2
DA:398,2
DA:400,0
DA:409,0
DA:411,0
DA:420,0
DA:422,0
DA:431,0
DA:433,2
DA:442,2
DA:444,0
DA:453,0
DA:455,0
DA:464,0
DA:466,0
DA:475,0
DA:479,4806
DA:480,4806
DA:481,0
DA:482,0
DA:483,2
DA:484,2
DA:485,2
DA:486,2
DA:487,4798
DA:488,4798
DA:489,2
DA:490,2
DA:491,0
DA:492,0
DA:493,0
DA:494,0
DA:495,0
DA:496,0
DA:497,2
DA:498,2
DA:499,0
DA:500,0
DA:501,0
DA:502,0
DA:503,0
DA:504,0
DA:505,0
DA:506,0
DA:507,0
DA:508,0
DA:513,6606
DA:514,6606
DA:515,2972
DA:516,2972
DA:517,0
DA:518,0
DA:519,0
DA:520,0
DA:521,1826
DA:522,1826
DA:523,1808
DA:524,1808
DA:525,0
DA:526,0
DA:527,0
DA:528,0
DA:529,0
DA:530,0
DA:531,0
DA:532,0
DA:533,0
DA:534,0
DA:535,0
DA:536,0
DA:537,0
DA:538,0
DA:539,0
DA:540,0
DA:541,0
DA:542,0
DA:546,6606
LF:154
LH:54
end_of_record
SF:/usr/include/c++/8/ext/type_traits.h
FN:152,_ZN9__gnu_cxx17__is_null_pointerIcEEbPT_
FN:152,_ZN9__gnu_cxx17__is_null_pointerIKcEEbPT_
FNDA:0,_ZN9__gnu_cxx17__is_null_pointerIcEEbPT_
FNDA:0,_ZN9__gnu_cxx17__is_null_pointerIKcEEbPT_
FNF:2
FNH:0
DA:152,0
DA:153,0
DA:154,0
DA:155,0
DA:156,0
DA:157,0
LF:6
LH:0
end_of_record
SF:/usr/include/c++/8/limits
FN:1715,_ZNSt14numeric_limitsIdE8infinityEv
FN:1718,_ZNSt14numeric_limitsIdE9quiet_NaNEv
FNDA:0,_ZNSt14numeric_limitsIdE8infinityEv
FNDA:0,_ZNSt14numeric_limitsIdE9quiet_NaNEv
FNF:2
FNH:0
DA:1715,0
DA:1718,0
LF:2
LH:0
end_of_record
SF:/usr/include/c++/8/new
FN:168,_ZnwmPv
FN:174,_ZdlPvS_
FNDA:0,_ZnwmPv
FNDA:0,_ZdlPvS_
FNF:2
FNH:0
DA:168,0
DA:169,0
DA:174,0
LF:3
LH:0
end_of_record
SF:/usr/include/c++/8/tuple
FN:76,_ZNSt10_Head_baseILm1ESt14default_deleteISt5arrayINSt7__cxx1112basic_stringIcSt11char_traitsIcESaIcEEELm3EEELb1EEC2Ev
FN:76,_ZNSt10_Head_baseILm1ESt14default_deleteIN4Json10CharReaderEELb1EEC2Ev
FN:76,_ZNSt10_Head_baseILm1ESt14default_deleteIN4Json12StreamWriterEELb1EEC2Ev
FN:86,_ZNSt10_Head_baseILm1ESt14default_deleteISt5arrayINSt7__cxx1112basic_stringIcSt11char_traitsIcESaIcEEELm3EEELb1EEC2IS9_EEOT_
FN:113,_ZNSt10_Head_baseILm1ESt14default_deleteISt5arrayINSt7__cxx1112basic_stringIcSt11char_traitsIcESaIcEEELm3EEELb1EE7_M_headERSA_
FN:113,_ZNSt10_Head_baseILm1ESt14default_deleteIN4Json12StreamWriterEELb1EE7_M_headERS4_
FN:113,_ZNSt10_Head_baseILm1ESt14default_deleteIN4Json10CharReaderEELb1EE7_M_headERS4_
FN:122,_ZNSt10_Head_baseILm0EPSt5arrayINSt7__cxx1112basic_stringIcSt11char_traitsIcESaIcEEELm3EELb0EEC2Ev
FN:122,_ZNSt10_Head_baseILm0EPN4Json12StreamWriterELb0EEC2Ev
FN:122,_ZNSt10_Head_baseILm0EPN4Json10CharReaderELb0EEC2Ev
FN:125,_ZNSt10_Head_baseILm0ERKN4Json5Value8CZStringELb0EEC2ES4_
FN:132,_ZNSt10_Head_baseILm0EPSt5arrayINSt7__cxx1112basic_stringIcSt11char_traitsIcESaIcEEELm3EELb0EEC2IRS8_EEOT_
FN:160,_ZNSt10_Head_baseILm0ERKN4Json5Value8CZStringELb0EE7_M_headERS5_
FN:160,_ZNSt10_Head_baseILm0EPN4Json10CharReaderELb0EE7_M_headERS3_
FN:160,_ZNSt10_Head_baseILm0EPN4Json12StreamWriterELb0EE7_M_headERS3_
FN:160,_ZNSt10_Head_baseILm0EPSt5arrayINSt7__cxx1112basic_stringIcSt11char_traitsIcESaIcEEELm3EELb0EE7_M_headERS9_
FN:163,_ZNSt10_Head_baseILm0EPN4Json10CharReaderELb0EE7_M_headERKS3_
FN:163,_ZNSt10_Head_baseILm0EPN4Json12StreamWriterELb0EE7_M_headERKS3_
FN:163,_ZNSt10_Head_baseILm0EPSt5arrayINSt7__cxx1112basic_stringIcSt11char_traitsIcESaIcEEELm3EELb0EE7_M_headERKS9_
FN:195,_ZNSt11_Tuple_implILm0EJPN4Json10CharReaderESt14default_deleteIS1_EEE7_M_headERS5_
FN:195,_ZNSt11_Tuple_implILm0EJPSt5arrayINSt7__cxx1112basic_stringIcSt11char_traitsIcESaIcEEELm3EESt14default_deleteIS7_EEE7_M_headERSB_
FN:195,_ZNSt11_Tuple_implILm0EJPN4Json12StreamWriterESt14default_deleteIS1_EEE7_M_headERS5_
FN:198,_ZNSt11_Tuple_implILm0EJPN4Json10CharReaderESt14default_deleteIS1_EEE7_M_headERKS5_
FN:198,_ZNSt11_Tuple_implILm0EJPSt5arrayINSt7__cxx1112basic_stringIcSt11char_traitsIcESaIcEEELm3EESt14default_deleteIS7_EEE7_M_headERKSB_
FN:198,_ZNSt11_Tuple_implILm0EJPN4Json12StreamWriterESt14default_deleteIS1_EEE7_M_headERKS5_
FN:206,_ZNSt11_Tuple_implILm0EJPN4Json12StreamWriterESt14default_deleteIS1_EEEC2Ev
FN:206,_ZNSt11_Tuple_implILm0EJPN4Json10CharReaderESt14default_deleteIS1_EEEC2Ev
FN:206,_ZNSt11_Tuple_implILm0EJPSt5arrayINSt7__cxx1112basic_stringIcSt11char_traitsIcESaIcEEELm3EESt14default_deleteIS7_EEEC2Ev
FN:216,_ZNSt11_Tuple_implILm0EJPSt5arrayINSt7__cxx1112basic_stringIcSt11char_traitsIcESaIcEEELm3EESt14default_deleteIS7_EEEC2IRS8_JSA_EvEEOT_DpOT0_
FN:351,_ZNSt11_Tuple_implILm1EJSt14default_deleteISt5arrayINSt7__cxx1112basic_stringIcSt11char_traitsIcESaIcEEELm3EEEEE7_M_headERSA_
FN:351,_ZNSt11_Tuple_implILm0EJRKN4Json5Value8CZStringEEE7_M_headERS5_
FN:351,_ZNSt11_Tuple_implILm1EJSt14default_deleteIN4Json12StreamWriterEEEE7_M_headERS4_
FN:351,_ZNSt11_Tuple_implILm1EJSt14default_deleteIN4Json10CharReaderEEEE7_M_headERS4_
FN:356,_ZNSt11_Tuple_implILm1EJSt14default_deleteIN4Json10CharReaderEEEEC2Ev
FN:356,_ZNSt11_Tuple_implILm1EJSt14default_deleteISt5arrayINSt7__cxx1112basic_stringIcSt11char_traitsIcESaIcEEELm3EEEEEC2Ev
FN:356,_ZNSt11_Tuple_implILm1EJSt14default_deleteIN4Json12StreamWriterEEEEC2Ev
FN:360,_ZNSt11_Tuple_implILm0EJRKN4Json5Value8CZStringEEEC2ES4_
FN:365,_ZNSt11_Tuple_implILm1EJSt14default_deleteISt5arrayINSt7__cxx1112basic_stringIcSt11char_traitsIcESaIcEEELm3EEEEEC2IS9_EEOT_
FN:371,_ZNSt11_Tuple_implILm0EJRKN4Json5Value8CZStringEEEC2EOS5_
FN:608,_ZNSt5tupleIJRKN4Json5Value8CZStringEEEC2IvLb1EEES4_
FN:662,_ZNSt5tupleIJRKN4Json5Value8CZStringEEEC2EOS5_
FN:919,_ZNSt5tupleIJPN4Json12StreamWriterESt14default_deleteIS1_EEEC2IS2_S4_Lb1EEEv
FN:919,_ZNSt5tupleIJPSt5arrayINSt7__cxx1112basic_stringIcSt11char_traitsIcESaIcEEELm3EESt14default_deleteIS7_EEEC1IS8_SA_Lb1EEEv
FN:919,_ZNSt5tupleIJPN4Json10CharReaderESt14default_deleteIS1_EEEC2IS2_S4_Lb1EEEv
FN:971,_ZNSt5tupleIJPSt5arrayINSt7__cxx1112basic_stringIcSt11char_traitsIcESaIcEEELm3EESt14default_deleteIS7_EEEC2IRS8_SA_Lb1EEEOT_OT0_
FN:1303,_ZSt12__get_helperILm1ESt14default_deleteISt5arrayINSt7__cxx1112basic_stringIcSt11char_traitsIcESaIcEEELm3EEEJEERT0_RSt11_Tuple_implIXT_EJSA_DpT1_EE
FN:1303,_ZSt12__get_helperILm0EPSt5arrayINSt7__cxx1112basic_stringIcSt11char_traitsIcESaIcEEELm3EEJSt14default_deleteIS7_EEERT0_RSt11_Tuple_implIXT_EJSB_DpT1_EE
FN:1303,_ZSt12__get_helperILm0ERKN4Json5Value8CZStringEJEERT0_RSt11_Tuple_implIXT_EJS5_DpT1_EE
FN:1303,_ZSt12__get_helperILm1ESt14default_deleteIN4Json10CharReaderEEJEERT0_RSt11_Tuple_implIXT_EJS4_DpT1_EE
FN:1303,_ZSt12__get_helperILm1ESt14default_deleteIN4Json12StreamWriterEEJEERT0_RSt11_Tuple_implIXT_EJS4_DpT1_EE
FN:1303,_ZSt12__get_helperILm0EPN4Json12StreamWriterEJSt14default_deleteIS1_EEERT0_RSt11_Tuple_implIXT_EJS5_DpT1_EE
FN:1303,_ZSt12__get_helperILm0EPN4Json10CharReaderEJSt14default_deleteIS1_EEERT0_RSt11_Tuple_implIXT_EJS5_DpT1_EE
FN:1308,_ZSt12__get_helperILm0EPSt5arrayINSt7__cxx1112basic_stringIcSt11char_traitsIcESaIcEEELm3EEJSt14default_deleteIS7_EEERKT0_RKSt11_Tuple_implIXT_EJSB_DpT1_EE
FN:1308,_ZSt12__get_helperILm0EPN4Json10CharReaderEJSt14default_deleteIS1_EEERKT0_RKSt11_Tuple_implIXT_EJS5_DpT1_EE
FN:1308,_ZSt12__get_helperILm0EPN4Json12StreamWriterEJSt14default_deleteIS1_EEERKT0_RKSt11_Tuple_implIXT_EJS5_DpT1_EE
FN:1314,_ZSt3getILm0EJPN4Json10CharReaderESt14default_deleteIS1_EEERNSt13tuple_elementIXT_ESt5tupleIJDpT0_EEE4typeERS9_
FN:1314,_ZSt3getILm0EJRKN4Json5Value8CZStringEEERNSt13tuple_elementIXT_ESt5tupleIJDpT0_EEE4typeERS9_
FN:1314,_ZSt3getILm0EJPN4Json12StreamWriterESt14default_deleteIS1_EEERNSt13tuple_elementIXT_ESt5tupleIJDpT0_EEE4typeERS9_
FN:1314,_ZSt3getILm1EJPN4Json12StreamWriterESt14default_deleteIS1_EEERNSt13tuple_elementIXT_ESt5tupleIJDpT0_EEE4typeERS9_
FN:1314,_ZSt3getILm1EJPSt5arrayINSt7__cxx1112basic_stringIcSt11char_traitsIcESaIcEEELm3EESt14default_deleteIS7_EEERNSt13tuple_elementIXT_ESt5tupleIJDpT0_EEE4typeERSF_
FN:1314,_ZSt3getILm0EJPSt5arrayINSt7__cxx1112basic_stringIcSt11char_traitsIcESaIcEEELm3EESt14default_deleteIS7_EEERNSt13tuple_elementIXT_ESt5tupleIJDpT0_EEE4typeERSF_
FN:1314,_ZSt3getILm1EJPN4Json10CharReaderESt14default_deleteIS1_EEERNSt13tuple_elementIXT_ESt5tupleIJDpT0_EEE4typeERS9_
FN:1320,_ZSt3getILm0EJPSt5arrayINSt7__cxx1112basic_stringIcSt11char_traitsIcESaIcEEELm3EESt14default_deleteIS7_EEERKNSt13tuple_elementIXT_ESt5tupleIJDpT0_EEE4typeERKSF_
FN:1320,_ZSt3getILm0EJPN4Json12StreamWriterESt14default_deleteIS1_EEERKNSt13tuple_elementIXT_ESt5tupleIJDpT0_EEE4typeERKS9_
FN:1320,_ZSt3getILm0EJPN4Json10CharReaderESt14default_deleteIS1_EEERKNSt13tuple_elementIXT_ESt5tupleIJDpT0_EEE4typeERKS9_
FN:1652,_ZNSt4pairIKN4Json5Value8CZStringES1_EC2IJRS3_EJEEESt21piecewise_construct_tSt5tupleIJDpT_EES8_IJDpT0_EE
FN:1664,_ZNSt4pairIKN4Json5Value8CZStringES1_EC2IJRS3_EJLm0EEJEJEEERSt5tupleIJDpT_EERS7_IJDpT1_EESt12_Index_tupleIJXspT0_EEESG_IJXspT2_EEE
FNDA:0,_ZNSt10_Head_baseILm1ESt14default_deleteIN4Json12StreamWriterEELb1EEC2Ev
FNDA:2,_ZNSt10_Head_baseILm1ESt14default_deleteIN4Json10CharReaderEELb1EEC2Ev
FNDA:10550,_ZNSt10_Head_baseILm1ESt14default_deleteISt5arrayINSt7__cxx1112basic_stringIcSt11char_traitsIcESaIcEEELm3EEELb1EEC2Ev
FNDA:41,_ZNSt10_Head_baseILm1ESt14default_deleteISt5arrayINSt7__cxx1112basic_stringIcSt11char_traitsIcESaIcEEELm3EEELb1EEC2IS9_EEOT_
FNDA:0,_ZNSt10_Head_baseILm1ESt14default_deleteIN4Json12StreamWriterEELb1EE7_M_headERS4_
FNDA:17597,_ZNSt10_Head_baseILm1ESt14default_deleteISt5arrayINSt7__cxx1112basic_stringIcSt11char_traitsIcESaIcEEELm3EEELb1EE7_M_headERSA_
FNDA:2,_ZNSt10_Head_baseILm1ESt14default_deleteIN4Json10CharReaderEELb1EE7_M_headERS4_
FNDA:0,_ZNSt10_Head_baseILm0EPN4Json12StreamWriterELb0EEC2Ev
FNDA:2,_ZNSt10_Head_baseILm0EPN4Json10CharReaderELb0EEC2Ev
FNDA:10550,_ZNSt10_Head_baseILm0EPSt5arrayINSt7__cxx1112basic_stringIcSt11char_traitsIcESaIcEEELm3EELb0EEC2Ev
FNDA:0,_ZNSt10_Head_baseILm0ERKN4Json5Value8CZStringELb0EEC2ES4_
FNDA:41,_ZNSt10_Head_baseILm0EPSt5arrayINSt7__cxx1112basic_stringIcSt11char_traitsIcESaIcEEELm3EELb0EEC2IRS8_EEOT_
FNDA:0,_ZNSt10_Head_baseILm0ERKN4Json5Value8CZStringELb0EE7_M_headERS5_
FNDA:0,_ZNSt10_Head_baseILm0EPN4Json12StreamWriterELb0EE7_M_headERS3_
FNDA:35030,_ZNSt10_Head_baseILm0EPSt5arrayINSt7__cxx1112basic_stringIcSt11char_traitsIcESaIcEEELm3EELb0EE7_M_headERS9_
FNDA:4,_ZNSt10_Head_baseILm0EPN4Json10CharReaderELb0EE7_M_headERS3_
FNDA:0,_ZNSt10_Head_baseILm0EPN4Json12StreamWriterELb0EE7_M_headERKS3_
FNDA:15661,_ZNSt10_Head_baseILm0EPSt5arrayINSt7__cxx1112basic_stringIcSt11char_traitsIcESaIcEEELm3EELb0EE7_M_headERKS9_
FNDA:2,_ZNSt10_Head_baseILm0EPN4Json10CharReaderELb0EE7_M_headERKS3_
FNDA:0,_ZNSt11_Tuple_implILm0EJPN4Json12StreamWriterESt14default_deleteIS1_EEE7_M_headERS5_
FNDA:35030,_ZNSt11_Tuple_implILm0EJPSt5arrayINSt7__cxx1112basic_stringIcSt11char_traitsIcESaIcEEELm3EESt14default_deleteIS7_EEE7_M_headERSB_
FNDA:4,_ZNSt11_Tuple_implILm0EJPN4Json10CharReaderESt14default_deleteIS1_EEE7_M_headERS5_
FNDA:0,_ZNSt11_Tuple_implILm0EJPN4Json12StreamWriterESt14default_deleteIS1_EEE7_M_headERKS5_
FNDA:15661,_ZNSt11_Tuple_implILm0EJPSt5arrayINSt7__cxx1112basic_stringIcSt11char_traitsIcESaIcEEELm3EESt14default_deleteIS7_EEE7_M_headERKSB_
FNDA:2,_ZNSt11_Tuple_implILm0EJPN4Json10CharReaderESt14default_deleteIS1_EEE7_M_headERKS5_
FNDA:0,_ZNSt11_Tuple_implILm0EJPN4Json12StreamWriterESt14default_deleteIS1_EEEC2Ev
FNDA:2,_ZNSt11_Tuple_implILm0EJPN4Json10CharReaderESt14default_deleteIS1_EEEC2Ev
FNDA:10550,_ZNSt11_Tuple_implILm0EJPSt5arrayINSt7__cxx1112basic_stringIcSt11char_traitsIcESaIcEEELm3EESt14default_deleteIS7_EEEC2Ev
FNDA:41,_ZNSt11_Tuple_implILm0EJPSt5arrayINSt7__cxx1112basic_stringIcSt11char_traitsIcESaIcEEELm3EESt14default_deleteIS7_EEEC2IRS8_JSA_EvEEOT_DpOT0_
FNDA:0,_ZNSt11_Tuple_implILm0EJRKN4Json5Value8CZStringEEE7_M_headERS5_
FNDA:0,_ZNSt11_Tuple_implILm1EJSt14default_deleteIN4Json12StreamWriterEEEE7_M_headERS4_
FNDA:17597,_ZNSt11_Tuple_implILm1EJSt14default_deleteISt5arrayINSt7__cxx1112basic_stringIcSt11char_traitsIcESaIcEEELm3EEEEE7_M_headERSA_
FNDA:2,_ZNSt11_Tuple_implILm1EJSt14default_deleteIN4Json10CharReaderEEEE7_M_headERS4_
FNDA:0,_ZNSt11_Tuple_implILm1EJSt14default_deleteIN4Json12StreamWriterEEEEC2Ev
FNDA:2,_ZNSt11_Tuple_implILm1EJSt14default_deleteIN4Json10CharReaderEEEEC2Ev
FNDA:10550,_ZNSt11_Tuple_implILm1EJSt14default_deleteISt5arrayINSt7__cxx1112basic_stringIcSt11char_traitsIcESaIcEEELm3EEEEEC2Ev
FNDA:0,_ZNSt11_Tuple_implILm0EJRKN4Json5Value8CZStringEEEC2ES4_
FNDA:41,_ZNSt11_Tuple_implILm1EJSt14default_deleteISt5arrayINSt7__cxx1112basic_stringIcSt11char_traitsIcESaIcEEELm3EEEEEC2IS9_EEOT_
FNDA:0,_ZNSt11_Tuple_implILm0EJRKN4Json5Value8CZStringEEEC2EOS5_
FNDA:0,_ZNSt5tupleIJRKN4Json5Value8CZStringEEEC2IvLb1EEES4_
FNDA:0,_ZNSt5tupleIJRKN4Json5Value8CZStringEEEC2EOS5_
FNDA:0,_ZNSt5tupleIJPN4Json12StreamWriterESt14default_deleteIS1_EEEC2IS2_S4_Lb1EEEv
FNDA:2,_ZNSt5tupleIJPN4Json10CharReaderESt14default_deleteIS1_EEEC2IS2_S4_Lb1EEEv
FNDA:10550,_ZNSt5tupleIJPSt5arrayINSt7__cxx1112basic_stringIcSt11char_traitsIcESaIcEEELm3EESt14default_deleteIS7_EEEC1IS8_SA_Lb1EEEv
FNDA:41,_ZNSt5tupleIJPSt5arrayINSt7__cxx1112basic_stringIcSt11char_traitsIcESaIcEEELm3EESt14default_deleteIS7_EEEC2IRS8_SA_Lb1EEEOT_OT0_
FNDA:0,_ZSt12__get_helperILm0ERKN4Json5Value8CZStringEJEERT0_RSt11_Tuple_implIXT_EJS5_DpT1_EE
FNDA:0,_ZSt12__get_helperILm1ESt14default_deleteIN4Json12StreamWriterEEJEERT0_RSt11_Tuple_implIXT_EJS4_DpT1_EE
FNDA:17597,_ZSt12__get_helperILm1ESt14default_deleteISt5arrayINSt7__cxx1112basic_stringIcSt11char_traitsIcESaIcEEELm3EEEJEERT0_RSt11_Tuple_implIXT_EJSA_DpT1_EE
FNDA:2,_ZSt12__get_helperILm1ESt14default_deleteIN4Json10CharReaderEEJEERT0_RSt11_Tuple_implIXT_EJS4_DpT1_EE
FNDA:0,_ZSt12__get_helperILm0EPN4Json12StreamWriterEJSt14default_deleteIS1_EEERT0_RSt11_Tuple_implIXT_EJS5_DpT1_EE
FNDA:35030,_ZSt12__get_helperILm0EPSt5arrayINSt7__cxx1112basic_stringIcSt11char_traitsIcESaIcEEELm3EEJSt14default_deleteIS7_EEERT0_RSt11_Tuple_implIXT_EJSB_DpT1_EE
FNDA:4,_ZSt12__get_helperILm0EPN4Json10CharReaderEJSt14default_deleteIS1_EEERT0_RSt11_Tuple_implIXT_EJS5_DpT1_EE
FNDA:0,_ZSt12__get_helperILm0EPN4Json12StreamWriterEJSt14default_deleteIS1_EEERKT0_RKSt11_Tuple_implIXT_EJS5_DpT1_EE
FNDA:15661,_ZSt12__get_helperILm0EPSt5arrayINSt7__cxx1112basic_stringIcSt11char_traitsIcESaIcEEELm3EEJSt14default_deleteIS7_EEERKT0_RKSt11_Tuple_implIXT_EJSB_DpT1_EE
FNDA:2,_ZSt12__get_helperILm0EPN4Json10CharReaderEJSt14default_deleteIS1_EEERKT0_RKSt11_Tuple_implIXT_EJS5_DpT1_EE
FNDA:0,_ZSt3getILm0EJRKN4Json5Value8CZStringEEERNSt13tuple_elementIXT_ESt5tupleIJDpT0_EEE4typeERS9_
FNDA:0,_ZSt3getILm1EJPN4Json12StreamWriterESt14default_deleteIS1_EEERNSt13tuple_elementIXT_ESt5tupleIJDpT0_EEE4typeERS9_
FNDA:17597,_ZSt3getILm1EJPSt5arrayINSt7__cxx1112basic_stringIcSt11char_traitsIcESaIcEEELm3EESt14default_deleteIS7_EEERNSt13tuple_elementIXT_ESt5tupleIJDpT0_EEE4typeERSF_
FNDA:2,_ZSt3getILm1EJPN4Json10CharReaderESt14default_deleteIS1_EEERNSt13tuple_elementIXT_ESt5tupleIJDpT0_EEE4typeERS9_
FNDA:0,_ZSt3getILm0EJPN4Json12StreamWriterESt14default_deleteIS1_EEERNSt13tuple_elementIXT_ESt5tupleIJDpT0_EEE4typeERS9_
FNDA:35030,_ZSt3getILm0EJPSt5arrayINSt7__cxx1112basic_stringIcSt11char_traitsIcESaIcEEELm3EESt14default_deleteIS7_EEERNSt13tuple_elementIXT_ESt5tupleIJDpT0_EEE4typeERSF_
FNDA:4,_ZSt3getILm0EJPN4Json10CharReaderESt14default_deleteIS1_EEERNSt13tuple_elementIXT_ESt5tupleIJDpT0_EEE4typeERS9_
FNDA:0,_ZSt3getILm0EJPN4Json12StreamWriterESt14default_deleteIS1_EEERKNSt13tuple_elementIXT_ESt5tupleIJDpT0_EEE4typeERKS9_
FNDA:15661,_ZSt3getILm0EJPSt5arrayINSt7__cxx1112basic_stringIcSt11char_traitsIcESaIcEEELm3EESt14default_deleteIS7_EEERKNSt13tuple_elementIXT_ESt5tupleIJDpT0_EEE4typeERKSF_
FNDA:2,_ZSt3getILm0EJPN4Json10CharReaderESt14default_deleteIS1_EEERKNSt13tuple_elementIXT_ESt5tupleIJDpT0_EEE4typeERKS9_
FNDA:0,_ZNSt4pairIKN4Json5Value8CZStringES1_EC2IJRS3_EJEEESt21piecewise_construct_tSt5tupleIJDpT_EES8_IJDpT0_EE
FNDA:0,_ZNSt4pairIKN4Json5Value8CZStringES1_EC2IJRS3_EJLm0EEJEJEEERSt5tupleIJDpT_EERS7_IJDpT1_EESt12_Index_tupleIJXspT0_EEESG_IJXspT2_EEE
FNF:67
FNH:39
DA:76,10552
DA:77,10552
DA:78,0
DA:79,0
DA:80,2
DA:81,2
DA:82,10550
DA:83,10550
DA:92,41
DA:93,41
DA:119,17599
DA:128,10552
DA:129,10552
DA:130,0
DA:131,0
DA:132,2
DA:133,2
DA:134,10550
DA:135,10550
DA:137,0
DA:138,0
DA:144,41
DA:145,41
DA:172,35034
DA:175,15663
DA:207,35034
DA:210,15663
DA:218,10552
DA:219,10552
DA:220,0
DA:221,0
DA:222,2
DA:223,2
DA:224,10550
DA:225,10550
DA:234,41
DA:236,41
DA:369,17599
DA:374,10552
DA:375,10552
DA:376,0
DA:377,0
DA:378,2
DA:379,2
DA:380,10550
DA:381,10550
DA:384,0
DA:385,0
DA:389,41
DA:390,41
DA:395,0
DA:397,0
DA:632,0
DA:633,0
DA:686,0
DA:943,10552
DA:944,10552
DA:945,0
DA:946,0
DA:947,2
DA:948,2
DA:949,10550
DA:950,10550
DA:1001,41
DA:1002,41
DA:1333,52633
DA:1334,52633
DA:1335,0
DA:1336,0
DA:1337,0
DA:1338,0
DA:1339,17597
DA:1340,17597
DA:1341,2
DA:1342,2
DA:1343,0
DA:1344,0
DA:1345,35030
DA:1346,35030
DA:1347,4
DA:1348,4
DA:1352,15663
DA:1353,15663
DA:1354,0
DA:1355,0
DA:1356,15661
DA:1357,15661
DA:1358,2
DA:1359,2
DA:1364,52633
DA:1365,52633
DA:1366,0
DA:1367,0
DA:1368,0
DA:1369,0
DA:1370,17597
DA:1371,17597
DA:1372,2
DA:1373,2
DA:1374,0
DA:1375,0
DA:1376,35030
DA:1377,35030
DA:1378,4
DA:1379,4
DA:1384,15663
DA:1385,15663
DA:1386,0
DA:1387,0
DA:1388,15661
DA:1389,15661
DA:1390,2
DA:1391,2
DA:1722,0
DA:1727,0
DA:1728,0
DA:1734,0
DA:1737,0
DA:1738,0
DA:1739,0
LF:120
LH:78
end_of_record
SF:/home/fsl/prog/tino/src/json/dist/json/json.h
FN:482,_ZN4Json8FeaturesC2Ev
FN:668,_ZN4Json12StaticStringC2EPKc
FN:672,_ZNK4Json12StaticString5c_strEv
FN:1133,_ZN4Json5Value7setTypeENS_9ValueTypeE
FN:1136,_ZNK4Json5Value11isAllocatedEv
FN:1137,_ZN4Json5Value14setIsAllocatedEb
FN:1174,_ZN4Json5Value8CommentsC2Ev
FN:1324,_ZN4Json18ValueConstIteratorC2Ev
FN:1375,_ZN4Json13ValueIteratorC2ERKS0_
FN:1375,_ZN4Json13ValueIteratorC2Ev
FN:1703,_ZN4Json10CharReaderD0Ev
FN:1703,_ZN4Json10CharReaderD2Ev
FN:1727,_ZN4Json10CharReader7FactoryD0Ev
FN:1727,_ZN4Json10CharReader7FactoryD2Ev
FN:1747,_ZN4Json17CharReaderBuilderD2Ev
FN:1747,_ZN4Json17CharReaderBuilderD0Ev
FN:1917,_ZN4Json12StreamWriterD2Ev
FN:1917,_ZN4Json12StreamWriterD0Ev
FN:1933,_ZN4Json12StreamWriter7FactoryD2Ev
FN:1933,_ZN4Json12StreamWriter7FactoryD0Ev
FN:1964,_ZN4Json19StreamWriterBuilderD0Ev
FN:1964,_ZN4Json19StreamWriterBuilderD2Ev
FN:2023,_ZN4Json6WriterD0Ev
FN:2023,_ZN4Json6WriterD2Ev
FN:2043,_ZN4Json10FastWriterC2Ev
FN:2047,_ZN4Json10FastWriterD0Ev
FN:2047,_ZN4Json10FastWriterD2Ev
FN:2104,_ZN4Json12StyledWriterC2Ev
FN:2107,_ZN4Json12StyledWriterD0Ev
FN:2107,_ZN4Json12StyledWriterD2Ev
FNDA:0,_ZN4Json8FeaturesC2Ev
FNDA:0,_ZN4Json12StaticStringC2EPKc
FNDA:0,_ZNK4Json12StaticString5c_strEv
FNDA:8696,_ZN4Json5Value7setTypeENS_9ValueTypeE
FNDA:3317,_ZNK4Json5Value11isAllocatedEv
FNDA:9487,_ZN4Json5Value14setIsAllocatedEb
FNDA:10550,_ZN4Json5Value8CommentsC2Ev
FNDA:0,_ZN4Json18ValueConstIteratorC2Ev
FNDA:0,_ZN4Json13ValueIteratorC2ERKS0_
FNDA:0,_ZN4Json13ValueIteratorC2Ev
FNDA:0,_ZN4Json10CharReaderD0Ev
FNDA:2,_ZN4Json10CharReaderD2Ev
FNDA:0,_ZN4Json10CharReader7FactoryD0Ev
FNDA:2,_ZN4Json10CharReader7FactoryD2Ev
FNDA:0,_ZN4Json17CharReaderBuilderD0Ev
FNDA:2,_ZN4Json17CharReaderBuilderD2Ev
FNDA:0,_ZN4Json12StreamWriterD0Ev
FNDA:0,_ZN4Json12StreamWriterD2Ev
FNDA:0,_ZN4Json12StreamWriter7FactoryD0Ev
FNDA:0,_ZN4Json12StreamWriter7FactoryD2Ev
FNDA:0,_ZN4Json19StreamWriterBuilderD0Ev
FNDA:0,_ZN4Json19StreamWriterBuilderD2Ev
FNDA:0,_ZN4Json6WriterD0Ev
FNDA:0,_ZN4Json6WriterD2Ev
FNDA:0,_ZN4Json10FastWriterC2Ev
FNDA:0,_ZN4Json10FastWriterD0Ev
FNDA:0,_ZN4Json10FastWriterD2Ev
FNDA:0,_ZN4Json12StyledWriterC2Ev
FNDA:0,_ZN4Json12StyledWriterD0Ev
FNDA:0,_ZN4Json12StyledWriterD2Ev
FNF:30
FNH:7
DA:482,0
DA:668,0
DA:672,0
DA:1133,8696
DA:1134,8696
DA:1135,8696
DA:1136,3317
DA:1137,9487
DA:1174,10550
DA:1324,0
DA:1375,0
DA:1703,2
DA:1727,2
DA:1747,2
DA:1917,0
DA:1933,0
DA:1964,0
DA:2023,0
DA:2043,0
DA:2047,0
DA:2104,0
DA:2107,0
LF:22
LH:9
end_of_record
SF:/home/fsl/prog/tino/src/json/dist/jsoncpp.cpp
FN:115,_ZN4JsonL15getDecimalPointEv
FN:125,_ZN4JsonL15codePointToUTF8Ej
FN:167,_ZN4JsonL12uintToStringEmRPc
FN:180,_ZN4Json16fixNumericLocaleIN9__gnu_cxx17__normal_iteratorIPcNSt7__cxx1112basic_stringIcSt11char_traitsIcESaIcEEEEEEET_SB_SB_
FN:189,_ZN4Json21fixNumericLocaleInputIPcEEvT_S2_
FN:205,_ZN4Json16fixZerosInTheEndIN9__gnu_cxx17__normal_iteratorIPcNSt7__cxx1112basic_stringIcSt11char_traitsIcESaIcEEEEEEET_SB_SB_
FN:298,_ZN4Json8Features3allEv
FN:300,_ZN4Json8Features10strictModeEv
FN:312,_ZN4Json6Reader15containsNewLineEPKcS2_
FN:322,_ZN4Json6ReaderC2Ev
FN:325,_ZN4Json6ReaderC2ERKNS_8FeaturesE
FN:330,_ZN4Json6Reader5parseERKNSt7__cxx1112basic_stringIcSt11char_traitsIcESaIcEEERNS_5ValueEb
FN:339,_ZN4Json6Reader5parseERSiRNS_5ValueEb
FN:352,_ZN4Json6Reader5parseEPKcS2_RNS_5ValueEb
FN:393,_ZN4Json6Reader9readValueEv
FN:470,_ZN4Json6Reader17skipCommentTokensERNS0_5TokenE
FN:480,_ZN4Json6Reader9readTokenERNS0_5TokenE
FN:551,_ZN4Json6Reader10skipSpacesEv
FN:561,_ZN4Json6Reader5matchEPKci
FN:572,_ZN4Json6Reader11readCommentEv
FN:595,_ZN4Json6Reader12normalizeEOLB5cxx11EPKcS2_
FN:614,_ZN4Json6Reader10addCommentEPKcS2_NS_16CommentPlacementE
FN:627,_ZN4Json6Reader17readCStyleCommentEv
FN:636,_ZN4Json6Reader19readCppStyleCommentEv
FN:652,_ZN4Json6Reader10readNumberEv
FN:674,_ZN4Json6Reader10readStringEv
FN:686,_ZN4Json6Reader10readObjectERNS0_5TokenE
FN:742,_ZN4Json6Reader9readArrayERNS0_5TokenE
FN:780,_ZN4Json6Reader12decodeNumberERNS0_5TokenE
FN:790,_ZN4Json6Reader12decodeNumberERNS0_5TokenERNS_5ValueE
FN:833,_ZN4Json6Reader12decodeDoubleERNS0_5TokenE
FN:843,_ZN4Json6Reader12decodeDoubleERNS0_5TokenERNS_5ValueE
FN:854,_ZN4Json6Reader12decodeStringERNS0_5TokenE
FN:865,_ZN4Json6Reader12decodeStringERNS0_5TokenERNSt7__cxx1112basic_stringIcSt11char_traitsIcESaIcEEE
FN:918,_ZN4Json6Reader22decodeUnicodeCodePointERNS0_5TokenERPKcS4_Rj
FN:945,_ZN4Json6Reader27decodeUnicodeEscapeSequenceERNS0_5TokenERPKcS4_Rj
FN:972,_ZN4Json6Reader8addErrorERKNSt7__cxx1112basic_stringIcSt11char_traitsIcESaIcEEERNS0_5TokenEPKc
FN:981,_ZN4Json6Reader16recoverFromErrorENS0_9TokenTypeE
FN:994,_ZN4Json6Reader18addErrorAndRecoverERKNSt7__cxx1112basic_stringIcSt11char_traitsIcESaIcEEERNS0_5TokenENS0_9TokenTypeE
FN:1001,_ZN4Json6Reader12currentValueEv
FN:1003,_ZN4Json6Reader11getNextCharEv
FN:1009,_ZNK4Json6Reader24getLocationLineAndColumnEPKcRiS3_
FN:1032,_ZNK4Json6Reader24getLocationLineAndColumnB5cxx11EPKc
FN:1041,_ZNK4Json6Reader24getFormatedErrorMessagesB5cxx11Ev
FN:1045,_ZNK4Json6Reader25getFormattedErrorMessagesB5cxx11Ev
FN:1058,_ZNK4Json6Reader19getStructuredErrorsEv
FN:1070,_ZN4Json6Reader9pushErrorERKNS_5ValueERKNSt7__cxx1112basic_stringIcSt11char_traitsIcESaIcEEE
FN:1086,_ZN4Json6Reader9pushErrorERKNS_5ValueERKNSt7__cxx1112basic_stringIcSt11char_traitsIcESaIcEEES3_
FN:1105,_ZNK4Json6Reader4goodEv
FN:1123,_ZN4Json11OurFeatures3allEv
FN:1251,_ZN4Json9OurReader15containsNewLineEPKcS2_
FN:1259,_ZN4Json9OurReaderC2ERKNS_11OurFeaturesE
FN:1264,_ZN4Json9OurReader5parseEPKcS2_RNS_5ValueEb
FN:1313,_ZN4Json9OurReader9readValueEv
FN:1404,_ZN4Json9OurReader17skipCommentTokensERNS0_5TokenE
FN:1414,_ZN4Json9OurReader9readTokenERNS0_5TokenE
FN:1514,_ZN4Json9OurReader10skipSpacesEv
FN:1524,_ZN4Json9OurReader5matchEPKci
FN:1535,_ZN4Json9OurReader11readCommentEv
FN:1558,_ZN4Json9OurReader12normalizeEOLB5cxx11EPKcS2_
FN:1578,_ZN4Json9OurReader10addCommentEPKcS2_NS_16CommentPlacementE
FN:1591,_ZN4Json9OurReader17readCStyleCommentEv
FN:1600,_ZN4Json9OurReader19readCppStyleCommentEv
FN:1616,_ZN4Json9OurReader10readNumberEb
FN:1642,_ZN4Json9OurReader10readStringEv
FN:1654,_ZN4Json9OurReader21readStringSingleQuoteEv
FN:1666,_ZN4Json9OurReader10readObjectERNS0_5TokenE
FN:1728,_ZN4Json9OurReader9readArrayERNS0_5TokenE
FN:1766,_ZN4Json9OurReader12decodeNumberERNS0_5TokenE
FN:1776,_ZN4Json9OurReader12decodeNumberERNS0_5TokenERNS_5ValueE
FN:1827,_ZN4Json9OurReader12decodeDoubleERNS0_5TokenE
FN:1837,_ZN4Json9OurReader12decodeDoubleERNS0_5TokenERNS_5ValueE
FN:1874,_ZN4Json9OurReader12decodeStringERNS0_5TokenE
FN:1885,_ZN4Json9OurReader12decodeStringERNS0_5TokenERNSt7__cxx1112basic_stringIcSt11char_traitsIcESaIcEEE
FN:1938,_ZN4Json9OurReader22decodeUnicodeCodePointERNS0_5TokenERPKcS4_Rj
FN:1965,_ZN4Json9OurReader27decodeUnicodeEscapeSequenceERNS0_5TokenERPKcS4_Rj
FN:1992,_ZN4Json9OurReader8addErrorERKNSt7__cxx1112basic_stringIcSt11char_traitsIcESaIcEEERNS0_5TokenEPKc
FN:2001,_ZN4Json9OurReader16recoverFromErrorENS0_9TokenTypeE
FN:2014,_ZN4Json9OurReader18addErrorAndRecoverERKNSt7__cxx1112basic_stringIcSt11char_traitsIcESaIcEEERNS0_5TokenENS0_9TokenTypeE
FN:2021,_ZN4Json9OurReader12currentValueEv
FN:2023,_ZN4Json9OurReader11getNextCharEv
FN:2029,_ZNK4Json9OurReader24getLocationLineAndColumnEPKcRiS3_
FN:2052,_ZNK4Json9OurReader24getLocationLineAndColumnB5cxx11EPKc
FN:2060,_ZNK4Json9OurReader25getFormattedErrorMessagesB5cxx11Ev
FN:2073,_ZNK4Json9OurReader19getStructuredErrorsEv
FN:2085,_ZN4Json9OurReader9pushErrorERKNS_5ValueERKNSt7__cxx1112basic_stringIcSt11char_traitsIcESaIcEEE
FN:2101,_ZN4Json9OurReader9pushErrorERKNS_5ValueERKNSt7__cxx1112basic_stringIcSt11char_traitsIcESaIcEEES3_
FN:2120,_ZNK4Json9OurReader4goodEv
FN:2127,_ZN4Json13OurCharReaderC2EbRKNS_11OurFeaturesE
FN:2129,_ZN4Json13OurCharReader5parseEPKcS2_PNS_5ValueEPNSt7__cxx1112basic_stringIcSt11char_traitsIcESaIcEEE
FN:2141,_ZN4Json17CharReaderBuilderC2Ev
FN:2143,_ZNK4Json17CharReaderBuilder13newCharReaderEv
FN:2161,_ZN4JsonL18getValidReaderKeysEPSt3setINSt7__cxx1112basic_stringIcSt11char_traitsIcESaIcEEESt4lessIS6_ESaIS6_EE
FN:2174,_ZNK4Json17CharReaderBuilder8validateEPNS_5ValueE
FN:2191,_ZN4Json17CharReaderBuilderixERKNSt7__cxx1112basic_stringIcSt11char_traitsIcESaIcEEE
FN:2195,_ZN4Json17CharReaderBuilder10strictModeEPNS_5ValueE
FN:2209,_ZN4Json17CharReaderBuilder11setDefaultsEPNS_5ValueE
FN:2227,_ZN4Json15parseFromStreamERKNS_10CharReader7FactoryERSiPNS_5ValueEPNSt7__cxx1112basic_stringIcSt11char_traitsIcESaIcEEE
FN:2241,_ZN4JsonrsERSiRNS_5ValueE
FN:2283,_ZN4Json17ValueIteratorBaseC2Ev
FN:2285,_ZN4Json17ValueIteratorBaseC2ERKSt17_Rb_tree_iteratorISt4pairIKNS_5Value8CZStringES3_EE
FN:2289,_ZNK4Json17ValueIteratorBase5derefEv
FN:2291,_ZN4Json17ValueIteratorBase9incrementEv
FN:2293,_ZN4Json17ValueIteratorBase9decrementEv
FN:2296,_ZNK4Json17ValueIteratorBase15computeDistanceERKS0_
FN:2323,_ZNK4Json17ValueIteratorBase7isEqualERKS0_
FN:2330,_ZN4Json17ValueIteratorBase4copyERKS0_
FN:2335,_ZNK4Json17ValueIteratorBase3keyEv
FN:2345,_ZNK4Json17ValueIteratorBase5indexEv
FN:2352,_ZNK4Json17ValueIteratorBase4nameB5cxx11Ev
FN:2361,_ZNK4Json17ValueIteratorBase10memberNameEv
FN:2366,_ZNK4Json17ValueIteratorBase10memberNameEPPKc
FN:2386,_ZN4Json18ValueConstIteratorC2ERKSt17_Rb_tree_iteratorISt4pairIKNS_5Value8CZStringES3_EE
FN:2390,_ZN4Json18ValueConstIteratorC2ERKNS_13ValueIteratorE
FN:2393,_ZN4Json18ValueConstIteratoraSERKNS_17ValueIteratorBaseE
FN:2409,_ZN4Json13ValueIteratorC2ERKSt17_Rb_tree_iteratorISt4pairIKNS_5Value8CZStringES3_EE
FN:2412,_ZN4Json13ValueIteratorC2ERKNS_18ValueConstIteratorE
FN:2419,_ZN4Json13ValueIteratoraSERKS0_
FN:2496,_ZN4JsonL11cloneUniqueISt5arrayINSt7__cxx1112basic_stringIcSt11char_traitsIcESaIcEEELm3EEEESt10unique_ptrIT_St14default_deleteISA_EERKSD_
FN:2514,_ZN4Json5Value13nullSingletonEv
FN:2556,_ZN4JsonL15integerToDoubleEm
FN:2561,_ZN4JsonL15integerToDoubleIlEEdT_
FN:2561,_ZN4JsonL15integerToDoubleIiEEdT_
FN:2561,_ZN4JsonL15integerToDoubleIjEEdT_
FN:2566,_ZN4JsonL7InRangeIiiEEbdT_T0_
FN:2566,_ZN4JsonL7InRangeIimEEbdT_T0_
FN:2566,_ZN4JsonL7InRangeIllEEbdT_T0_
FN:2566,_ZN4JsonL7InRangeIijEEbdT_T0_
FN:2578,_ZN4JsonL20duplicateStringValueEPKcm
FN:2596,_ZN4JsonL29duplicateAndPrefixStringValueEPKcj
FN:2616,_ZN4JsonL20decodePrefixedStringEbPKcPjPS1_
FN:2647,_ZN4JsonL26releasePrefixedStringValueEPc
FN:2648,_ZN4JsonL18releaseStringValueEPcj
FN:2668,_ZN4Json9ExceptionC2ENSt7__cxx1112basic_stringIcSt11char_traitsIcESaIcEEE
FN:2669,_ZN4Json9ExceptionD0Ev
FN:2669,_ZN4Json9ExceptionD2Ev
FN:2670,_ZNK4Json9Exception4whatEv
FN:2671,_ZN4Json12RuntimeErrorC2ERKNSt7__cxx1112basic_stringIcSt11char_traitsIcESaIcEEE
FN:2672,_ZN4Json10LogicErrorC2ERKNSt7__cxx1112basic_stringIcSt11char_traitsIcESaIcEEE
FN:2673,_ZN4Json17throwRuntimeErrorERKNSt7__cxx1112basic_stringIcSt11char_traitsIcESaIcEEE
FN:2676,_ZN4Json15throwLogicErrorERKNSt7__cxx1112basic_stringIcSt11char_traitsIcESaIcEEE
FN:2693,_ZN4Json5Value8CZStringC2Ej
FN:2695,_ZN4Json5Value8CZStringC2EPKcjNS1_17DuplicationPolicyE
FN:2704,_ZN4Json5Value8CZStringC2ERKS1_
FN:2720,_ZN4Json5Value8CZStringC2EOS1_
FN:2725,_ZN4Json5Value8CZStringD2Ev
FN:2735,_ZN4Json5Value8CZString4swapERS1_
FN:2740,_ZN4Json5Value8CZStringaSERKS1_
FN:2746,_ZN4Json5Value8CZStringaSEOS1_
FN:2753,_ZNK4Json5Value8CZStringltERKS1_
FN:2770,_ZNK4Json5Value8CZStringeqERKS1_
FN:2784,_ZNK4Json5Value8CZString5indexEv
FN:2787,_ZNK4Json5Value8CZString4dataEv
FN:2788,_ZNK4Json5Value8CZString6lengthEv
FN:2789,_ZNK4Json5Value8CZString14isStaticStringEv
FN:2805,_ZN4Json5ValueC2ENS_9ValueTypeE
FN:2834,_ZN4Json5ValueC2Ei
FN:2839,_ZN4Json5ValueC2Ej
FN:2844,_ZN4Json5ValueC2El
FN:2848,_ZN4Json5ValueC2Em
FN:2854,_ZN4Json5ValueC2Ed
FN:2859,_ZN4Json5ValueC2EPKc
FN:2867,_ZN4Json5ValueC2EPKcS2_
FN:2873,_ZN4Json5ValueC2ERKNSt7__cxx1112basic_stringIcSt11char_traitsIcESaIcEEE
FN:2879,_ZN4Json5ValueC2ERKNS_12StaticStringE
FN:2892,_ZN4Json5ValueC2Eb
FN:2897,_ZN4Json5ValueC2ERKS0_
FN:2902,_ZN4Json5ValueC2EOS0_
FN:2907,_ZN4Json5ValueD2Ev
FN:2912,_ZN4Json5ValueaSERKS0_
FN:2917,_ZN4Json5ValueaSEOS0_
FN:2922,_ZN4Json5Value11swapPayloadERS0_
FN:2927,_ZN4Json5Value11copyPayloadERKS0_
FN:2932,_ZN4Json5Value4swapERS0_
FN:2939,_ZN4Json5Value4copyERKS0_
FN:2944,_ZNK4Json5Value4typeEv
FN:2948,_ZNK4Json5Value7compareERKS0_
FN:2956,_ZNK4Json5ValueltERKS0_
FN:3008,_ZNK4Json5ValueleERKS0_
FN:3010,_ZNK4Json5ValuegeERKS0_
FN:3012,_ZNK4Json5ValuegtERKS0_
FN:3014,_ZNK4Json5ValueeqERKS0_
FN:3056,_ZNK4Json5ValueneERKS0_
FN:3058,_ZNK4Json5Value9asCStringEv
FN:3084,_ZNK4Json5Value9getStringEPPKcS3_
FN:3096,_ZNK4Json5Value8asStringB5cxx11Ev
FN:3131,_ZNK4Json5Value5asIntEv
FN:3153,_ZNK4Json5Value6asUIntEv
FN:3177,_ZNK4Json5Value7asInt64Ev
FN:3198,_ZNK4Json5Value8asUInt64Ev
FN:3220,_ZNK4Json5Value12asLargestIntEv
FN:3228,_ZNK4Json5Value13asLargestUIntEv
FN:3236,_ZNK4Json5Value8asDoubleEv
FN:3258,_ZNK4Json5Value7asFloatEv
FN:3281,_ZNK4Json5Value6asBoolEv
FN:3302,_ZNK4Json5Value15isConvertibleToENS_9ValueTypeE
FN:3336,_ZNK4Json5Value4sizeEv
FN:3359,_ZNK4Json5Value5emptyEv
FN:3366,_ZNK4Json5ValuecvbEv
FN:3368,_ZN4Json5Value5clearEv
FN:3384,_ZN4Json5Value6resizeEj
FN:3402,_ZN4Json5ValueixEj
FN:3418,_ZN4Json5ValueixEi
FN:3425,_ZNK4Json5ValueixEj
FN:3438,_ZNK4Json5ValueixEi
FN:3445,_ZN4Json5Value9initBasicENS_9ValueTypeEb
FN:3453,_ZN4Json5Value10dupPayloadERKS0_
FN:3485,_ZN4Json5Value14releasePayloadEv
FN:3506,_ZN4Json5Value7dupMetaERKS0_
FN:3515,_ZN4Json5Value16resolveReferenceEPKc
FN:3534,_ZN4Json5Value16resolveReferenceEPKcS2_
FN:3552,_ZNK4Json5Value3getEjRKS0_
FN:3557,_ZNK4Json5Value12isValidIndexEj
FN:3559,_ZNK4Json5Value4findEPKcS2_
FN:3572,_ZN4Json5Value6demandEPKcS2_
FN:3578,_ZNK4Json5ValueixEPKc
FN:3584,_ZNK4Json5ValueixERKNSt7__cxx1112basic_stringIcSt11char_traitsIcESaIcEEE
FN:3591,_ZN4Json5ValueixEPKc
FN:3595,_ZN4Json5ValueixERKNSt7__cxx1112basic_stringIcSt11char_traitsIcESaIcEEE
FN:3599,_ZN4Json5ValueixERKNS_12StaticStringE
FN:3615,_ZN4Json5Value6appendERKS0_
FN:3617,_ZN4Json5Value6appendEOS0_
FN:3621,_ZNK4Json5Value3getEPKcS2_RKS0_
FN:3627,_ZNK4Json5Value3getEPKcRKS0_
FN:3630,_ZNK4Json5Value3getERKNSt7__cxx1112basic_stringIcSt11char_traitsIcESaIcEEERKS0_
FN:3634,_ZN4Json5Value12removeMemberEPKcS2_PS0_
FN:3648,_ZN4Json5Value12removeMemberEPKcPS0_
FN:3651,_ZN4Json5Value12removeMemberERKNSt7__cxx1112basic_stringIcSt11char_traitsIcESaIcEEEPS0_
FN:3654,_ZN4Json5Value12removeMemberEPKc
FN:3663,_ZN4Json5Value12removeMemberERKNSt7__cxx1112basic_stringIcSt11char_traitsIcESaIcEEE
FN:3665,_ZN4Json5Value11removeIndexEjPS0_
FN:3696,_ZNK4Json5Value8isMemberEPKcS2_
FN:3700,_ZNK4Json5Value8isMemberEPKc
FN:3703,_ZNK4Json5Value8isMemberERKNSt7__cxx1112basic_stringIcSt11char_traitsIcESaIcEEE
FN:3713,_ZNK4Json5Value14getMemberNamesB5cxx11Ev
FN:3754,_ZN4JsonL10IsIntegralEd
FN:3759,_ZNK4Json5Value6isNullEv
FN:3761,_ZNK4Json5Value6isBoolEv
FN:3763,_ZNK4Json5Value5isIntEv
FN:3782,_ZNK4Json5Value6isUIntEv
FN:3805,_ZNK4Json5Value7isInt64Ev
FN:3825,_ZNK4Json5Value8isUInt64Ev
FN:3845,_ZNK4Json5Value10isIntegralEv
FN:3867,_ZNK4Json5Value8isDoubleEv
FN:3871,_ZNK4Json5Value9isNumericEv
FN:3873,_ZNK4Json5Value8isStringEv
FN:3875,_ZNK4Json5Value7isArrayEv
FN:3877,_ZNK4Json5Value8isObjectEv
FN:3879,_ZN4Json5Value8CommentsC2ERKS1_
FN:3882,_ZN4Json5Value8CommentsC2EOS1_
FN:3884,_ZN4Json5Value8CommentsaSERKS1_
FN:3889,_ZN4Json5Value8CommentsaSEOS1_
FN:3894,_ZNK4Json5Value8Comments3hasENS_16CommentPlacementE
FN:3898,_ZNK4Json5Value8Comments3getB5cxx11ENS_16CommentPlacementE
FN:3904,_ZN4Json5Value8Comments3setENS_16CommentPlacementENSt7__cxx1112basic_stringIcSt11char_traitsIcESaIcEEE
FN:3911,_ZN4Json5Value10setCommentENSt7__cxx1112basic_stringIcSt11char_traitsIcESaIcEEENS_16CommentPlacementE
FN:3923,_ZNK4Json5Value10hasCommentENS_16CommentPlacementE
FN:3927,_ZNK4Json5Value10getCommentB5cxx11ENS_16CommentPlacementE
FN:3931,_ZN4Json5Value14setOffsetStartEl
FN:3933,_ZN4Json5Value14setOffsetLimitEl
FN:3935,_ZNK4Json5Value14getOffsetStartEv
FN:3937,_ZNK4Json5Value14getOffsetLimitEv
FN:3939,_ZNK4Json5Value14toStyledStringB5cxx11Ev
FN:3949,_ZNK4Json5Value5beginEv
FN:3962,_ZNK4Json5Value3endEv
FN:3975,_ZN4Json5Value5beginEv
FN:3988,_ZN4Json5Value3endEv
FN:4004,_ZN4Json12PathArgumentC2Ev
FN:4006,_ZN4Json12PathArgumentC2Ej
FN:4009,_ZN4Json12PathArgumentC2EPKc
FN:4012,_ZN4Json12PathArgumentC2ERKNSt7__cxx1112basic_stringIcSt11char_traitsIcESaIcEEE
FN:4018,_ZN4Json4PathC2ERKNSt7__cxx1112basic_stringIcSt11char_traitsIcESaIcEEERKNS_12PathArgumentESB_SB_SB_SB_
FN:4034,_ZN4Json4Path8makePathERKNSt7__cxx1112basic_stringIcSt11char_traitsIcESaIcEEERKSt6vectorIPKNS_12PathArgumentESaISC_EE
FN:4065,_ZN4Json4Path12addPathInArgERKNSt7__cxx1112basic_stringIcSt11char_traitsIcESaIcEEERKSt6vectorIPKNS_12PathArgumentESaISC_EERN9__gnu_cxx17__normal_iteratorIPKSC_SE_EENSA_4KindE
FN:4078,_ZN4Json4Path11invalidPathERKNSt7__cxx1112basic_stringIcSt11char_traitsIcESaIcEEEi
FN:4082,_ZNK4Json4Path7resolveERKNS_5ValueE
FN:4107,_ZNK4Json4Path7resolveERKNS_5ValueES3_
FN:4125,_ZNK4Json4Path4makeERNS_5ValueE
FN:4249,_ZN4Json13valueToStringB5cxx11El
FN:4265,_ZN4Json13valueToStringB5cxx11Em
FN:4275,_ZN4Json13valueToStringB5cxx11Ei
FN:4277,_ZN4Json13valueToStringB5cxx11Ej
FN:4282,_ZN4Json12_GLOBAL__N_113valueToStringEdbjNS_13PrecisionTypeE
FN:4328,_ZN4Json13valueToStringB5cxx11EdjNS_13PrecisionTypeE
FN:4334,_ZN4Json13valueToStringB5cxx11Eb
FN:4336,_ZN4JsonL24isAnyCharRequiredQuotingEPKcm
FN:4348,_ZN4JsonL15utf8ToCodepointERPKcS1_
FN:4416,_ZN4JsonL10toHex16BitEj
FN:4427,_ZN4JsonL20valueToQuotedStringNEPKcj
FN:4496,_ZN4Json19valueToQuotedStringB5cxx11EPKc
FN:4511,_ZN4Json10FastWriter23enableYAMLCompatibilityEv
FN:4513,_ZN4Json10FastWriter20dropNullPlaceholdersEv
FN:4515,_ZN4Json10FastWriter18omitEndingLineFeedEv
FN:4517,_ZN4Json10FastWriter5writeB5cxx11ERKNS_5ValueE
FN:4525,_ZN4Json10FastWriter10writeValueERKNS_5ValueE
FN:4584,_ZN4Json12StyledWriter5writeB5cxx11ERKNS_5ValueE
FN:4595,_ZN4Json12StyledWriter10writeValueERKNS_5ValueE
FN:4655,_ZN4Json12StyledWriter15writeArrayValueERKNS_5ValueE
FN:4698,_ZN4Json12StyledWriter16isMultilineArrayERKNS_5ValueE
FN:4725,_ZN4Json12StyledWriter9pushValueERKNSt7__cxx1112basic_stringIcSt11char_traitsIcESaIcEEE
FN:4732,_ZN4Json12StyledWriter11writeIndentEv
FN:4743,_ZN4Json12StyledWriter15writeWithIndentERKNSt7__cxx1112basic_stringIcSt11char_traitsIcESaIcEEE
FN:4748,_ZN4Json12StyledWriter6indentEv
FN:4750,_ZN4Json12StyledWriter8unindentEv
FN:4755,_ZN4Json12StyledWriter23writeCommentBeforeValueERKNS_5ValueE
FN:4774,_ZN4Json12StyledWriter32writeCommentAfterValueOnSameLineERKNS_5ValueE
FN:4785,_ZN4Json12StyledWriter18hasCommentForValueERKNS_5ValueE
FN:4794,_ZN4Json18StyledStreamWriterC2ENSt7__cxx1112basic_stringIcSt11char_traitsIcESaIcEEE
FN:4798,_ZN4Json18StyledStreamWriter5writeERSoRKNS_5ValueE
FN:4813,_ZN4Json18StyledStreamWriter10writeValueERKNS_5ValueE
FN:4873,_ZN4Json18StyledStreamWriter15writeArrayValueERKNS_5ValueE
FN:4919,_ZN4Json18StyledStreamWriter16isMultilineArrayERKNS_5ValueE
FN:4946,_ZN4Json18StyledStreamWriter9pushValueERKNSt7__cxx1112basic_stringIcSt11char_traitsIcESaIcEEE
FN:4953,_ZN4Json18StyledStreamWriter11writeIndentEv
FN:4961,_ZN4Json18StyledStreamWriter15writeWithIndentERKNSt7__cxx1112basic_stringIcSt11char_traitsIcESaIcEEE
FN:4968,_ZN4Json18StyledStreamWriter6indentEv
FN:4970,_ZN4Json18StyledStreamWriter8unindentEv
FN:4975,_ZN4Json18StyledStreamWriter23writeCommentBeforeValueERKNS_5ValueE
FN:4993,_ZN4Json18StyledStreamWriter32writeCommentAfterValueOnSameLineERKNS_5ValueE
FN:5004,_ZN4Json18StyledStreamWriter18hasCommentForValueERKNS_5ValueE
FN:5063,_ZN4Json23BuiltStyledStreamWriterC2ENSt7__cxx1112basic_stringIcSt11char_traitsIcESaIcEEENS_12CommentStyle4EnumES6_S6_S6_bjNS_13PrecisionTypeE
FN:5077,_ZN4Json23BuiltStyledStreamWriter5writeERKNS_5ValueEPSo
FN:5092,_ZN4Json23BuiltStyledStreamWriter10writeValueERKNS_5ValueE
FN:5154,_ZN4Json23BuiltStyledStreamWriter15writeArrayValueERKNS_5ValueE
FN:5204,_ZN4Json23BuiltStyledStreamWriter16isMultilineArrayERKNS_5ValueE
FN:5231,_ZN4Json23BuiltStyledStreamWriter9pushValueERKNSt7__cxx1112basic_stringIcSt11char_traitsIcESaIcEEE
FN:5238,_ZN4Json23BuiltStyledStreamWriter11writeIndentEv
FN:5250,_ZN4Json23BuiltStyledStreamWriter15writeWithIndentERKNSt7__cxx1112basic_stringIcSt11char_traitsIcESaIcEEE
FN:5257,_ZN4Json23BuiltStyledStreamWriter6indentEv
FN:5259,_ZN4Json23BuiltStyledStreamWriter8unindentEv
FN:5264,_ZN4Json23BuiltStyledStreamWriter23writeCommentBeforeValueERKNS_5ValueE
FN:5284,_ZN4Json23BuiltStyledStreamWriter32writeCommentAfterValueOnSameLineERKNS_5ValueE
FN:5298,_ZN4Json23BuiltStyledStreamWriter18hasCommentForValueERKNS_5ValueE
FN:5307,_ZN4Json12StreamWriterC2Ev
FN:5310,_ZN4Json19StreamWriterBuilderC2Ev
FN:5312,_ZNK4Json19StreamWriterBuilder15newStreamWriterEv
FN:5353,_ZN4JsonL18getValidWriterKeysEPSt3setINSt7__cxx1112basic_stringIcSt11char_traitsIcESaIcEEESt4lessIS6_ESaIS6_EE
FN:5363,_ZNK4Json19StreamWriterBuilder8validateEPNS_5ValueE
FN:5380,_ZN4Json19StreamWriterBuilderixERKNSt7__cxx1112basic_stringIcSt11char_traitsIcESaIcEEE
FN:5384,_ZN4Json19StreamWriterBuilder11setDefaultsEPNS_5ValueE
FN:5396,_ZN4Json11writeStringB5cxx11ERKNS_12StreamWriter7FactoryERKNS_5ValueE
FN:5403,_ZN4JsonlsERSoRKNS_5ValueE
FNDA:0,_ZN4JsonL15getDecimalPointEv
FNDA:0,_ZN4JsonL15codePointToUTF8Ej
FNDA:0,_ZN4JsonL12uintToStringEmRPc
FNDA:0,_ZN4Json16fixNumericLocaleIN9__gnu_cxx17__normal_iteratorIPcNSt7__cxx1112basic_stringIcSt11char_traitsIcESaIcEEEEEEET_SB_SB_
FNDA:0,_ZN4Json21fixNumericLocaleInputIPcEEvT_S2_
FNDA:0,_ZN4Json16fixZerosInTheEndIN9__gnu_cxx17__normal_iteratorIPcNSt7__cxx1112basic_stringIcSt11char_traitsIcESaIcEEEEEEET_SB_SB_
FNDA:0,_ZN4Json8Features3allEv
FNDA:0,_ZN4Json8Features10strictModeEv
FNDA:0,_ZN4Json6Reader15containsNewLineEPKcS2_
FNDA:0,_ZN4Json6ReaderC2Ev
FNDA:0,_ZN4Json6ReaderC2ERKNS_8FeaturesE
FNDA:0,_ZN4Json6Reader5parseERKNSt7__cxx1112basic_stringIcSt11char_traitsIcESaIcEEERNS_5ValueEb
FNDA:0,_ZN4Json6Reader5parseERSiRNS_5ValueEb
FNDA:0,_ZN4Json6Reader5parseEPKcS2_RNS_5ValueEb
FNDA:0,_ZN4Json6Reader9readValueEv
FNDA:0,_ZN4Json6Reader17skipCommentTokensERNS0_5TokenE
FNDA:0,_ZN4Json6Reader9readTokenERNS0_5TokenE
FNDA:0,_ZN4Json6Reader10skipSpacesEv
FNDA:0,_ZN4Json6Reader5matchEPKci
FNDA:0,_ZN4Json6Reader11readCommentEv
FNDA:0,_ZN4Json6Reader12normalizeEOLB5cxx11EPKcS2_
FNDA:0,_ZN4Json6Reader10addCommentEPKcS2_NS_16CommentPlacementE
FNDA:0,_ZN4Json6Reader17readCStyleCommentEv
FNDA:0,_ZN4Json6Reader19readCppStyleCommentEv
FNDA:0,_ZN4Json6Reader10readNumberEv
FNDA:0,_ZN4Json6Reader10readStringEv
FNDA:0,_ZN4Json6Reader10readObjectERNS0_5TokenE
FNDA:0,_ZN4Json6Reader9readArrayERNS0_5TokenE
FNDA:0,_ZN4Json6Reader12decodeNumberERNS0_5TokenE
FNDA:0,_ZN4Json6Reader12decodeNumberERNS0_5TokenERNS_5ValueE
FNDA:0,_ZN4Json6Reader12decodeDoubleERNS0_5TokenE
FNDA:0,_ZN4Json6Reader12decodeDoubleERNS0_5TokenERNS_5ValueE
FNDA:0,_ZN4Json6Reader12decodeStringERNS0_5TokenE
FNDA:0,_ZN4Json6Reader12decodeStringERNS0_5TokenERNSt7__cxx1112basic_stringIcSt11char_traitsIcESaIcEEE
FNDA:0,_ZN4Json6Reader22decodeUnicodeCodePointERNS0_5TokenERPKcS4_Rj
FNDA:0,_ZN4Json6Reader27decodeUnicodeEscapeSequenceERNS0_5TokenERPKcS4_Rj
FNDA:0,_ZN4Json6Reader8addErrorERKNSt7__cxx1112basic_stringIcSt11char_traitsIcESaIcEEERNS0_5TokenEPKc
FNDA:0,_ZN4Json6Reader16recoverFromErrorENS0_9TokenTypeE
FNDA:0,_ZN4Json6Reader18addErrorAndRecoverERKNSt7__cxx1112basic_stringIcSt11char_traitsIcESaIcEEERNS0_5TokenENS0_9TokenTypeE
FNDA:0,_ZN4Json6Reader12currentValueEv
FNDA:0,_ZN4Json6Reader11getNextCharEv
FNDA:0,_ZNK4Json6Reader24getLocationLineAndColumnEPKcRiS3_
FNDA:0,_ZNK4Json6Reader24getLocationLineAndColumnB5cxx11EPKc
FNDA:0,_ZNK4Json6Reader24getFormatedErrorMessagesB5cxx11Ev
FNDA:0,_ZNK4Json6Reader25getFormattedErrorMessagesB5cxx11Ev
FNDA:0,_ZNK4Json6Reader19getStructuredErrorsEv
FNDA:0,_ZN4Json6Reader9pushErrorERKNS_5ValueERKNSt7__cxx1112basic_stringIcSt11char_traitsIcESaIcEEE
FNDA:0,_ZN4Json6Reader9pushErrorERKNS_5ValueERKNSt7__cxx1112basic_stringIcSt11char_traitsIcESaIcEEES3_
FNDA:0,_ZNK4Json6Reader4goodEv
FNDA:2,_ZN4Json11OurFeatures3allEv
FNDA:0,_ZN4Json9OurReader15containsNewLineEPKcS2_
FNDA:2,_ZN4Json9OurReaderC2ERKNS_11OurFeaturesE
FNDA:2,_ZN4Json9OurReader5parseEPKcS2_RNS_5ValueEb
FNDA:1808,_ZN4Json9OurReader9readValueEv
FNDA:1810,_ZN4Json9OurReader17skipCommentTokensERNS0_5TokenE
FNDA:4626,_ZN4Json9OurReader9readTokenERNS0_5TokenE
FNDA:4887,_ZN4Json9OurReader10skipSpacesEv
FNDA:900,_ZN4Json9OurReader5matchEPKci
FNDA:0,_ZN4Json9OurReader11readCommentEv
FNDA:0,_ZN4Json9OurReader12normalizeEOLB5cxx11EPKcS2_
FNDA:0,_ZN4Json9OurReader10addCommentEPKcS2_NS_16CommentPlacementE
FNDA:0,_ZN4Json9OurReader17readCStyleCommentEv
FNDA:0,_ZN4Json9OurReader19readCppStyleCommentEv
FNDA:19,_ZN4Json9OurReader10readNumberEb
FNDA:944,_ZN4Json9OurReader10readStringEv
FNDA:0,_ZN4Json9OurReader21readStringSingleQuoteEv
FNDA:155,_ZN4Json9OurReader10readObjectERNS0_5TokenE
FNDA:261,_ZN4Json9OurReader9readArrayERNS0_5TokenE
FNDA:19,_ZN4Json9OurReader12decodeNumberERNS0_5TokenE
FNDA:19,_ZN4Json9OurReader12decodeNumberERNS0_5TokenERNS_5ValueE
FNDA:0,_ZN4Json9OurReader12decodeDoubleERNS0_5TokenE
FNDA:0,_ZN4Json9OurReader12decodeDoubleERNS0_5TokenERNS_5ValueE
FNDA:473,_ZN4Json9OurReader12decodeStringERNS0_5TokenE
FNDA:944,_ZN4Json9OurReader12decodeStringERNS0_5TokenERNSt7__cxx1112basic_stringIcSt11char_traitsIcESaIcEEE
FNDA:0,_ZN4Json9OurReader22decodeUnicodeCodePointERNS0_5TokenERPKcS4_Rj
FNDA:0,_ZN4Json9OurReader27decodeUnicodeEscapeSequenceERNS0_5TokenERPKcS4_Rj
FNDA:0,_ZN4Json9OurReader8addErrorERKNSt7__cxx1112basic_stringIcSt11char_traitsIcESaIcEEERNS0_5TokenEPKc
FNDA:0,_ZN4Json9OurReader16recoverFromErrorENS0_9TokenTypeE
FNDA:0,_ZN4Json9OurReader18addErrorAndRecoverERKNSt7__cxx1112basic_stringIcSt11char_traitsIcESaIcEEERNS0_5TokenENS0_9TokenTypeE
FNDA:9038,_ZN4Json9OurReader12currentValueEv
FNDA:10999,_ZN4Json9OurReader11getNextCharEv
FNDA:0,_ZNK4Json9OurReader24getLocationLineAndColumnEPKcRiS3_
FNDA:0,_ZNK4Json9OurReader24getLocationLineAndColumnB5cxx11EPKc
FNDA:2,_ZNK4Json9OurReader25getFormattedErrorMessagesB5cxx11Ev
FNDA:0,_ZNK4Json9OurReader19getStructuredErrorsEv
FNDA:0,_ZN4Json9OurReader9pushErrorERKNS_5ValueERKNSt7__cxx1112basic_stringIcSt11char_traitsIcESaIcEEE
FNDA:0,_ZN4Json9OurReader9pushErrorERKNS_5ValueERKNSt7__cxx1112basic_stringIcSt11char_traitsIcESaIcEEES3_
FNDA:0,_ZNK4Json9OurReader4goodEv
FNDA:2,_ZN4Json13OurCharReaderC2EbRKNS_11OurFeaturesE
FNDA:2,_ZN4Json13OurCharReader5parseEPKcS2_PNS_5ValueEPNSt7__cxx1112basic_stringIcSt11char_traitsIcESaIcEEE
FNDA:2,_ZN4Json17CharReaderBuilderC2Ev
FNDA:2,_ZNK4Json17CharReaderBuilder13newCharReaderEv
FNDA:0,_ZN4JsonL18getValidReaderKeysEPSt3setINSt7__cxx1112basic_stringIcSt11char_traitsIcESaIcEEESt4lessIS6_ESaIS6_EE
FNDA:0,_ZNK4Json17CharReaderBuilder8validateEPNS_5ValueE
FNDA:0,_ZN4Json17CharReaderBuilderixERKNSt7__cxx1112basic_stringIcSt11char_traitsIcESaIcEEE
FNDA:0,_ZN4Json17CharReaderBuilder10strictModeEPNS_5ValueE
FNDA:2,_ZN4Json17CharReaderBuilder11setDefaultsEPNS_5ValueE
FNDA:2,_ZN4Json15parseFromStreamERKNS_10CharReader7FactoryERSiPNS_5ValueEPNSt7__cxx1112basic_stringIcSt11char_traitsIcESaIcEEE
FNDA:2,_ZN4JsonrsERSiRNS_5ValueE
FNDA:0,_ZN4Json17ValueIteratorBaseC2Ev
FNDA:90,_ZN4Json17ValueIteratorBaseC2ERKSt17_Rb_tree_iteratorISt4pairIKNS_5Value8CZStringES3_EE
FNDA:151,_ZNK4Json17ValueIteratorBase5derefEv
FNDA:151,_ZN4Json17ValueIteratorBase9incrementEv
FNDA:0,_ZN4Json17ValueIteratorBase9decrementEv
FNDA:0,_ZNK4Json17ValueIteratorBase15computeDistanceERKS0_
FNDA:196,_ZNK4Json17ValueIteratorBase7isEqualERKS0_
FNDA:0,_ZN4Json17ValueIteratorBase4copyERKS0_
FNDA:0,_ZNK4Json17ValueIteratorBase3keyEv
FNDA:0,_ZNK4Json17ValueIteratorBase5indexEv
FNDA:0,_ZNK4Json17ValueIteratorBase4nameB5cxx11Ev
FNDA:0,_ZNK4Json17ValueIteratorBase10memberNameEv
FNDA:0,_ZNK4Json17ValueIteratorBase10memberNameEPPKc
FNDA:90,_ZN4Json18ValueConstIteratorC2ERKSt17_Rb_tree_iteratorISt4pairIKNS_5Value8CZStringES3_EE
FNDA:0,_ZN4Json18ValueConstIteratorC2ERKNS_13ValueIteratorE
FNDA:0,_ZN4Json18ValueConstIteratoraSERKNS_17ValueIteratorBaseE
FNDA:0,_ZN4Json13ValueIteratorC2ERKSt17_Rb_tree_iteratorISt4pairIKNS_5Value8CZStringES3_EE
FNDA:0,_ZN4Json13ValueIteratorC2ERKNS_18ValueConstIteratorE
FNDA:0,_ZN4Json13ValueIteratoraSERKS0_
FNDA:6842,_ZN4JsonL11cloneUniqueISt5arrayINSt7__cxx1112basic_stringIcSt11char_traitsIcESaIcEEELm3EEEESt10unique_ptrIT_St14default_deleteISA_EERKSD_
FNDA:1828,_ZN4Json5Value13nullSingletonEv
FNDA:0,_ZN4JsonL15integerToDoubleEm
FNDA:0,_ZN4JsonL15integerToDoubleIlEEdT_
FNDA:0,_ZN4JsonL15integerToDoubleIjEEdT_
FNDA:0,_ZN4JsonL15integerToDoubleIiEEdT_
FNDA:0,_ZN4JsonL7InRangeIimEEbdT_T0_
FNDA:0,_ZN4JsonL7InRangeIllEEbdT_T0_
FNDA:0,_ZN4JsonL7InRangeIijEEbdT_T0_
FNDA:0,_ZN4JsonL7InRangeIiiEEbdT_T0_
FNDA:1435,_ZN4JsonL20duplicateStringValueEPKcm
FNDA:1264,_ZN4JsonL29duplicateAndPrefixStringValueEPKcj
FNDA:1262,_ZN4JsonL20decodePrefixedStringEbPKcPjPS1_
FNDA:1264,_ZN4JsonL26releasePrefixedStringValueEPc
FNDA:1435,_ZN4JsonL18releaseStringValueEPcj
FNDA:0,_ZN4Json9ExceptionC2ENSt7__cxx1112basic_stringIcSt11char_traitsIcESaIcEEE
FNDA:0,_ZN4Json9ExceptionD0Ev
FNDA:0,_ZN4Json9ExceptionD2Ev
FNDA:0,_ZNK4Json9Exception4whatEv
FNDA:0,_ZN4Json12RuntimeErrorC2ERKNSt7__cxx1112basic_stringIcSt11char_traitsIcESaIcEEE
FNDA:0,_ZN4Json10LogicErrorC2ERKNSt7__cxx1112basic_stringIcSt11char_traitsIcESaIcEEE
FNDA:0,_ZN4Json17throwRuntimeErrorERKNSt7__cxx1112basic_stringIcSt11char_traitsIcESaIcEEE
FNDA:0,_ZN4Json15throwLogicErrorERKNSt7__cxx1112basic_stringIcSt11char_traitsIcESaIcEEE
FNDA:2519,_ZN4Json5Value8CZStringC2Ej
FNDA:1462,_ZN4Json5Value8CZStringC2EPKcjNS1_17DuplicationPolicyE
FNDA:6624,_ZN4Json5Value8CZStringC2ERKS1_
FNDA:0,_ZN4Json5Value8CZStringC2EOS1_
FNDA:10605,_ZN4Json5Value8CZStringD2Ev
FNDA:0,_ZN4Json5Value8CZString4swapERS1_
FNDA:0,_ZN4Json5Value8CZStringaSERKS1_
FNDA:0,_ZN4Json5Value8CZStringaSEOS1_
FNDA:12890,_ZNK4Json5Value8CZStringltERKS1_
FNDA:1365,_ZNK4Json5Value8CZStringeqERKS1_
FNDA:148,_ZNK4Json5Value8CZString5indexEv
FNDA:0,_ZNK4Json5Value8CZString4dataEv
FNDA:0,_ZNK4Json5Value8CZString6lengthEv
FNDA:0,_ZNK4Json5Value8CZString14isStaticStringEv
FNDA:442,_ZN4Json5ValueC2ENS_9ValueTypeE
FNDA:2,_ZN4Json5ValueC2Ei
FNDA:0,_ZN4Json5ValueC2Ej
FNDA:19,_ZN4Json5ValueC2El
FNDA:0,_ZN4Json5ValueC2Em
FNDA:0,_ZN4Json5ValueC2Ed
FNDA:0,_ZN4Json5ValueC2EPKc
FNDA:0,_ZN4Json5ValueC2EPKcS2_
FNDA:473,_ZN4Json5ValueC2ERKNSt7__cxx1112basic_stringIcSt11char_traitsIcESaIcEEE
FNDA:0,_ZN4Json5ValueC2ERKNS_12StaticStringE
FNDA:918,_ZN4Json5ValueC2Eb
FNDA:6842,_ZN4Json5ValueC2ERKS0_
FNDA:0,_ZN4Json5ValueC2EOS0_
FNDA:8696,_ZN4Json5ValueD2Ev
FNDA:0,_ZN4Json5ValueaSERKS0_
FNDA:41,_ZN4Json5ValueaSEOS0_
FNDA:1849,_ZN4Json5Value11swapPayloadERS0_
FNDA:0,_ZN4Json5Value11copyPayloadERKS0_
FNDA:41,_ZN4Json5Value4swapERS0_
FNDA:0,_ZN4Json5Value4copyERKS0_
FNDA:36034,_ZNK4Json5Value4typeEv
FNDA:0,_ZNK4Json5Value7compareERKS0_
FNDA:0,_ZNK4Json5ValueltERKS0_
FNDA:0,_ZNK4Json5ValueleERKS0_
FNDA:0,_ZNK4Json5ValuegeERKS0_
FNDA:0,_ZNK4Json5ValuegtERKS0_
FNDA:0,_ZNK4Json5ValueeqERKS0_
FNDA:0,_ZNK4Json5ValueneERKS0_
FNDA:0,_ZNK4Json5Value9asCStringEv
FNDA:0,_ZNK4Json5Value9getStringEPPKcS3_
FNDA:471,_ZNK4Json5Value8asStringB5cxx11Ev
FNDA:7,_ZNK4Json5Value5asIntEv
FNDA:2,_ZNK4Json5Value6asUIntEv
FNDA:0,_ZNK4Json5Value7asInt64Ev
FNDA:0,_ZNK4Json5Value8asUInt64Ev
FNDA:0,_ZNK4Json5Value12asLargestIntEv
FNDA:0,_ZNK4Json5Value13asLargestUIntEv
FNDA:0,_ZNK4Json5Value8asDoubleEv
FNDA:0,_ZNK4Json5Value7asFloatEv
FNDA:918,_ZNK4Json5Value6asBoolEv
FNDA:0,_ZNK4Json5Value15isConvertibleToENS_9ValueTypeE
FNDA:216,_ZNK4Json5Value4sizeEv
FNDA:0,_ZNK4Json5Value5emptyEv
FNDA:0,_ZNK4Json5ValuecvbEv
FNDA:0,_ZN4Json5Value5clearEv
FNDA:0,_ZN4Json5Value6resizeEj
FNDA:2519,_ZN4Json5ValueixEj
FNDA:2519,_ZN4Json5ValueixEi
FNDA:0,_ZNK4Json5ValueixEj
FNDA:0,_ZNK4Json5ValueixEi
FNDA:1854,_ZN4Json5Value9initBasicENS_9ValueTypeEb
FNDA:6842,_ZN4Json5Value10dupPayloadERKS0_
FNDA:8696,_ZN4Json5Value14releasePayloadEv
FNDA:6842,_ZN4Json5Value7dupMetaERKS0_
FNDA:0,_ZN4Json5Value16resolveReferenceEPKc
FNDA:493,_ZN4Json5Value16resolveReferenceEPKcS2_
FNDA:0,_ZNK4Json5Value3getEjRKS0_
FNDA:0,_ZNK4Json5Value12isValidIndexEj
FNDA:969,_ZNK4Json5Value4findEPKcS2_
FNDA:0,_ZN4Json5Value6demandEPKcS2_
FNDA:516,_ZNK4Json5ValueixEPKc
FNDA:0,_ZNK4Json5ValueixERKNSt7__cxx1112basic_stringIcSt11char_traitsIcESaIcEEE
FNDA:22,_ZN4Json5ValueixEPKc
FNDA:471,_ZN4Json5ValueixERKNSt7__cxx1112basic_stringIcSt11char_traitsIcESaIcEEE
FNDA:0,_ZN4Json5ValueixERKNS_12StaticStringE
FNDA:0,_ZN4Json5Value6appendERKS0_
FNDA:0,_ZN4Json5Value6appendEOS0_
FNDA:0,_ZNK4Json5Value3getEPKcS2_RKS0_
FNDA:0,_ZNK4Json5Value3getEPKcRKS0_
FNDA:0,_ZNK4Json5Value3getERKNSt7__cxx1112basic_stringIcSt11char_traitsIcESaIcEEERKS0_
FNDA:0,_ZN4Json5Value12removeMemberEPKcS2_PS0_
FNDA:0,_ZN4Json5Value12removeMemberEPKcPS0_
FNDA:0,_ZN4Json5Value12removeMemberERKNSt7__cxx1112basic_stringIcSt11char_traitsIcESaIcEEEPS0_
FNDA:0,_ZN4Json5Value12removeMemberEPKc
FNDA:0,_ZN4Json5Value12removeMemberERKNSt7__cxx1112basic_stringIcSt11char_traitsIcESaIcEEE
FNDA:0,_ZN4Json5Value11removeIndexEjPS0_
FNDA:453,_ZNK4Json5Value8isMemberEPKcS2_
FNDA:453,_ZNK4Json5Value8isMemberEPKc
FNDA:0,_ZNK4Json5Value8isMemberERKNSt7__cxx1112basic_stringIcSt11char_traitsIcESaIcEEE
FNDA:0,_ZNK4Json5Value14getMemberNamesB5cxx11Ev
FNDA:0,_ZN4JsonL10IsIntegralEd
FNDA:0,_ZNK4Json5Value6isNullEv
FNDA:0,_ZNK4Json5Value6isBoolEv
FNDA:7,_ZNK4Json5Value5isIntEv
FNDA:2,_ZNK4Json5Value6isUIntEv
FNDA:0,_ZNK4Json5Value7isInt64Ev
FNDA:0,_ZNK4Json5Value8isUInt64Ev
FNDA:0,_ZNK4Json5Value10isIntegralEv
FNDA:0,_ZNK4Json5Value8isDoubleEv
FNDA:0,_ZNK4Json5Value9isNumericEv
FNDA:0,_ZNK4Json5Value8isStringEv
FNDA:0,_ZNK4Json5Value7isArrayEv
FNDA:0,_ZNK4Json5Value8isObjectEv
FNDA:0,_ZN4Json5Value8CommentsC2ERKS1_
FNDA:41,_ZN4Json5Value8CommentsC2EOS1_
FNDA:6842,_ZN4Json5Value8CommentsaSERKS1_
FNDA:1936,_ZN4Json5Value8CommentsaSEOS1_
FNDA:0,_ZNK4Json5Value8Comments3hasENS_16CommentPlacementE
FNDA:0,_ZNK4Json5Value8Comments3getB5cxx11ENS_16CommentPlacementE
FNDA:0,_ZN4Json5Value8Comments3setENS_16CommentPlacementENSt7__cxx1112basic_stringIcSt11char_traitsIcESaIcEEE
FNDA:0,_ZN4Json5Value10setCommentENSt7__cxx1112basic_stringIcSt11char_traitsIcESaIcEEENS_16CommentPlacementE
FNDA:0,_ZNK4Json5Value10hasCommentENS_16CommentPlacementE
FNDA:0,_ZNK4Json5Value10getCommentB5cxx11ENS_16CommentPlacementE
FNDA:1808,_ZN4Json5Value14setOffsetStartEl
FNDA:1808,_ZN4Json5Value14setOffsetLimitEl
FNDA:0,_ZNK4Json5Value14getOffsetStartEv
FNDA:0,_ZNK4Json5Value14getOffsetLimitEv
FNDA:0,_ZNK4Json5Value14toStyledStringB5cxx11Ev
FNDA:45,_ZNK4Json5Value5beginEv
FNDA:45,_ZNK4Json5Value3endEv
FNDA:0,_ZN4Json5Value5beginEv
FNDA:0,_ZN4Json5Value3endEv
FNDA:0,_ZN4Json12PathArgumentC2Ev
FNDA:0,_ZN4Json12PathArgumentC2Ej
FNDA:0,_ZN4Json12PathArgumentC2EPKc
FNDA:0,_ZN4Json12PathArgumentC2ERKNSt7__cxx1112basic_stringIcSt11char_traitsIcESaIcEEE
FNDA:0,_ZN4Json4PathC2ERKNSt7__cxx1112basic_stringIcSt11char_traitsIcESaIcEEERKNS_12PathArgumentESB_SB_SB_SB_
FNDA:0,_ZN4Json4Path8makePathERKNSt7__cxx1112basic_stringIcSt11char_traitsIcESaIcEEERKSt6vectorIPKNS_12PathArgumentESaISC_EE
FNDA:0,_ZN4Json4Path12addPathInArgERKNSt7__cxx1112basic_stringIcSt11char_traitsIcESaIcEEERKSt6vectorIPKNS_12PathArgumentESaISC_EERN9__gnu_cxx17__normal_iteratorIPKSC_SE_EENSA_4KindE
FNDA:0,_ZN4Json4Path11invalidPathERKNSt7__cxx1112basic_stringIcSt11char_traitsIcESaIcEEEi
FNDA:0,_ZNK4Json4Path7resolveERKNS_5ValueE
FNDA:0,_ZNK4Json4Path7resolveERKNS_5ValueES3_
FNDA:0,_ZNK4Json4Path4makeERNS_5ValueE
FNDA:0,_ZN4Json13valueToStringB5cxx11El
FNDA:0,_ZN4Json13valueToStringB5cxx11Em
FNDA:0,_ZN4Json13valueToStringB5cxx11Ei
FNDA:0,_ZN4Json13valueToStringB5cxx11Ej
FNDA:0,_ZN4Json12_GLOBAL__N_113valueToStringEdbjNS_13PrecisionTypeE
FNDA:0,_ZN4Json13valueToStringB5cxx11EdjNS_13PrecisionTypeE
FNDA:0,_ZN4Json13valueToStringB5cxx11Eb
FNDA:0,_ZN4JsonL24isAnyCharRequiredQuotingEPKcm
FNDA:0,_ZN4JsonL15utf8ToCodepointERPKcS1_
FNDA:0,_ZN4JsonL10toHex16BitEj
FNDA:0,_ZN4JsonL20valueToQuotedStringNEPKcj
FNDA:0,_ZN4Json19valueToQuotedStringB5cxx11EPKc
FNDA:0,_ZN4Json10FastWriter23enableYAMLCompatibilityEv
FNDA:0,_ZN4Json10FastWriter20dropNullPlaceholdersEv
FNDA:0,_ZN4Json10FastWriter18omitEndingLineFeedEv
FNDA:0,_ZN4Json10FastWriter5writeB5cxx11ERKNS_5ValueE
FNDA:0,_ZN4Json10FastWriter10writeValueERKNS_5ValueE
FNDA:0,_ZN4Json12StyledWriter5writeB5cxx11ERKNS_5ValueE
FNDA:0,_ZN4Json12StyledWriter10writeValueERKNS_5ValueE
FNDA:0,_ZN4Json12StyledWriter15writeArrayValueERKNS_5ValueE
FNDA:0,_ZN4Json12StyledWriter16isMultilineArrayERKNS_5ValueE
FNDA:0,_ZN4Json12StyledWriter9pushValueERKNSt7__cxx1112basic_stringIcSt11char_traitsIcESaIcEEE
FNDA:0,_ZN4Json12StyledWriter11writeIndentEv
FNDA:0,_ZN4Json12StyledWriter15writeWithIndentERKNSt7__cxx1112basic_stringIcSt11char_traitsIcESaIcEEE
FNDA:0,_ZN4Json12StyledWriter6indentEv
FNDA:0,_ZN4Json12StyledWriter8unindentEv
FNDA:0,_ZN4Json12StyledWriter23writeCommentBeforeValueERKNS_5ValueE
FNDA:0,_ZN4Json12StyledWriter32writeCommentAfterValueOnSameLineERKNS_5ValueE
FNDA:0,_ZN4Json12StyledWriter18hasCommentForValueERKNS_5ValueE
FNDA:0,_ZN4Json18StyledStreamWriterC2ENSt7__cxx1112basic_stringIcSt11char_traitsIcESaIcEEE
FNDA:0,_ZN4Json18StyledStreamWriter5writeERSoRKNS_5ValueE
FNDA:0,_ZN4Json18StyledStreamWriter10writeValueERKNS_5ValueE
FNDA:0,_ZN4Json18StyledStreamWriter15writeArrayValueERKNS_5ValueE
FNDA:0,_ZN4Json18StyledStreamWriter16isMultilineArrayERKNS_5ValueE
FNDA:0,_ZN4Json18StyledStreamWriter9pushValueERKNSt7__cxx1112basic_stringIcSt11char_traitsIcESaIcEEE
FNDA:0,_ZN4Json18StyledStreamWriter11writeIndentEv
FNDA:0,_ZN4Json18StyledStreamWriter15writeWithIndentERKNSt7__cxx1112basic_stringIcSt11char_traitsIcESaIcEEE
FNDA:0,_ZN4Json18StyledStreamWriter6indentEv
FNDA:0,_ZN4Json18StyledStreamWriter8unindentEv
FNDA:0,_ZN4Json18StyledStreamWriter23writeCommentBeforeValueERKNS_5ValueE
FNDA:0,_ZN4Json18StyledStreamWriter32writeCommentAfterValueOnSameLineERKNS_5ValueE
FNDA:0,_ZN4Json18StyledStreamWriter18hasCommentForValueERKNS_5ValueE
FNDA:0,_ZN4Json23BuiltStyledStreamWriterC2ENSt7__cxx1112basic_stringIcSt11char_traitsIcESaIcEEENS_12CommentStyle4EnumES6_S6_S6_bjNS_13PrecisionTypeE
FNDA:0,_ZN4Json23BuiltStyledStreamWriter5writeERKNS_5ValueEPSo
FNDA:0,_ZN4Json23BuiltStyledStreamWriter10writeValueERKNS_5ValueE
FNDA:0,_ZN4Json23BuiltStyledStreamWriter15writeArrayValueERKNS_5ValueE
FNDA:0,_ZN4Json23BuiltStyledStreamWriter16isMultilineArrayERKNS_5ValueE
FNDA:0,_ZN4Json23BuiltStyledStreamWriter9pushValueERKNSt7__cxx1112basic_stringIcSt11char_traitsIcESaIcEEE
FNDA:0,_ZN4Json23BuiltStyledStreamWriter11writeIndentEv
FNDA:0,_ZN4Json23BuiltStyledStreamWriter15writeWithIndentERKNSt7__cxx1112basic_stringIcSt11char_traitsIcESaIcEEE
FNDA:0,_ZN4Json23BuiltStyledStreamWriter6indentEv
FNDA:0,_ZN4Json23BuiltStyledStreamWriter8unindentEv
FNDA:0,_ZN4Json23BuiltStyledStreamWriter23writeCommentBeforeValueERKNS_5ValueE
FNDA:0,_ZN4Json23BuiltStyledStreamWriter32writeCommentAfterValueOnSameLineERKNS_5ValueE
FNDA:0,_ZN4Json23BuiltStyledStreamWriter18hasCommentForValueERKNS_5ValueE
FNDA:0,_ZN4Json12StreamWriterC2Ev
FNDA:0,_ZN4Json19StreamWriterBuilderC2Ev
FNDA:0,_ZNK4Json19StreamWriterBuilder15newStreamWriterEv
FNDA:0,_ZN4JsonL18getValidWriterKeysEPSt3setINSt7__cxx1112basic_stringIcSt11char_traitsIcESaIcEEESt4lessIS6_ESaIS6_EE
FNDA:0,_ZNK4Json19StreamWriterBuilder8validateEPNS_5ValueE
FNDA:0,_ZN4Json19StreamWriterBuilderixERKNSt7__cxx1112basic_stringIcSt11char_traitsIcESaIcEEE
FNDA:0,_ZN4Json19StreamWriterBuilder11setDefaultsEPNS_5ValueE
FNDA:0,_ZN4Json11writeStringB5cxx11ERKNS_12StreamWriter7FactoryERKNS_5ValueE
FNDA:0,_ZN4JsonlsERSoRKNS_5ValueE
FNF:342
FNH:83
DA:115,0
DA:119,0
DA:120,0
DA:125,0
DA:126,0
DA:130,0
DA:131,0
DA:132,0
DA:133,0
DA:134,0
DA:135,0
DA:136,0
DA:137,0
DA:138,0
DA:139,0
DA:140,0
DA:141,0
DA:142,0
DA:143,0
DA:144,0
DA:145,0
DA:146,0
DA:147,0
DA:150,0
DA:167,0
DA:168,0
DA:169,0
DA:170,0
DA:171,0
DA:172,0
DA:173,0
DA:180,0
DA:181,0
DA:182,0
DA:183,0
DA:186,0
DA:189,0
DA:190,0
DA:191,0
DA:192,0
DA:194,0
DA:195,0
DA:196,0
DA:205,0
DA:206,0
DA:207,0
DA:208,0
DA:211,0
DA:212,0
DA:215,0
DA:298,0
DA:300,0
DA:301,0
DA:302,0
DA:303,0
DA:304,0
DA:305,0
DA:306,0
DA:312,0
DA:313,0
DA:314,0
DA:315,0
DA:316,0
DA:322,0
DA:323,0
DA:325,0
DA:327,0
DA:328,0
DA:330,0
DA:333,0
DA:334,0
DA:335,0
DA:336,0
DA:339,0
DA:347,0
DA:348,0
DA:349,0
DA:352,0
DA:356,0
DA:357,0
DA:360,0
DA:361,0
DA:362,0
DA:363,0
DA:364,0
DA:365,0
DA:366,0
DA:367,0
DA:368,0
DA:369,0
DA:370,0
DA:372,0
DA:374,0
DA:375,0
DA:376,0
DA:377,0
DA:378,0
DA:381,0
DA:382,0
DA:383,0
DA:384,0
DA:387,0
DA:390,0
DA:393,0
DA:398,0
DA:399,0
DA:402,0
DA:403,0
DA:405,0
DA:406,0
DA:407,0
DA:410,0
DA:411,0
DA:412,0
DA:413,0
DA:414,0
DA:415,0
DA:416,0
DA:417,0
DA:418,0
DA:419,0
DA:420,0
DA:421,0
DA:422,0
DA:423,0
DA:424,0
DA:425,0
DA:426,0
DA:427,0
DA:428,0
DA:429,0
DA:430,0
DA:431,0
DA:432,0
DA:433,0
DA:434,0
DA:435,0
DA:436,0
DA:437,0
DA:438,0
DA:439,0
DA:440,0
DA:441,0
DA:442,0
DA:443,0
DA:446,0
DA:449,0
DA:450,0
DA:451,0
DA:452,0
DA:453,0
DA:454,0
DA:455,0
DA:457,0
DA:458,0
DA:459,0
DA:462,0
DA:463,0
DA:464,0
DA:467,0
DA:470,0
DA:471,0
DA:472,0
DA:473,0
DA:474,0
DA:476,0
DA:478,0
DA:480,0
DA:481,0
DA:482,0
DA:483,0
DA:484,0
DA:485,0
DA:486,0
DA:487,0
DA:488,0
DA:489,0
DA:490,0
DA:491,0
DA:492,0
DA:493,0
DA:494,0
DA:495,0
DA:496,0
DA:497,0
DA:498,0
DA:499,0
DA:500,0
DA:501,0
DA:502,0
DA:503,0
DA:504,0
DA:505,0
DA:506,0
DA:517,0
DA:518,0
DA:519,0
DA:520,0
DA:521,0
DA:522,0
DA:523,0
DA:524,0
DA:525,0
DA:526,0
DA:527,0
DA:528,0
DA:529,0
DA:530,0
DA:531,0
DA:532,0
DA:533,0
DA:534,0
DA:535,0
DA:536,0
DA:537,0
DA:538,0
DA:539,0
DA:540,0
DA:541,0
DA:542,0
DA:543,0
DA:545,0
DA:546,0
DA:547,0
DA:548,0
DA:551,0
DA:552,0
DA:553,0
DA:554,0
DA:555,0
DA:559,0
DA:561,0
DA:562,0
DA:563,0
DA:564,0
DA:565,0
DA:566,0
DA:567,0
DA:568,0
DA:569,0
DA:572,0
DA:573,0
DA:574,0
DA:575,0
DA:576,0
DA:577,0
DA:578,0
DA:579,0
DA:580,0
DA:581,0
DA:583,0
DA:584,0
DA:585,0
DA:586,0
DA:587,0
DA:590,0
DA:592,0
DA:595,0
DA:596,0
DA:597,0
DA:598,0
DA:599,0
DA:600,0
DA:601,0
DA:602,0
DA:604,0
DA:606,0
DA:608,0
DA:611,0
DA:614,0
DA:617,0
DA:618,0
DA:619,0
DA:620,0
DA:621,0
DA:623,0
DA:625,0
DA:627,0
DA:628,0
DA:629,0
DA:630,0
DA:631,0
DA:633,0
DA:636,0
DA:637,0
DA:638,0
DA:639,0
DA:640,0
DA:641,0
DA:643,0
DA:644,0
DA:646,0
DA:649,0
DA:652,0
DA:653,0
DA:654,0
DA:656,0
DA:657,0
DA:659,0
DA:660,0
DA:661,0
DA:662,0
DA:665,0
DA:666,0
DA:667,0
DA:668,0
DA:669,0
DA:670,0
DA:672,0
DA:674,0
DA:675,0
DA:676,0
DA:677,0
DA:678,0
DA:679,0
DA:680,0
DA:681,0
DA:683,0
DA:686,0
DA:688,0
DA:689,0
DA:690,0
DA:691,0
DA:692,0
DA:693,0
DA:694,0
DA:695,0
DA:696,0
DA:697,0
DA:698,0
DA:699,0
DA:700,0
DA:701,0
DA:702,0
DA:703,0
DA:704,0
DA:705,0
DA:706,0
DA:707,0
DA:708,0
DA:714,0
DA:715,0
DA:716,0
DA:718,0
DA:719,0
DA:720,0
DA:721,0
DA:722,0
DA:723,0
DA:726,0
DA:727,0
DA:728,0
DA:729,0
DA:730,0
DA:732,0
DA:733,0
DA:734,0
DA:735,0
DA:736,0
DA:738,0
DA:739,0
DA:742,0
DA:743,0
DA:744,0
DA:745,0
DA:746,0
DA:747,0
DA:750,0
DA:751,0
DA:753,0
DA:755,0
DA:756,0
DA:757,0
DA:758,0
DA:759,0
DA:760,0
DA:764,0
DA:765,0
DA:766,0
DA:768,0
DA:769,0
DA:770,0
DA:771,0
DA:772,0
DA:774,0
DA:775,0
DA:776,0
DA:777,0
DA:780,0
DA:781,0
DA:782,0
DA:783,0
DA:784,0
DA:785,0
DA:786,0
DA:787,0
DA:790,0
DA:794,0
DA:795,0
DA:796,0
DA:797,0
DA:800,0
DA:801,0
DA:803,0
DA:804,0
DA:805,0
DA:806,0
DA:807,0
DA:808,0
DA:809,0
DA:810,0
DA:815,0
DA:816,0
DA:817,0
DA:820,0
DA:822,0
DA:823,0
DA:824,0
DA:825,0
DA:826,0
DA:827,0
DA:829,0
DA:830,0
DA:833,0
DA:834,0
DA:835,0
DA:836,0
DA:837,0
DA:838,0
DA:839,0
DA:840,0
DA:843,0
DA:844,0
DA:845,0
DA:846,0
DA:847,0
DA:848,0
DA:849,0
DA:850,0
DA:851,0
DA:854,0
DA:855,0
DA:856,0
DA:857,0
DA:858,0
DA:859,0
DA:860,0
DA:861,0
DA:862,0
DA:865,0
DA:866,0
DA:867,0
DA:868,0
DA:869,0
DA:870,0
DA:871,0
DA:872,0
DA:873,0
DA:874,0
DA:875,0
DA:876,0
DA:877,0
DA:878,0
DA:879,0
DA:880,0
DA:881,0
DA:882,0
DA:883,0
DA:884,0
DA:885,0
DA:886,0
DA:887,0
DA:888,0
DA:889,0
DA:890,0
DA:891,0
DA:892,0
DA:893,0
DA:894,0
DA:895,0
DA:896,0
DA:897,0
DA:898,0
DA:899,0
DA:900,0
DA:901,0
DA:902,0
DA:904,0
DA:905,0
DA:906,0
DA:907,0
DA:908,0
DA:909,0
DA:912,0
DA:915,0
DA:918,0
DA:923,0
DA:924,0
DA:925,0
DA:927,0
DA:928,0
DA:930,0
DA:931,0
DA:933,0
DA:934,0
DA:936,0
DA:938,0
DA:940,0
DA:942,0
DA:945,0
DA:949,0
DA:950,0
DA:952,0
DA:953,0
DA:954,0
DA:955,0
DA:956,0
DA:957,0
DA:958,0
DA:959,0
DA:960,0
DA:961,0
DA:962,0
DA:964,0
DA:966,0
DA:968,0
DA:969,0
DA:972,0
DA:973,0
DA:974,0
DA:975,0
DA:976,0
DA:977,0
DA:978,0
DA:981,0
DA:982,0
DA:985,0
DA:986,0
DA:987,0
DA:990,0
DA:991,0
DA:994,0
DA:997,0
DA:998,0
DA:1001,0
DA:1003,0
DA:1004,0
DA:1005,0
DA:1006,0
DA:1009,0
DA:1012,0
DA:1013,0
DA:1014,0
DA:1015,0
DA:1016,0
DA:1017,0
DA:1018,0
DA:1019,0
DA:1020,0
DA:1021,0
DA:1022,0
DA:1023,0
DA:1024,0
DA:1028,0
DA:1029,0
DA:1030,0
DA:1032,0
DA:1034,0
DA:1036,0
DA:1037,0
DA:1041,0
DA:1042,0
DA:1045,0
DA:1046,0
DA:1047,0
DA:1049,0
DA:1050,0
DA:1051,0
DA:1053,0
DA:1055,0
DA:1058,0
DA:1059,0
DA:1060,0
DA:1061,0
DA:1062,0
DA:1063,0
DA:1064,0
DA:1065,0
DA:1067,0
DA:1070,0
DA:1071,0
DA:1072,0
DA:1073,0
DA:1075,0
DA:1076,0
DA:1077,0
DA:1078,0
DA:1079,0
DA:1080,0
DA:1081,0
DA:1082,0
DA:1083,0
DA:1086,0
DA:1089,0
DA:1090,0
DA:1091,0
DA:1092,0
DA:1094,0
DA:1095,0
DA:1096,0
DA:1097,0
DA:1098,0
DA:1099,0
DA:1100,0
DA:1101,0
DA:1102,0
DA:1105,0
DA:1123,2
DA:1251,0
DA:1253,0
DA:1254,0
DA:1255,0
DA:1256,0
DA:1259,2
DA:1261,2
DA:1262,2
DA:1264,2
DA:1268,2
DA:1269,0
DA:1272,2
DA:1273,2
DA:1274,2
DA:1275,2
DA:1276,2
DA:1277,2
DA:1278,2
DA:1279,2
DA:1280,2
DA:1281,0
DA:1282,2
DA:1284,2
DA:1285,2
DA:1287,2
DA:1288,2
DA:1289,0
DA:1290,0
DA:1291,0
DA:1292,0
DA:1295,2
DA:1296,0
DA:1297,2
DA:1298,0
DA:1301,0
DA:1302,0
DA:1303,0
DA:1304,0
DA:1307,0
DA:1310,2
DA:1313,1808
DA:1315,1808
DA:1316,0
DA:1318,1808
DA:1319,1808
DA:1321,1808
DA:1322,0
DA:1323,0
DA:1326,1808
DA:1327,155
DA:1328,155
DA:1329,155
DA:1330,155
DA:1331,261
DA:1332,261
DA:1333,261
DA:1334,261
DA:1335,19
DA:1336,19
DA:1337,19
DA:1338,473
DA:1339,473
DA:1340,473
DA:1341,229
DA:1342,458
DA:1343,229
DA:1344,229
DA:1345,229
DA:1346,229
DA:1347,671
DA:1348,1342
DA:1349,671
DA:1350,671
DA:1351,671
DA:1352,671
DA:1353,0
DA:1354,0
DA:1355,0
DA:1356,0
DA:1357,0
DA:1358,0
DA:1359,0
DA:1360,0
DA:1361,0
DA:1362,0
DA:1363,0
DA:1364,0
DA:1365,0
DA:1366,0
DA:1367,0
DA:1368,0
DA:1369,0
DA:1370,0
DA:1371,0
DA:1372,0
DA:1373,0
DA:1374,0
DA:1375,0
DA:1376,0
DA:1377,0
DA:1380,0
DA:1383,0
DA:1384,0
DA:1385,0
DA:1386,0
DA:1387,0
DA:1388,0
DA:1389,0
DA:1391,0
DA:1392,0
DA:1393,0
DA:1396,1808
DA:1397,1808
DA:1398,1808
DA:1401,1808
DA:1404,1810
DA:1405,1810
DA:1406,0
DA:1407,1810
DA:1408,1810
DA:1410,0
DA:1412,1810
DA:1414,4626
DA:1415,4626
DA:1416,4626
DA:1417,4626
DA:1418,4626
DA:1419,4626
DA:1420,155
DA:1421,155
DA:1422,155
DA:1423,155
DA:1424,155
DA:1425,155
DA:1426,261
DA:1427,261
DA:1428,261
DA:1429,261
DA:1430,261
DA:1431,261
DA:1432,944
DA:1433,944
DA:1434,944
DA:1435,944
DA:1436,0
DA:1437,0
DA:1438,0
DA:1439,0
DA:1440,0
DA:1443,0
DA:1444,0
DA:1445,0
DA:1446,19
DA:1456,19
DA:1457,19
DA:1458,19
DA:1459,0
DA:1460,0
DA:1461,0
DA:1463,0
DA:1464,0
DA:1466,0
DA:1467,229
DA:1468,229
DA:1469,229
DA:1470,229
DA:1471,671
DA:1472,671
DA:1473,671
DA:1474,671
DA:1475,0
DA:1476,0
DA:1477,0
DA:1478,0
DA:1479,0
DA:1480,0
DA:1481,0
DA:1482,0
DA:1484,0
DA:1486,0
DA:1487,0
DA:1488,0
DA:1489,0
DA:1490,0
DA:1492,0
DA:1494,0
DA:1495,1458
DA:1496,1458
DA:1497,1458
DA:1498,471
DA:1499,471
DA:1500,471
DA:1501,2
DA:1502,2
DA:1503,2
DA:1504,0
DA:1505,0
DA:1506,0
DA:1508,4626
DA:1509,0
DA:1510,4626
DA:1511,4626
DA:1514,22910
DA:1515,22910
DA:1516,22908
DA:1517,22908
DA:1518,18023
DA:1522,4887
DA:1524,900
DA:1525,900
DA:1526,0
DA:1527,900
DA:1528,4271
DA:1529,3371
DA:1530,0
DA:1531,900
DA:1532,900
DA:1535,0
DA:1536,0
DA:1537,0
DA:1538,0
DA:1539,0
DA:1540,0
DA:1541,0
DA:1542,0
DA:1543,0
DA:1544,0
DA:1546,0
DA:1547,0
DA:1548,0
DA:1549,0
DA:1550,0
DA:1553,0
DA:1555,0
DA:1558,0
DA:1560,0
DA:1561,0
DA:1562,0
DA:1563,0
DA:1564,0
DA:1565,0
DA:1566,0
DA:1568,0
DA:1570,0
DA:1572,0
DA:1575,0
DA:1578,0
DA:1581,0
DA:1582,0
DA:1583,0
DA:1584,0
DA:1585,0
DA:1587,0
DA:1589,0
DA:1591,0
DA:1592,0
DA:1593,0
DA:1594,0
DA:1595,0
DA:1597,0
DA:1600,0
DA:1601,0
DA:1602,0
DA:1603,0
DA:1604,0
DA:1605,0
DA:1607,0
DA:1608,0
DA:1610,0
DA:1613,0
DA:1616,19
DA:1617,19
DA:1618,19
DA:1619,0
DA:1620,0
DA:1622,19
DA:1624,60
DA:1625,41
DA:1627,19
DA:1628,0
DA:1629,0
DA:1630,0
DA:1633,19
DA:1634,0
DA:1635,0
DA:1636,0
DA:1637,0
DA:1638,0
DA:1640,19
DA:1642,944
DA:1643,944
DA:1644,6373
DA:1645,6373
DA:1646,6373
DA:1647,0
DA:1648,6373
DA:1649,944
DA:1651,944
DA:1654,0
DA:1655,0
DA:1656,0
DA:1657,0
DA:1658,0
DA:1659,0
DA:1660,0
DA:1661,0
DA:1663,0
DA:1666,155
DA:1668,310
DA:1669,310
DA:1670,155
DA:1671,155
DA:1672,471
DA:1673,471
DA:1674,471
DA:1675,0
DA:1676,471
DA:1677,0
DA:1678,471
DA:1679,155
DA:1680,471
DA:1681,471
DA:1682,471
DA:1683,0
DA:1684,0
DA:1685,0
DA:1686,0
DA:1687,0
DA:1688,0
DA:1692,471
DA:1693,0
DA:1694,471
DA:1695,0
DA:1696,0
DA:1700,471
DA:1701,0
DA:1702,0
DA:1704,471
DA:1705,471
DA:1706,471
DA:1707,471
DA:1708,471
DA:1709,0
DA:1712,942
DA:1713,471
DA:1714,0
DA:1715,0
DA:1716,0
DA:1718,471
DA:1719,471
DA:1720,0
DA:1721,471
DA:1722,155
DA:1724,0
DA:1725,0
DA:1728,261
DA:1729,522
DA:1730,261
DA:1731,261
DA:1732,261
DA:1733,261
DA:1736,68
DA:1737,68
DA:1739,193
DA:1741,1335
DA:1742,1335
DA:1743,1335
DA:1744,1335
DA:1745,1335
DA:1746,0
DA:1750,1335
DA:1751,1335
DA:1752,0
DA:1754,1528
DA:1755,193
DA:1756,1335
DA:1757,0
DA:1758,0
DA:1760,1335
DA:1761,193
DA:1762,1142
DA:1763,193
DA:1766,19
DA:1767,38
DA:1768,19
DA:1769,0
DA:1770,19
DA:1771,19
DA:1772,19
DA:1773,19
DA:1776,19
DA:1780,19
DA:1781,19
DA:1782,19
DA:1783,0
DA:1786,19
DA:1787,19
DA:1789,19
DA:1791,19
DA:1793,19
DA:1794,19
DA:1795,19
DA:1797,19
DA:1798,60
DA:1799,41
DA:1800,41
DA:1801,0
DA:1803,41
DA:1804,41
DA:1810,0
DA:1811,0
DA:1814,41
DA:1817,19
DA:1818,0
DA:1819,19
DA:1820,19
DA:1822,0
DA:1824,19
DA:1827,0
DA:1828,0
DA:1829,0
DA:1830,0
DA:1831,0
DA:1832,0
DA:1833,0
DA:1834,0
DA:1837,0
DA:1838,0
DA:1839,0
DA:1841,0
DA:1844,0
DA:1845,0
DA:1847,0
DA:1854,0
DA:1856,0
DA:1858,0
DA:1859,0
DA:1860,0
DA:1861,0
DA:1863,0
DA:1864,0
DA:1867,0
DA:1868,0
DA:1869,0
DA:1870,0
DA:1871,0
DA:1874,473
DA:1875,946
DA:1876,473
DA:1877,0
DA:1878,473
DA:1879,473
DA:1880,473
DA:1881,473
DA:1882,473
DA:1885,944
DA:1886,944
DA:1887,944
DA:1888,944
DA:1889,6373
DA:1890,5429
DA:1891,5429
DA:1892,0
DA:1893,5429
DA:1894,0
DA:1895,0
DA:1896,0
DA:1897,0
DA:1898,0
DA:1899,0
DA:1900,0
DA:1901,0
DA:1902,0
DA:1903,0
DA:1904,0
DA:1905,0
DA:1906,0
DA:1907,0
DA:1908,0
DA:1909,0
DA:1910,0
DA:1911,0
DA:1912,0
DA:1913,0
DA:1914,0
DA:1915,0
DA:1916,0
DA:1917,0
DA:1918,0
DA:1919,0
DA:1920,0
DA:1921,0
DA:1922,0
DA:1924,0
DA:1925,0
DA:1926,0
DA:1927,0
DA:1928,0
DA:1929,0
DA:1932,5429
DA:1935,944
DA:1938,0
DA:1943,0
DA:1944,0
DA:1945,0
DA:1947,0
DA:1948,0
DA:1950,0
DA:1951,0
DA:1953,0
DA:1954,0
DA:1956,0
DA:1958,0
DA:1960,0
DA:1962,0
DA:1965,0
DA:1969,0
DA:1970,0
DA:1972,0
DA:1973,0
DA:1974,0
DA:1975,0
DA:1976,0
DA:1977,0
DA:1978,0
DA:1979,0
DA:1980,0
DA:1981,0
DA:1982,0
DA:1984,0
DA:1986,0
DA:1988,0
DA:1989,0
DA:1992,0
DA:1993,0
DA:1994,0
DA:1995,0
DA:1996,0
DA:1997,0
DA:1998,0
DA:2001,0
DA:2002,0
DA:2005,0
DA:2006,0
DA:2007,0
DA:2010,0
DA:2011,0
DA:2014,0
DA:2017,0
DA:2018,0
DA:2021,9038
DA:2023,10999
DA:2024,10999
DA:2025,2
DA:2026,10997
DA:2029,0
DA:2032,0
DA:2033,0
DA:2034,0
DA:2035,0
DA:2036,0
DA:2037,0
DA:2038,0
DA:2039,0
DA:2040,0
DA:2041,0
DA:2042,0
DA:2043,0
DA:2044,0
DA:2048,0
DA:2049,0
DA:2050,0
DA:2052,0
DA:2054,0
DA:2056,0
DA:2057,0
DA:2060,2
DA:2061,2
DA:2062,2
DA:2064,0
DA:2065,0
DA:2066,0
DA:2068,0
DA:2070,2
DA:2073,0
DA:2074,0
DA:2075,0
DA:2076,0
DA:2077,0
DA:2078,0
DA:2079,0
DA:2080,0
DA:2082,0
DA:2085,0
DA:2086,0
DA:2087,0
DA:2088,0
DA:2090,0
DA:2091,0
DA:2092,0
DA:2093,0
DA:2094,0
DA:2095,0
DA:2096,0
DA:2097,0
DA:2098,0
DA:2101,0
DA:2104,0
DA:2105,0
DA:2106,0
DA:2107,0
DA:2109,0
DA:2110,0
DA:2111,0
DA:2112,0
DA:2113,0
DA:2114,0
DA:2115,0
DA:2116,0
DA:2117,0
DA:2120,0
DA:2127,2
DA:2128,2
DA:2129,2
DA:2133,2
DA:2134,2
DA:2135,2
DA:2137,2
DA:2141,2
DA:2143,2
DA:2144,2
DA:2145,2
DA:2146,2
DA:2147,2
DA:2148,2
DA:2149,2
DA:2150,2
DA:2151,2
DA:2155,2
DA:2156,2
DA:2157,2
DA:2158,2
DA:2159,2
DA:2161,0
DA:2162,0
DA:2163,0
DA:2164,0
DA:2165,0
DA:2166,0
DA:2167,0
DA:2168,0
DA:2169,0
DA:2170,0
DA:2171,0
DA:2172,0
DA:2173,0
DA:2174,0
DA:2175,0
DA:2176,0
DA:2177,0
DA:2178,0
DA:2179,0
DA:2180,0
DA:2181,0
DA:2182,0
DA:2183,0
DA:2184,0
DA:2185,0
DA:2186,0
DA:2189,0
DA:2191,0
DA:2192,0
DA:2195,0
DA:2197,0
DA:2198,0
DA:2199,0
DA:2200,0
DA:2201,0
DA:2202,0
DA:2203,0
DA:2204,0
DA:2205,0
DA:2207,0
DA:2209,2
DA:2211,2
DA:2212,2
DA:2213,2
DA:2214,2
DA:2215,2
DA:2216,2
DA:2217,2
DA:2218,2
DA:2219,2
DA:2220,2
DA:2222,2
DA:2227,2
DA:2231,4
DA:2232,2
DA:2233,4
DA:2234,2
DA:2235,2
DA:2237,4
DA:2238,4
DA:2241,2
DA:2242,4
DA:2243,2
DA:2244,2
DA:2245,2
DA:2246,0
DA:2248,4
DA:2283,0
DA:2285,90
DA:2286,90
DA:2287,90
DA:2289,151
DA:2291,151
DA:2293,0
DA:2296,0
DA:2305,0
DA:2306,0
DA:2314,0
DA:2315,0
DA:2316,0
DA:2317,0
DA:2319,0
DA:2323,196
DA:2324,196
DA:2325,0
DA:2327,196
DA:2330,0
DA:2331,0
DA:2332,0
DA:2333,0
DA:2335,0
DA:2336,0
DA:2337,0
DA:2338,0
DA:2339,0
DA:2340,0
DA:2342,0
DA:2345,0
DA:2346,0
DA:2347,0
DA:2348,0
DA:2349,0
DA:2352,0
DA:2355,0
DA:2356,0
DA:2357,0
DA:2358,0
DA:2361,0
DA:2362,0
DA:2363,0
DA:2366,0
DA:2367,0
DA:2368,0
DA:2369,0
DA:2370,0
DA:2372,0
DA:2373,0
DA:2386,90
DA:2387,90
DA:2388,90
DA:2390,0
DA:2391,0
DA:2393,0
DA:2395,0
DA:2396,0
DA:2409,0
DA:2410,0
DA:2412,0
DA:2413,0
DA:2414,0
DA:2419,0
DA:2420,0
DA:2421,0
DA:2496,6842
DA:2497,6842
DA:2498,6842
DA:2499,0
DA:2501,6842
DA:2514,1828
DA:2515,1828
DA:2516,1828
DA:2556,0
DA:2557,0
DA:2558,0
DA:2561,0
DA:2562,0
DA:2564,0
DA:2565,0
DA:2567,0
DA:2568,0
DA:2570,0
DA:2571,0
DA:2575,0
DA:2576,0
DA:2578,0
DA:2579,0
DA:2581,0
DA:2582,0
DA:2584,0
DA:2585,0
DA:2587,0
DA:2588,0
DA:2599,1435
DA:2602,1435
DA:2603,0
DA:2605,1435
DA:2606,1435
DA:2607,0
DA:2610,1435
DA:2611,1435
DA:2612,1435
DA:2617,1264
DA:2621,1264
DA:2625,1264
DA:2626,1264
DA:2627,1264
DA:2628,0
DA:2631,1264
DA:2632,1264
DA:2633,1264
DA:2635,1264
DA:2637,1262
DA:2641,1262
DA:2642,0
DA:2643,0
DA:2645,1262
DA:2646,1262
DA:2648,1262
DA:2668,1264
DA:2669,1435
DA:2689,0
DA:2690,0
DA:2691,0
DA:2692,0
DA:2693,0
DA:2694,0
DA:2695,0
DA:2697,0
DA:2714,2519
DA:2716,1462
DA:2718,1462
DA:2719,1462
DA:2721,1462
DA:2722,1462
DA:2723,1462
DA:2725,6624
DA:2726,5275
DA:2727,11899
DA:2729,6624
DA:2731,6624
DA:2732,1435
DA:2736,6624
DA:2738,6624
DA:2739,6624
DA:2741,0
DA:2742,0
DA:2743,0
DA:2744,0
DA:2746,21210
DA:2747,10605
DA:2748,1435
DA:2749,1435
DA:2754,10605
DA:2756,0
DA:2757,0
DA:2758,0
DA:2759,0
DA:2761,0
DA:2762,0
DA:2763,0
DA:2764,0
DA:2767,0
DA:2768,0
DA:2769,0
DA:2770,0
DA:2771,0
DA:2774,12890
DA:2775,12890
DA:2776,9052
DA:2779,3838
DA:2780,3838
DA:2781,3838
DA:2782,3838
DA:2783,3838
DA:2784,3838
DA:2785,1181
DA:2786,2657
DA:2787,717
DA:2788,1940
DA:2791,1365
DA:2792,1365
DA:2793,1184
DA:2796,181
DA:2797,181
DA:2798,181
DA:2799,67
DA:2800,114
DA:2801,114
DA:2802,114
DA:2805,148
DA:2808,0
DA:2809,0
DA:2810,0
DA:2811,0
DA:2826,442
DA:2828,442
DA:2829,442
DA:2830,24
DA:2831,24
DA:2832,0
DA:2834,0
DA:2835,0
DA:2836,0
DA:2837,0
DA:2838,0
DA:2839,0
DA:2841,0
DA:2842,0
DA:2843,418
DA:2845,418
DA:2846,418
DA:2847,0
DA:2848,0
DA:2849,0
DA:2850,0
DA:2851,0
DA:2853,442
DA:2855,2
DA:2856,2
DA:2857,2
DA:2858,2
DA:2860,0
DA:2861,0
DA:2862,0
DA:2863,0
DA:2865,19
DA:2866,19
DA:2867,19
DA:2868,19
DA:2869,0
DA:2870,0
DA:2871,0
DA:2872,0
DA:2875,0
DA:2876,0
DA:2877,0
DA:2878,0
DA:2880,0
DA:2881,0
DA:2882,0
DA:2884,0
DA:2885,0
DA:2886,0
DA:2888,0
DA:2889,0
DA:2890,0
DA:2891,0
DA:2892,0
DA:2894,473
DA:2895,473
DA:2896,473
DA:2897,473
DA:2898,473
DA:2900,0
DA:2901,0
DA:2902,0
DA:2903,0
DA:2913,918
DA:2914,918
DA:2915,918
DA:2916,918
DA:2918,6842
DA:2919,6842
DA:2920,6842
DA:2921,6842
DA:2923,0
DA:2924,0
DA:2925,0
DA:2926,0
DA:2928,26088
DA:2929,8696
DA:2930,8696
DA:2931,8696
DA:2933,0
DA:2934,0
DA:2935,0
DA:2938,41
DA:2939,41
DA:2940,41
DA:2943,1849
DA:2944,1849
DA:2945,1849
DA:2946,1849
DA:2948,0
DA:2949,0
DA:2950,0
DA:2951,0
DA:2953,41
DA:2954,41
DA:2955,41
DA:2956,41
DA:2957,41
DA:2958,41
DA:2960,0
DA:2961,0
DA:2962,0
DA:2963,0
DA:2965,36034
DA:2966,36034
DA:2969,0
DA:2970,0
DA:2971,0
DA:2972,0
DA:2973,0
DA:2974,0
DA:2977,0
DA:2978,0
DA:2979,0
DA:2980,0
DA:2981,0
DA:2982,0
DA:2983,0
DA:2984,0
DA:2985,0
DA:2986,0
DA:2987,0
DA:2988,0
DA:2989,0
DA:2990,0
DA:2991,0
DA:2992,0
DA:2993,0
DA:2994,0
DA:2995,0
DA:2997,0
DA:3003,0
DA:3005,0
DA:3007,0
DA:3008,0
DA:3009,0
DA:3010,0
DA:3011,0
DA:3012,0
DA:3013,0
DA:3014,0
DA:3016,0
DA:3018,0
DA:3019,0
DA:3020,0
DA:3021,0
DA:3023,0
DA:3024,0
DA:3029,0
DA:3031,0
DA:3033,0
DA:3035,0
DA:3036,0
DA:3037,0
DA:3038,0
DA:3039,0
DA:3040,0
DA:3041,0
DA:3042,0
DA:3043,0
DA:3044,0
DA:3045,0
DA:3046,0
DA:3047,0
DA:3048,0
DA:3049,0
DA:3050,0
DA:3051,0
DA:3057,0
DA:3059,0
DA:3061,0
DA:3062,0
DA:3063,0
DA:3064,0
DA:3065,0
DA:3067,0
DA:3069,0
DA:3070,0
DA:3071,0
DA:3072,0
DA:3077,0
DA:3079,0
DA:3080,0
DA:3082,0
DA:3083,0
DA:3086,0
DA:3088,0
DA:3105,0
DA:3106,0
DA:3107,0
DA:3108,0
DA:3109,0
DA:3111,0
DA:3113,0
DA:3114,0
DA:3117,471
DA:3118,471
DA:3119,0
DA:3120,0
DA:3121,471
DA:3122,471
DA:3123,0
DA:3126,471
DA:3128,471
DA:3130,0
DA:3131,0
DA:3132,0
DA:3133,0
DA:3134,0
DA:3135,0
DA:3136,0
DA:3137,0
DA:3138,0
DA:3139,0
DA:3152,7
DA:3153,7
DA:3154,7
DA:3155,7
DA:3156,7
DA:3157,0
DA:3158,0
DA:3159,0
DA:3160,0
DA:3161,0
DA:3163,0
DA:3164,0
DA:3165,0
DA:3166,0
DA:3167,0
DA:3168,0
DA:3169,0
DA:3171,0
DA:3174,2
DA:3175,2
DA:3176,2
DA:3177,2
DA:3178,2
DA:3179,0
DA:3180,0
DA:3181,0
DA:3182,0
DA:3183,0
DA:3185,0
DA:3186,0
DA:3187,0
DA:3188,0
DA:3189,0
DA:3190,0
DA:3191,0
DA:3193,0
DA:3198,0
DA:3199,0
DA:3200,0
DA:3201,0
DA:3202,0
DA:3203,0
DA:3204,0
DA:3205,0
DA:3206,0
DA:3208,0
DA:3209,0
DA:3210,0
DA:3211,0
DA:3212,0
DA:3213,0
DA:3214,0
DA:3216,0
DA:3219,0
DA:3220,0
DA:3221,0
DA:3222,0
DA:3223,0
DA:3224,0
DA:3225,0
DA:3226,0
DA:3227,0
DA:3229,0
DA:3230,0
DA:3231,0
DA:3232,0
DA:3233,0
DA:3234,0
DA:3235,0
DA:3237,0
DA:3241,0
DA:3245,0
DA:3249,0
DA:3253,0
DA:3257,0
DA:3258,0
DA:3259,0
DA:3260,0
DA:3261,0
DA:3265,0
DA:3267,0
DA:3268,0
DA:3269,0
DA:3270,0
DA:3271,0
DA:3272,0
DA:3273,0
DA:3274,0
DA:3276,0
DA:3279,0
DA:3280,0
DA:3281,0
DA:3282,0
DA:3283,0
DA:3288,0
DA:3290,0
DA:3291,0
DA:3292,0
DA:3293,0
DA:3294,0
DA:3295,0
DA:3296,0
DA:3297,0
DA:3299,0
DA:3302,918
DA:3303,918
DA:3304,918
DA:3305,918
DA:3306,0
DA:3307,0
DA:3308,0
DA:3309,0
DA:3310,0
DA:3311,0
DA:3312,0
DA:3314,0
DA:3315,0
DA:3317,0
DA:3318,0
DA:3320,0
DA:3323,0
DA:3324,0
DA:3325,0
DA:3326,0
DA:3327,0
DA:3328,0
DA:3329,0
DA:3330,0
DA:3331,0
DA:3332,0
DA:3333,0
DA:3334,0
DA:3335,0
DA:3336,0
DA:3337,0
DA:3338,0
DA:3339,0
DA:3340,0
DA:3341,0
DA:3342,0
DA:3343,0
DA:3344,0
DA:3345,0
DA:3346,0
DA:3347,0
DA:3348,0
DA:3349,0
DA:3350,0
DA:3352,0
DA:3357,216
DA:3358,216
DA:3359,0
DA:3365,0
DA:3366,216
DA:3367,216
DA:3368,148
DA:3369,148
DA:3370,148
DA:3371,68
DA:3372,68
DA:3373,0
DA:3374,0
DA:3376,0
DA:3380,0
DA:3381,0
DA:3382,0
DA:3384,0
DA:3387,0
DA:3389,0
DA:3390,0
DA:3393,0
DA:3394,0
DA:3395,0
DA:3396,0
DA:3398,0
DA:3399,0
DA:3400,0
DA:3401,0
DA:3403,0
DA:3405,0
DA:3406,0
DA:3408,0
DA:3409,0
DA:3410,0
DA:3411,0
DA:3412,0
DA:3413,0
DA:3414,0
DA:3416,0
DA:3417,0
DA:3419,0
DA:3421,0
DA:3423,2519
DA:3424,2519
DA:3427,2519
DA:3428,0
DA:3429,5038
DA:3430,2519
DA:3431,2519
DA:3432,1184
DA:3434,1335
DA:3435,1335
DA:3436,1335
DA:3439,2519
DA:3440,2519
DA:3443,2519
DA:3446,0
DA:3447,0
DA:3450,0
DA:3451,0
DA:3452,0
DA:3453,0
DA:3454,0
DA:3455,0
DA:3456,0
DA:3459,0
DA:3460,0
DA:3463,0
DA:3466,1854
DA:3467,1854
DA:3468,1854
DA:3469,1854
DA:3470,1854
DA:3471,1854
DA:3472,1854
DA:3474,6842
DA:3475,6842
DA:3476,6842
DA:3477,6842
DA:3478,5423
DA:3483,5423
DA:3484,5423
DA:3485,791
DA:3486,791
DA:3489,791
DA:3491,791
DA:3492,791
DA:3494,0
DA:3496,791
DA:3497,628
DA:3499,628
DA:3500,628
DA:3501,0
DA:3502,0
DA:3504,6842
DA:3506,8696
DA:3507,8696
DA:3508,6386
DA:3513,6386
DA:3514,1264
DA:3515,1264
DA:3516,1264
DA:3517,1264
DA:3518,1046
DA:3520,1046
DA:3521,1046
DA:3522,0
DA:3523,0
DA:3525,8696
DA:3527,6842
DA:3528,6842
DA:3529,6842
DA:3530,6842
DA:3531,6842
DA:3536,0
DA:3537,0
DA:3540,0
DA:3541,0
DA:3542,0
DA:3543,0
DA:3544,0
DA:3545,0
DA:3546,0
DA:3548,0
DA:3549,0
DA:3550,0
DA:3551,0
DA:3555,493
DA:3556,493
DA:3559,493
DA:3560,2
DA:3561,493
DA:3562,986
DA:3563,493
DA:3564,493
DA:3565,2
DA:3567,491
DA:3568,491
DA:3569,491
DA:3570,491
DA:3573,0
DA:3574,0
DA:3575,0
DA:3578,0
DA:3580,969
DA:3581,969
DA:3584,969
DA:3585,0
DA:3586,969
DA:3587,1938
DA:3588,969
DA:3589,969
DA:3590,0
DA:3591,969
DA:3593,0
DA:3594,0
DA:3597,0
DA:3599,516
DA:3600,516
DA:3601,516
DA:3602,0
DA:3603,516
DA:3605,0
DA:3606,0
DA:3607,0
DA:3608,0
DA:3609,0
DA:3612,22
DA:3613,22
DA:3616,471
DA:3617,471
DA:3620,0
DA:3621,0
DA:3636,0
DA:3638,0
DA:3639,0
DA:3642,0
DA:3645,0
DA:3646,0
DA:3648,0
DA:3649,0
DA:3651,0
DA:3652,0
DA:3655,0
DA:3656,0
DA:3657,0
DA:3659,0
DA:3660,0
DA:3661,0
DA:3662,0
DA:3663,0
DA:3664,0
DA:3665,0
DA:3666,0
DA:3667,0
DA:3669,0
DA:3670,0
DA:3672,0
DA:3673,0
DA:3675,0
DA:3676,0
DA:3678,0
DA:3679,0
DA:3681,0
DA:3682,0
DA:3684,0
DA:3686,0
DA:3687,0
DA:3688,0
DA:3690,0
DA:3691,0
DA:3692,0
DA:3693,0
DA:3695,0
DA:3696,0
DA:3697,0
DA:3699,0
DA:3700,0
DA:3701,0
DA:3704,0
DA:3705,0
DA:3706,0
DA:3707,0
DA:3717,453
DA:3718,453
DA:3719,453
DA:3721,453
DA:3722,453
DA:3724,0
DA:3725,0
DA:3734,0
DA:3735,0
DA:3738,0
DA:3739,0
DA:3740,0
DA:3741,0
DA:3742,0
DA:3743,0
DA:3744,0
DA:3745,0
DA:3747,0
DA:3775,0
DA:3777,0
DA:3780,0
DA:3782,0
DA:3784,7
DA:3785,7
DA:3786,7
DA:3788,7
DA:3792,0
DA:3793,0
DA:3794,0
DA:3795,0
DA:3796,0
DA:3797,0
DA:3798,0
DA:3800,0
DA:3803,2
DA:3804,2
DA:3805,2
DA:3807,2
DA:3811,0
DA:3813,0
DA:3817,0
DA:3818,0
DA:3819,0
DA:3820,0
DA:3821,0
DA:3823,0
DA:3826,0
DA:3828,0
DA:3829,0
DA:3830,0
DA:3831,0
DA:3832,0
DA:3833,0
DA:3837,0
DA:3838,0
DA:3839,0
DA:3840,0
DA:3843,0
DA:3846,0
DA:3848,0
DA:3849,0
DA:3850,0
DA:3851,0
DA:3852,0
DA:3853,0
DA:3857,0
DA:3858,0
DA:3859,0
DA:3860,0
DA:3863,0
DA:3866,0
DA:3867,0
DA:3868,0
DA:3870,0
DA:3871,0
DA:3876,0
DA:3877,0
DA:3882,0
DA:3883,0
DA:3885,0
DA:3888,0
DA:3889,0
DA:3892,0
DA:3894,0
DA:3896,0
DA:3898,0
DA:3900,0
DA:3901,0
DA:3903,41
DA:3905,6842
DA:3906,6842
DA:3907,6842
DA:3910,1936
DA:3911,1936
DA:3912,1936
DA:3915,0
DA:3916,0
DA:3919,0
DA:3920,0
DA:3921,0
DA:3922,0
DA:3925,0
DA:3926,0
DA:3927,0
DA:3929,0
DA:3930,0
DA:3932,0
DA:3933,0
DA:3935,0
DA:3937,0
DA:3938,0
DA:3941,0
DA:3942,0
DA:3944,0
DA:3945,0
DA:3948,0
DA:3949,0
DA:3952,1808
DA:3954,1808
DA:3956,0
DA:3958,0
DA:3960,0
DA:3961,0
DA:3963,0
DA:3964,0
DA:3965,0
DA:3967,0
DA:3970,45
DA:3971,45
DA:3972,45
DA:3974,45
DA:3975,45
DA:3976,0
DA:3977,0
DA:3978,0
DA:3980,0
DA:3983,45
DA:3984,45
DA:3985,45
DA:3987,45
DA:3988,45
DA:3989,0
DA:3990,0
DA:3991,0
DA:3993,0
DA:3996,0
DA:3997,0
DA:3998,0
DA:4000,0
DA:4001,0
DA:4002,0
DA:4003,0
DA:4004,0
DA:4006,0
DA:4009,0
DA:4010,0
DA:4011,0
DA:4013,0
DA:4014,0
DA:4015,0
DA:4016,0
DA:4017,0
DA:4019,0
DA:4025,0
DA:4027,0
DA:4028,0
DA:4030,0
DA:4031,0
DA:4033,0
DA:4034,0
DA:4039,0
DA:4044,0
DA:4045,0
DA:4046,0
DA:4047,0
DA:4048,0
DA:4049,0
DA:4050,0
DA:4051,0
DA:4052,0
DA:4053,0
DA:4055,0
DA:4056,0
DA:4057,0
DA:4058,0
DA:4059,0
DA:4060,0
DA:4061,0
DA:4062,0
DA:4063,0
DA:4065,0
DA:4066,0
DA:4067,0
DA:4068,0
DA:4070,0
DA:4071,0
DA:4072,0
DA:4073,0
DA:4074,0
DA:4075,0
DA:4076,0
DA:4078,0
DA:4079,0
DA:4080,0
DA:4081,0
DA:4084,0
DA:4086,0
DA:4090,0
DA:4092,0
DA:4095,0
DA:4097,0
DA:4099,0
DA:4101,0
DA:4103,0
DA:4104,0
DA:4105,0
DA:4106,0
DA:4107,0
DA:4109,0
DA:4111,0
DA:4112,0
DA:4113,0
DA:4115,0
DA:4117,0
DA:4118,0
DA:4121,0
DA:4125,0
DA:4128,0
DA:4129,0
DA:4130,0
DA:4131,0
DA:4132,0
DA:4133,0
DA:4134,0
DA:4135,0
DA:4136,0
DA:4137,0
DA:4138,0
DA:4139,0
DA:4140,0
DA:4143,0
DA:4146,0
DA:4147,0
DA:4148,0
DA:4149,0
DA:4150,0
DA:4153,0
DA:4154,0
DA:4155,0
DA:4158,0
DA:4161,0
DA:4270,0
DA:4272,0
DA:4273,0
DA:4274,0
DA:4275,0
DA:4276,0
DA:4277,0
DA:4278,0
DA:4280,0
DA:4282,0
DA:4283,0
DA:4286,0
DA:4288,0
DA:4289,0
DA:4290,0
DA:4291,0
DA:4296,0
DA:4298,0
DA:4303,0
DA:4310,0
DA:4313,0
DA:4314,0
DA:4317,0
DA:4319,0
DA:4320,0
DA:4323,0
DA:4324,0
DA:4325,0
DA:4326,0
DA:4327,0
DA:4329,0
DA:4330,0
DA:4331,0
DA:4333,0
DA:4336,0
DA:4337,0
DA:4342,0
DA:4343,0
DA:4345,0
DA:4349,0
DA:4352,0
DA:4355,0
DA:4357,0
DA:4358,0
DA:4360,0
DA:4361,0
DA:4362,0
DA:4363,0
DA:4364,0
DA:4366,0
DA:4369,0
DA:4370,0
DA:4372,0
DA:4374,0
DA:4375,0
DA:4377,0
DA:4378,0
DA:4379,0
DA:4381,0
DA:4382,0
DA:4383,0
DA:4385,0
DA:4388,0
DA:4389,0
DA:4390,0
DA:4392,0
DA:4393,0
DA:4394,0
DA:4395,0
DA:4398,0
DA:4399,0
DA:4401,0
DA:4404,0
DA:4405,0
DA:4406,0
DA:4408,0
DA:4409,0
DA:4410,0
DA:4411,0
DA:4412,0
DA:4414,0
DA:4417,0
DA:4437,0
DA:4438,0
DA:4439,0
DA:4440,0
DA:4441,0
DA:4442,0
DA:4443,0
DA:4444,0
DA:4445,0
DA:4448,0
DA:4449,0
DA:4450,0
DA:4452,0
DA:4453,0
DA:4457,0
DA:4458,0
DA:4459,0
DA:4460,0
DA:4461,0
DA:4462,0
DA:4463,0
DA:4464,0
DA:4465,0
DA:4466,0
DA:4467,0
DA:4468,0
DA:4469,0
DA:4470,0
DA:4471,0
DA:4472,0
DA:4473,0
DA:4474,0
DA:4475,0
DA:4476,0
DA:4477,0
DA:4478,0
DA:4479,0
DA:4480,0
DA:4481,0
DA:4482,0
DA:4483,0
DA:4484,0
DA:4493,0
DA:4494,0
DA:4497,0
DA:4498,0
DA:4499,0
DA:4500,0
DA:4501,0
DA:4504,0
DA:4505,0
DA:4506,0
DA:4507,0
DA:4508,0
DA:4510,0
DA:4513,0
DA:4514,0
DA:4517,0
DA:4518,0
DA:4532,0
DA:4534,0
DA:4536,0
DA:4538,0
DA:4539,0
DA:4540,0
DA:4541,0
DA:4542,0
DA:4543,0
DA:4546,0
DA:4547,0
DA:4548,0
DA:4549,0
DA:4550,0
DA:4551,0
DA:4552,0
DA:4553,0
DA:4554,0
DA:4555,0
DA:4556,0
DA:4557,0
DA:4558,0
DA:4559,0
DA:4560,0
DA:4561,0
DA:4565,0
DA:4566,0
DA:4567,0
DA:4568,0
DA:4570,0
DA:4571,0
DA:4572,0
DA:4573,0
DA:4574,0
DA:4575,0
DA:4576,0
DA:4577,0
DA:4578,0
DA:4579,0
DA:4581,0
DA:4582,0
DA:4583,0
DA:4584,0
DA:4585,0
DA:4586,0
DA:4587,0
DA:4588,0
DA:4589,0
DA:4590,0
DA:4591,0
DA:4592,0
DA:4593,0
DA:4595,0
DA:4596,0
DA:4598,0
DA:4605,0
DA:4606,0
DA:4607,0
DA:4608,0
DA:4609,0
DA:4610,0
DA:4611,0
DA:4612,0
DA:4613,0
DA:4616,0
DA:4617,0
DA:4618,0
DA:4619,0
DA:4620,0
DA:4621,0
DA:4622,0
DA:4623,0
DA:4624,0
DA:4625,0
DA:4626,0
DA:4627,0
DA:4628,0
DA:4629,0
DA:4630,0
DA:4634,0
DA:4635,0
DA:4636,0
DA:4638,0
DA:4639,0
DA:4641,0
DA:4642,0
DA:4643,0
DA:4644,0
DA:4645,0
DA:4646,0
DA:4647,0
DA:4648,0
DA:4649,0
DA:4650,0
DA:4652,0
DA:4653,0
DA:4654,0
DA:4656,0
DA:4657,0
DA:4658,0
DA:4659,0
DA:4660,0
DA:4661,0
DA:4662,0
DA:4663,0
DA:4664,0
DA:4666,0
DA:4667,0
DA:4668,0
DA:4669,0
DA:4670,0
DA:4671,0
DA:4672,0
DA:4674,0
DA:4676,0
DA:4677,0
DA:4678,0
DA:4679,0
DA:4681,0
DA:4682,0
DA:4683,0
DA:4684,0
DA:4685,0
DA:4686,0
DA:4688,0
DA:4689,0
DA:4690,0
DA:4691,0
DA:4693,0
DA:4694,0
DA:4696,0
DA:4697,0
DA:4698,0
DA:4700,0
DA:4701,0
DA:4702,0
DA:4703,0
DA:4704,0
DA:4707,0
DA:4708,0
DA:4709,0
DA:4710,0
DA:4711,0
DA:4712,0
DA:4714,0
DA:4717,0
DA:4719,0
DA:4720,0
DA:4721,0
DA:4722,0
DA:4723,0
DA:4724,0
DA:4725,0
DA:4726,0
DA:4728,0
DA:4730,0
DA:4731,0
DA:4732,0
DA:4733,0
DA:4734,0
DA:4735,0
DA:4737,0
DA:4738,0
DA:4740,0
DA:4741,0
DA:4743,0
DA:4746,0
DA:4747,0
DA:4748,0
DA:4750,0
DA:4751,0
DA:4753,0
DA:4754,0
DA:4755,0
DA:4756,0
DA:4757,0
DA:4758,0
DA:4759,0
DA:4761,0
DA:4764,0
DA:4765,0
DA:4766,0
DA:4767,0
DA:4769,0
DA:4771,0
DA:4772,0
DA:4773,0
DA:4774,0
DA:4776,0
DA:4777,0
DA:4778,0
DA:4780,0
DA:4781,0
DA:4782,0
DA:4783,0
DA:4784,0
DA:4785,0
DA:4786,0
DA:4787,0
DA:4788,0
DA:4792,0
DA:4795,0
DA:4796,0
DA:4797,0
DA:4799,0
DA:4800,0
DA:4801,0
DA:4802,0
DA:4804,0
DA:4806,0
DA:4807,0
DA:4808,0
DA:4809,0
DA:4815,0
DA:4816,0
DA:4817,0
DA:4819,0
DA:4820,0
DA:4821,0
DA:4822,0
DA:4823,0
DA:4824,0
DA:4825,0
DA:4826,0
DA:4827,0
DA:4828,0
DA:4829,0
DA:4830,0
DA:4831,0
DA:4832,0
DA:4834,0
DA:4835,0
DA:4836,0
DA:4837,0
DA:4838,0
DA:4839,0
DA:4840,0
DA:4841,0
DA:4842,0
DA:4843,0
DA:4844,0
DA:4845,0
DA:4846,0
DA:4847,0
DA:4848,0
DA:4852,0
DA:4853,0
DA:4854,0
DA:4856,0
DA:4857,0
DA:4859,0
DA:4860,0
DA:4861,0
DA:4862,0
DA:4863,0
DA:4864,0
DA:4865,0
DA:4866,0
DA:4867,0
DA:4868,0
DA:4870,0
DA:4871,0
DA:4872,0
DA:4874,0
DA:4875,0
DA:4876,0
DA:4877,0
DA:4878,0
DA:4879,0
DA:4880,0
DA:4881,0
DA:4882,0
DA:4884,0
DA:4885,0
DA:4886,0
DA:4887,0
DA:4888,0
DA:4889,0
DA:4890,0
DA:4892,0
DA:4894,0
DA:4895,0
DA:4896,0
DA:4897,0
DA:4899,0
DA:4900,0
DA:4901,0
DA:4902,0
DA:4903,0
DA:4904,0
DA:4906,0
DA:4907,0
DA:4908,0
DA:4909,0
DA:4911,0
DA:4912,0
DA:4913,0
DA:4914,0
DA:4915,0
DA:4917,0
DA:4918,0
DA:4919,0
DA:4921,0
DA:4922,0
DA:4923,0
DA:4924,0
DA:4925,0
DA:4928,0
DA:4929,0
DA:4930,0
DA:4931,0
DA:4932,0
DA:4933,0
DA:4935,0
DA:4938,0
DA:4940,0
DA:4941,0
DA:4942,0
DA:4943,0
DA:4944,0
DA:4945,0
DA:4946,0
DA:4947,0
DA:4949,0
DA:4951,0
DA:4952,0
DA:4953,0
DA:4954,0
DA:4955,0
DA:4956,0
DA:4958,0
DA:4959,0
DA:4961,0
DA:4962,0
DA:4964,0
DA:4967,0
DA:4968,0
DA:4969,0
DA:4971,0
DA:4972,0
DA:4974,0
DA:4979,0
DA:4980,0
DA:4982,0
DA:4983,0
DA:4984,0
DA:4985,0
DA:4986,0
DA:4987,0
DA:4989,0
DA:4991,0
DA:4992,0
DA:4993,0
DA:4994,0
DA:4996,0
DA:4997,0
DA:4998,0
DA:5000,0
DA:5001,0
DA:5002,0
DA:5003,0
DA:5004,0
DA:5005,0
DA:5006,0
DA:5008,0
DA:5009,0
DA:5011,0
DA:5014,0
DA:5015,0
DA:5016,0
DA:5018,0
DA:5019,0
DA:5020,0
DA:5022,0
DA:5023,0
DA:5025,0
DA:5026,0
DA:5027,0
DA:5028,0
DA:5084,0
DA:5091,0
DA:5092,0
DA:5093,0
DA:5094,0
DA:5097,0
DA:5098,0
DA:5099,0
DA:5100,0
DA:5101,0
DA:5102,0
DA:5103,0
DA:5104,0
DA:5105,0
DA:5106,0
DA:5107,0
DA:5108,0
DA:5109,0
DA:5110,0
DA:5111,0
DA:5113,0
DA:5114,0
DA:5115,0
DA:5116,0
DA:5117,0
DA:5118,0
DA:5119,0
DA:5120,0
DA:5121,0
DA:5122,0
DA:5123,0
DA:5124,0
DA:5125,0
DA:5127,0
DA:5128,0
DA:5132,0
DA:5133,0
DA:5134,0
DA:5136,0
DA:5137,0
DA:5139,0
DA:5140,0
DA:5141,0
DA:5142,0
DA:5143,0
DA:5144,0
DA:5145,0
DA:5146,0
DA:5147,0
DA:5148,0
DA:5150,0
DA:5151,0
DA:5152,0
DA:5154,0
DA:5155,0
DA:5156,0
DA:5157,0
DA:5158,0
DA:5159,0
DA:5160,0
DA:5161,0
DA:5162,0
DA:5163,0
DA:5165,0
DA:5166,0
DA:5167,0
DA:5168,0
DA:5169,0
DA:5170,0
DA:5171,0
DA:5173,0
DA:5175,0
DA:5176,0
DA:5177,0
DA:5178,0
DA:5180,0
DA:5181,0
DA:5182,0
DA:5183,0
DA:5184,0
DA:5185,0
DA:5187,0
DA:5188,0
DA:5189,0
DA:5190,0
DA:5192,0
DA:5193,0
DA:5194,0
DA:5195,0
DA:5196,0
DA:5198,0
DA:5199,0
DA:5200,0
DA:5202,0
DA:5203,0
DA:5204,0
DA:5205,0
DA:5206,0
DA:5209,0
DA:5210,0
DA:5211,0
DA:5212,0
DA:5213,0
DA:5214,0
DA:5215,0
DA:5216,0
DA:5218,0
DA:5219,0
DA:5220,0
DA:5223,0
DA:5225,0
DA:5226,0
DA:5227,0
DA:5228,0
DA:5229,0
DA:5230,0
DA:5231,0
DA:5232,0
DA:5234,0
DA:5236,0
DA:5237,0
DA:5238,0
DA:5239,0
DA:5240,0
DA:5241,0
DA:5243,0
DA:5244,0
DA:5246,0
DA:5247,0
DA:5249,0
DA:5252,0
DA:5253,0
DA:5254,0
DA:5256,0
DA:5257,0
DA:5259,0
DA:5265,0
DA:5267,0
DA:5269,0
DA:5271,0
DA:5272,0
DA:5273,0
DA:5274,0
DA:5275,0
DA:5276,0
DA:5278,0
DA:5280,0
DA:5281,0
DA:5282,0
DA:5283,0
DA:5285,0
DA:5286,0
DA:5287,0
DA:5288,0
DA:5289,0
DA:5291,0
DA:5292,0
DA:5293,0
DA:5294,0
DA:5295,0
DA:5296,0
DA:5297,0
DA:5299,0
DA:5300,0
DA:5302,0
DA:5305,0
DA:5307,0
DA:5308,0
DA:5309,0
DA:5310,0
DA:5312,0
DA:5313,0
DA:5314,0
DA:5319,0
DA:5320,0
DA:5321,0
DA:5322,0
DA:5328,0
DA:5331,0
DA:5333,0
DA:5334,0
DA:5335,0
DA:5336,0
DA:5337,0
DA:5338,0
DA:5339,0
DA:5340,0
DA:5341,0
DA:5342,0
DA:5343,0
DA:5344,0
DA:5345,0
DA:5347,0
DA:5349,0
DA:5350,0
DA:5351,0
DA:5352,0
DA:5353,0
DA:5355,0
DA:5357,0
DA:5358,0
DA:5359,0
DA:5360,0
DA:5361,0
DA:5363,0
DA:5364,0
DA:5365,0
DA:5367,0
DA:5368,0
DA:5369,0
DA:5372,0
DA:5374,0
DA:5375,0
DA:5376,0
DA:5377,0
DA:5378,0
DA:5379,0
DA:5380,0
DA:5381,0
DA:5382,0
DA:5383,0
DA:5384,0
DA:5385,0
DA:5386,0
DA:5387,0
DA:5388,0
DA:5389,0
DA:5390,0
DA:5391,0
DA:5392,0
DA:5393,0
DA:5394,0
DA:5395,0
DA:5396,0
DA:5399,0
DA:5401,0
DA:5402,0
DA:5405,0
DA:5407,0
DA:5408,0
DA:5409,0
DA:5410,0
DA:5411,0
DA:5412,0
DA:5413,0
DA:5415,0
DA:5417,0
DA:5418,0
DA:5419,0
DA:5420,0
DA:5421,0
DA:5424,0
DA:5425,0
DA:5426,0
DA:5427,0
DA:5428,0
LF:3139
LH:574
end_of_record
TN:
SF:/usr/include/c++/8/bits/alloc_traits.h
FN:435,_ZNSt16allocator_traitsISaINSt7__cxx1112basic_stringIcSt11char_traitsIcESaIcEEEEE8allocateERS6_m
FN:435,_ZNSt16allocator_traitsISaImEE8allocateERS0_m
FN:435,_ZNSt16allocator_traitsISaIcEE8allocateERS0_m
FN:461,_ZNSt16allocator_traitsISaIcEE10deallocateERS0_Pcm
FN:461,_ZNSt16allocator_traitsISaINSt7__cxx1112basic_stringIcSt11char_traitsIcESaIcEEEEE10deallocateERS6_PS5_m
FN:461,_ZNSt16allocator_traitsISaImEE10deallocateERS0_Pmm
FN:495,_ZNSt16allocator_traitsISaIcEE8max_sizeERKS0_
FN:504,_ZNSt16allocator_traitsISaImEE37select_on_container_copy_constructionERKS0_
FN:504,_ZNSt16allocator_traitsISaIcEE37select_on_container_copy_constructionERKS0_
FN:504,_ZNSt16allocator_traitsISaINSt7__cxx1112basic_stringIcSt11char_traitsIcESaIcEEEEE37select_on_container_copy_constructionERKS6_
FN:516,_ZSt18__do_alloc_on_copyISaINSt7__cxx1112basic_stringIcSt11char_traitsIcESaIcEEEEEvRT_RKS7_St17integral_constantIbLb0EE
FN:516,_ZSt18__do_alloc_on_copyISaIcEEvRT_RKS1_St17integral_constantIbLb0EE
FN:516,_ZSt18__do_alloc_on_copyISaImEEvRT_RKS1_St17integral_constantIbLb0EE
FN:520,_ZSt15__alloc_on_copyISaINSt7__cxx1112basic_stringIcSt11char_traitsIcESaIcEEEEEvRT_RKS7_
FN:520,_ZSt15__alloc_on_copyISaIcEEvRT_RKS1_
FN:520,_ZSt15__alloc_on_copyISaImEEvRT_RKS1_
FNDA:538,_ZNSt16allocator_traitsISaINSt7__cxx1112basic_stringIcSt11char_traitsIcESaIcEEEEE8allocateERS6_m
FNDA:1060,_ZNSt16allocator_traitsISaImEE8allocateERS0_m
FNDA:0,_ZNSt16allocator_traitsISaIcEE8allocateERS0_m
FNDA:0,_ZNSt16allocator_traitsISaIcEE10deallocateERS0_Pcm
FNDA:0,_ZNSt16allocator_traitsISaINSt7__cxx1112basic_stringIcSt11char_traitsIcESaIcEEEEE10deallocateERS6_PS5_m
FNDA:0,_ZNSt16allocator_traitsISaImEE10deallocateERS0_Pmm
FNDA:0,_ZNSt16allocator_traitsISaIcEE8max_sizeERKS0_
FNDA:0,_ZNSt16allocator_traitsISaIcEE37select_on_container_copy_constructionERKS0_
FNDA:952,_ZNSt16allocator_traitsISaINSt7__cxx1112basic_stringIcSt11char_traitsIcESaIcEEEEE37select_on_container_copy_constructionERKS6_
FNDA:952,_ZNSt16allocator_traitsISaImEE37select_on_container_copy_constructionERKS0_
FNDA:0,_ZSt18__do_alloc_on_copyISaIcEEvRT_RKS1_St17integral_constantIbLb0EE
FNDA:0,_ZSt18__do_alloc_on_copyISaINSt7__cxx1112basic_stringIcSt11char_traitsIcESaIcEEEEEvRT_RKS7_St17integral_constantIbLb0EE
FNDA:0,_ZSt18__do_alloc_on_copyISaImEEvRT_RKS1_St17integral_constantIbLb0EE
FNDA:0,_ZSt15__alloc_on_copyISaIcEEvRT_RKS1_
FNDA:0,_ZSt15__alloc_on_copyISaINSt7__cxx1112basic_stringIcSt11char_traitsIcESaIcEEEEEvRT_RKS7_
FNDA:0,_ZSt15__alloc_on_copyISaImEEvRT_RKS1_
FNF:16
FNH:4
DA:435,1598
DA:436,1598
DA:437,538
DA:438,538
DA:439,1060
DA:440,1060
DA:441,0
DA:442,0
DA:467,0
DA:468,0
DA:469,0
DA:470,0
DA:471,0
DA:472,0
DA:473,0
DA:474,0
DA:507,0
DA:508,0
DA:516,1904
DA:517,1904
DA:518,0
DA:519,0
DA:520,952
DA:521,952
DA:522,952
DA:523,952
DA:534,0
DA:535,0
DA:536,0
DA:537,0
DA:538,0
DA:539,0
DA:540,0
DA:541,0
DA:544,0
DA:548,0
DA:549,0
DA:550,0
DA:554,0
DA:555,0
DA:556,0
DA:560,0
DA:561,0
DA:562,0
DA:566,0
DA:567,0
LF:46
LH:12
end_of_record
SF:/usr/include/c++/8/bits/allocator.h
FN:133,_ZNSaImEC2ERKS_
FN:133,_ZNSaINSt7__cxx1112basic_stringIcSt11char_traitsIcESaIcEEEEC2ERKS5_
FN:137,_ZNSaImEC2IbEERKSaIT_E
FN:137,_ZNSaIbEC2ImEERKSaIT_E
FN:139,_ZNSaINSt7__cxx1112basic_stringIcSt11char_traitsIcESaIcEEEED2Ev
FN:139,_ZNSaIbED2Ev
FN:139,_ZNSaImED2Ev
FN:164,_ZStneImEbRKSaIT_ES3_
FN:164,_ZStneINSt7__cxx1112basic_stringIcSt11char_traitsIcESaIcEEEEbRKSaIT_ES9_
FN:164,_ZStneIcEbRKSaIT_ES3_
FNDA:1904,_ZNSaINSt7__cxx1112basic_stringIcSt11char_traitsIcESaIcEEEEC2ERKS5_
FNDA:1904,_ZNSaImEC2ERKS_
FNDA:952,_ZNSaImEC2IbEERKSaIT_E
FNDA:952,_ZNSaIbEC2ImEERKSaIT_E
FNDA:0,_ZNSaINSt7__cxx1112basic_stringIcSt11char_traitsIcESaIcEEEED2Ev
FNDA:952,_ZNSaIbED2Ev
FNDA:0,_ZNSaImED2Ev
FNDA:0,_ZStneIcEbRKSaIT_ES3_
FNDA:0,_ZStneINSt7__cxx1112basic_stringIcSt11char_traitsIcESaIcEEEEbRKSaIT_ES9_
FNDA:0,_ZStneImEbRKSaIT_ES3_
FNF:10
FNH:5
DA:133,3808
DA:134,3808
DA:135,1904
DA:136,1904
DA:137,1904
DA:138,1904
DA:141,1904
DA:143,952
DA:168,0
DA:170,0
DA:171,0
DA:173,0
DA:174,0
DA:176,0
DA:177,0
DA:179,0
LF:16
LH:8
end_of_record
SF:/usr/include/c++/8/bits/basic_string.h
FN:148,_ZNSt7__cxx1112basic_stringIcSt11char_traitsIcESaIcEE12_Alloc_hiderC2EPcOS3_
FN:167,_ZNSt7__cxx1112basic_stringIcSt11char_traitsIcESaIcEE7_M_dataEPc
FN:171,_ZNSt7__cxx1112basic_stringIcSt11char_traitsIcESaIcEE9_M_lengthEm
FN:175,_ZNKSt7__cxx1112basic_stringIcSt11char_traitsIcESaIcEE7_M_dataEv
FN:179,_ZNSt7__cxx1112basic_stringIcSt11char_traitsIcESaIcEE13_M_local_dataEv
FN:189,_ZNKSt7__cxx1112basic_stringIcSt11char_traitsIcESaIcEE13_M_local_dataEv
FN:199,_ZNSt7__cxx1112basic_stringIcSt11char_traitsIcESaIcEE11_M_capacityEm
FN:203,_ZNSt7__cxx1112basic_stringIcSt11char_traitsIcESaIcEE13_M_set_lengthEm
FN:210,_ZNKSt7__cxx1112basic_stringIcSt11char_traitsIcESaIcEE11_M_is_localEv
FN:218,_ZNSt7__cxx1112basic_stringIcSt11char_traitsIcESaIcEE10_M_disposeEv
FN:225,_ZNSt7__cxx1112basic_stringIcSt11char_traitsIcESaIcEE10_M_destroyEm
FN:232,_ZNSt7__cxx1112basic_stringIcSt11char_traitsIcESaIcEE16_M_construct_auxIPcEEvT_S7_St12__false_type
FN:252,_ZNSt7__cxx1112basic_stringIcSt11char_traitsIcESaIcEE12_M_constructIPcEEvT_S7_
FN:275,_ZNSt7__cxx1112basic_stringIcSt11char_traitsIcESaIcEE16_M_get_allocatorEv
FN:279,_ZNKSt7__cxx1112basic_stringIcSt11char_traitsIcESaIcEE16_M_get_allocatorEv
FN:335,_ZNSt7__cxx1112basic_stringIcSt11char_traitsIcESaIcEE7_S_copyEPcPKcm
FN:381,_ZNSt7__cxx1112basic_stringIcSt11char_traitsIcESaIcEE13_S_copy_charsEPcS5_S5_
FN:437,_ZNSt7__cxx1112basic_stringIcSt11char_traitsIcESaIcEEC2ERKS4_
FN:656,_ZNSt7__cxx1112basic_stringIcSt11char_traitsIcESaIcEED2Ev
FN:664,_ZNSt7__cxx1112basic_stringIcSt11char_traitsIcESaIcEEaSERKS4_
FN:930,_ZNKSt7__cxx1112basic_stringIcSt11char_traitsIcESaIcEE4sizeEv
FN:936,_ZNKSt7__cxx1112basic_stringIcSt11char_traitsIcESaIcEE6lengthEv
FN:941,_ZNKSt7__cxx1112basic_stringIcSt11char_traitsIcESaIcEE8max_sizeEv
FN:993,_ZNKSt7__cxx1112basic_stringIcSt11char_traitsIcESaIcEE8capacityEv
FN:1364,_ZNSt7__cxx1112basic_stringIcSt11char_traitsIcESaIcEE6assignERKS4_
FN:2302,_ZNKSt7__cxx1112basic_stringIcSt11char_traitsIcESaIcEE4dataEv
FN:6056,_ZSteqIcEN9__gnu_cxx11__enable_ifIXsrSt9__is_charIT_E7__valueEbE6__typeERKNSt7__cxx1112basic_stringIS3_St11char_traitsIS3_ESaIS3_EEESE_
FN:6095,_ZStneIcSt11char_traitsIcESaIcEEbRKNSt7__cxx1112basic_stringIT_T0_T1_EESA_
FNDA:0,_ZNSt7__cxx1112basic_stringIcSt11char_traitsIcESaIcEE12_Alloc_hiderC2EPcOS3_
FNDA:0,_ZNSt7__cxx1112basic_stringIcSt11char_traitsIcESaIcEE7_M_dataEPc
FNDA:0,_ZNSt7__cxx1112basic_stringIcSt11char_traitsIcESaIcEE9_M_lengthEm
FNDA:0,_ZNKSt7__cxx1112basic_stringIcSt11char_traitsIcESaIcEE7_M_dataEv
FNDA:0,_ZNSt7__cxx1112basic_stringIcSt11char_traitsIcESaIcEE13_M_local_dataEv
FNDA:0,_ZNKSt7__cxx1112basic_stringIcSt11char_traitsIcESaIcEE13_M_local_dataEv
FNDA:0,_ZNSt7__cxx1112basic_stringIcSt11char_traitsIcESaIcEE11_M_capacityEm
FNDA:0,_ZNSt7__cxx1112basic_stringIcSt11char_traitsIcESaIcEE13_M_set_lengthEm
FNDA:0,_ZNKSt7__cxx1112basic_stringIcSt11char_traitsIcESaIcEE11_M_is_localEv
FNDA:0,_ZNSt7__cxx1112basic_stringIcSt11char_traitsIcESaIcEE10_M_disposeEv
FNDA:0,_ZNSt7__cxx1112basic_stringIcSt11char_traitsIcESaIcEE10_M_destroyEm
FNDA:0,_ZNSt7__cxx1112basic_stringIcSt11char_traitsIcESaIcEE16_M_construct_auxIPcEEvT_S7_St12__false_type
FNDA:0,_ZNSt7__cxx1112basic_stringIcSt11char_traitsIcESaIcEE12_M_constructIPcEEvT_S7_
FNDA:0,_ZNSt7__cxx1112basic_stringIcSt11char_traitsIcESaIcEE16_M_get_allocatorEv
FNDA:0,_ZNKSt7__cxx1112basic_stringIcSt11char_traitsIcESaIcEE16_M_get_allocatorEv
FNDA:0,_ZNSt7__cxx1112basic_stringIcSt11char_traitsIcESaIcEE7_S_copyEPcPKcm
FNDA:0,_ZNSt7__cxx1112basic_stringIcSt11char_traitsIcESaIcEE13_S_copy_charsEPcS5_S5_
FNDA:0,_ZNSt7__cxx1112basic_stringIcSt11char_traitsIcESaIcEEC2ERKS4_
FNDA:0,_ZNSt7__cxx1112basic_stringIcSt11char_traitsIcESaIcEED2Ev
FNDA:0,_ZNSt7__cxx1112basic_stringIcSt11char_traitsIcESaIcEEaSERKS4_
FNDA:0,_ZNKSt7__cxx1112basic_stringIcSt11char_traitsIcESaIcEE4sizeEv
FNDA:0,_ZNKSt7__cxx1112basic_stringIcSt11char_traitsIcESaIcEE6lengthEv
FNDA:0,_ZNKSt7__cxx1112basic_stringIcSt11char_traitsIcESaIcEE8max_sizeEv
FNDA:0,_ZNKSt7__cxx1112basic_stringIcSt11char_traitsIcESaIcEE8capacityEv
FNDA:0,_ZNSt7__cxx1112basic_stringIcSt11char_traitsIcESaIcEE6assignERKS4_
FNDA:0,_ZNKSt7__cxx1112basic_stringIcSt11char_traitsIcESaIcEE4dataEv
FNDA:0,_ZSteqIcEN9__gnu_cxx11__enable_ifIXsrSt9__is_charIT_E7__valueEbE6__typeERKNSt7__cxx1112basic_stringIS3_St11char_traitsIS3_ESaIS3_EEESE_
FNDA:0,_ZStneIcSt11char_traitsIcESaIcEEbRKNSt7__cxx1112basic_stringIT_T0_T1_EESA_
FNF:28
FNH:0
DA:148,0
DA:149,0
DA:167,0
DA:168,0
DA:171,0
DA:172,0
DA:175,0
DA:176,0
DA:179,0
DA:182,0
DA:189,0
DA:192,0
DA:199,0
DA:200,0
DA:203,0
DA:205,0
DA:206,0
DA:207,0
DA:210,0
DA:211,0
DA:218,0
DA:220,0
DA:221,0
DA:222,0
DA:225,0
DA:226,0
DA:232,0
DA:236,0
DA:237,0
DA:252,0
DA:255,0
DA:256,0
DA:275,0
DA:276,0
DA:279,0
DA:280,0
DA:335,0
DA:337,0
DA:338,0
DA:340,0
DA:341,0
DA:381,0
DA:382,0
DA:437,0
DA:439,0
DA:440,0
DA:656,0
DA:657,0
DA:664,0
DA:667,0
DA:669,0
DA:670,0
DA:674,0
DA:676,0
DA:677,0
DA:678,0
DA:682,0
DA:683,0
DA:685,0
DA:686,0
DA:687,0
DA:688,0
DA:689,0
DA:692,0
DA:695,0
DA:930,0
DA:931,0
DA:936,0
DA:937,0
DA:941,0
DA:942,0
DA:993,0
DA:995,0
DA:996,0
DA:1364,0
DA:1366,0
DA:1367,0
DA:2302,0
DA:2303,0
DA:6056,0
DA:6058,0
DA:6059,0
DA:6060,0
DA:6095,0
DA:6098,0
LF:85
LH:0
end_of_record
SF:/usr/include/c++/8/bits/basic_string.tcc
FN:132,_ZNSt7__cxx1112basic_stringIcSt11char_traitsIcESaIcEE9_M_createERmm
FN:206,_ZNSt7__cxx1112basic_stringIcSt11char_traitsIcESaIcEE12_M_constructIPcEEvT_S7_St20forward_iterator_tag
FN:254,_ZNSt7__cxx1112basic_stringIcSt11char_traitsIcESaIcEE9_M_assignERKS4_
FNDA:0,_ZNSt7__cxx1112basic_stringIcSt11char_traitsIcESaIcEE9_M_createERmm
FNDA:0,_ZNSt7__cxx1112basic_stringIcSt11char_traitsIcESaIcEE12_M_constructIPcEEvT_S7_St20forward_iterator_tag
FNDA:0,_ZNSt7__cxx1112basic_stringIcSt11char_traitsIcESaIcEE9_M_assignERKS4_
FNF:3
FNH:0
DA:132,0
DA:137,0
DA:138,0
DA:143,0
DA:145,0
DA:147,0
DA:148,0
DA:153,0
DA:206,0
DA:211,0
DA:212,0
DA:215,0
DA:217,0
DA:219,0
DA:220,0
DA:225,0
DA:232,0
DA:233,0
DA:254,0
DA:257,0
DA:259,0
DA:260,0
DA:262,0
DA:264,0
DA:265,0
DA:266,0
DA:267,0
DA:268,0
DA:271,0
DA:272,0
DA:274,0
DA:276,0
LF:32
LH:0
end_of_record
SF:/usr/include/c++/8/bits/char_traits.h
FN:104,_ZN9__gnu_cxx11char_traitsIcE2ltERKcS3_
FN:148,_ZN9__gnu_cxx11char_traitsIcE7compareEPKcS3_m
FN:286,_ZNSt11char_traitsIcE6assignERcRKc
FN:302,_ZNSt11char_traitsIcE7compareEPKcS2_m
FN:348,_ZNSt11char_traitsIcE4copyEPcPKcm
FNDA:0,_ZN9__gnu_cxx11char_traitsIcE2ltERKcS3_
FNDA:0,_ZN9__gnu_cxx11char_traitsIcE7compareEPKcS3_m
FNDA:0,_ZNSt11char_traitsIcE6assignERcRKc
FNDA:0,_ZNSt11char_traitsIcE7compareEPKcS2_m
FNDA:0,_ZNSt11char_traitsIcE4copyEPcPKcm
FNF:5
FNH:0
DA:104,0
DA:105,0
DA:148,0
DA:151,0
DA:152,0
DA:153,0
DA:154,0
DA:155,0
DA:156,0
DA:286,0
DA:287,0
DA:302,0
DA:305,0
DA:307,0
DA:308,0
DA:310,0
DA:311,0
DA:312,0
DA:348,0
DA:350,0
DA:351,0
DA:352,0
LF:22
LH:0
end_of_record
SF:/usr/include/c++/8/bits/cpp_type_traits.h
FN:419,_ZSt12__miter_baseIN9__gnu_cxx17__normal_iteratorIPKNSt7__cxx1112basic_stringIcSt11char_traitsIcESaIcEEESt6vectorIS7_SaIS7_EEEEET_SE_
FN:419,_ZSt12__miter_baseIPNSt7__cxx1112basic_stringIcSt11char_traitsIcESaIcEEEET_S7_
FN:419,_ZSt12__miter_baseISt19_Bit_const_iteratorET_S1_
FN:419,_ZSt12__miter_baseIPmET_S1_
FNDA:2120,_ZSt12__miter_baseISt19_Bit_const_iteratorET_S1_
FNDA:2120,_ZSt12__miter_baseIPmET_S1_
FNDA:0,_ZSt12__miter_baseIPNSt7__cxx1112basic_stringIcSt11char_traitsIcESaIcEEEET_S7_
FNDA:0,_ZSt12__miter_baseIN9__gnu_cxx17__normal_iteratorIPKNSt7__cxx1112basic_stringIcSt11char_traitsIcESaIcEEESt6vectorIS7_SaIS7_EEEEET_SE_
FNF:4
FNH:2
DA:419,4240
DA:420,4240
DA:421,2120
DA:422,2120
DA:423,2120
DA:424,2120
DA:425,0
DA:426,0
DA:427,0
DA:428,0
LF:10
LH:6
end_of_record
SF:/usr/include/c++/8/bits/move.h
FN:47,_ZSt11__addressofIKcEPT_RS1_
FN:47,_ZSt11__addressofImEPT_RS0_
FN:47,_ZSt11__addressofIcEPT_RS0_
FN:47,_ZSt11__addressofINSt7__cxx1112basic_stringIcSt11char_traitsIcESaIcEEEEPT_RS6_
FN:74,_ZSt7forwardIRNSt7__cxx1112basic_stringIcSt11char_traitsIcESaIcEEEEOT_RNSt16remove_referenceIS7_E4typeE
FN:74,_ZSt7forwardIRKNSt7__cxx1112basic_stringIcSt11char_traitsIcESaIcEEEEOT_RNSt16remove_referenceIS8_E4typeE
FN:99,_ZSt4moveIRSaIcEEONSt16remove_referenceIT_E4typeEOS3_
FN:138,_ZSt9addressofIcEPT_RS0_
FN:138,_ZSt9addressofIKcEPT_RS1_
FNDA:0,_ZSt11__addressofIKcEPT_RS1_
FNDA:0,_ZSt11__addressofIcEPT_RS0_
FNDA:0,_ZSt11__addressofINSt7__cxx1112basic_stringIcSt11char_traitsIcESaIcEEEEPT_RS6_
FNDA:0,_ZSt11__addressofImEPT_RS0_
FNDA:0,_ZSt7forwardIRNSt7__cxx1112basic_stringIcSt11char_traitsIcESaIcEEEEOT_RNSt16remove_referenceIS7_E4typeE
FNDA:3024,_ZSt7forwardIRKNSt7__cxx1112basic_stringIcSt11char_traitsIcESaIcEEEEOT_RNSt16remove_referenceIS8_E4typeE
FNDA:0,_ZSt4moveIRSaIcEEONSt16remove_referenceIT_E4typeEOS3_
FNDA:0,_ZSt9addressofIKcEPT_RS1_
FNDA:0,_ZSt9addressofIcEPT_RS0_
FNF:9
FNH:1
DA:47,0
DA:48,0
DA:49,0
DA:50,0
DA:51,0
DA:52,0
DA:53,0
DA:54,0
DA:55,0
DA:56,0
DA:82,3024
DA:83,3024
DA:84,0
DA:85,0
DA:86,3024
DA:87,3024
DA:111,0
DA:112,0
DA:150,0
DA:151,0
DA:152,0
DA:153,0
DA:154,0
DA:155,0
LF:24
LH:4
end_of_record
SF:/usr/include/c++/8/bits/ptr_traits.h
FN:141,_ZNSt14pointer_traitsIPcE10pointer_toERc
FN:141,_ZNSt14pointer_traitsIPKcE10pointer_toERS0_
FNDA:0,_ZNSt14pointer_traitsIPKcE10pointer_toERS0_
FNDA:0,_ZNSt14pointer_traitsIPcE10pointer_toERc
FNF:2
FNH:0
DA:141,0
DA:142,0
DA:143,0
DA:144,0
DA:145,0
DA:146,0
LF:6
LH:0
end_of_record
SF:/usr/include/c++/8/bits/stl_algobase.h
FN:277,_ZSt12__niter_baseISt19_Bit_const_iteratorET_S1_
FN:277,_ZSt12__niter_baseISt13_Bit_iteratorET_S1_
FN:277,_ZSt12__niter_baseIPmET_S1_
FN:277,_ZSt12__niter_baseIPNSt7__cxx1112basic_stringIcSt11char_traitsIcESaIcEEEET_S7_
FN:319,_ZNSt11__copy_moveILb0ELb0ESt26random_access_iterator_tagE8__copy_mIPNSt7__cxx1112basic_stringIcSt11char_traitsIcESaIcEEES9_EET0_T_SB_SA_
FN:319,_ZNSt11__copy_moveILb0ELb0ESt26random_access_iterator_tagE8__copy_mIPKNSt7__cxx1112basic_stringIcSt11char_traitsIcESaIcEEEPS8_EET0_T_SD_SC_
FN:319,_ZNSt11__copy_moveILb0ELb0ESt26random_access_iterator_tagE8__copy_mISt19_Bit_const_iteratorSt13_Bit_iteratorEET0_T_S6_S5_
FN:357,_ZNSt11__copy_moveILb0ELb1ESt26random_access_iterator_tagE8__copy_mImEEPT_PKS3_S6_S4_
FN:375,_ZSt13__copy_move_aILb0EPKNSt7__cxx1112basic_stringIcSt11char_traitsIcESaIcEEEPS5_ET1_T0_SA_S9_
FN:375,_ZSt13__copy_move_aILb0EPmS0_ET1_T0_S2_S1_
FN:375,_ZSt13__copy_move_aILb0EPNSt7__cxx1112basic_stringIcSt11char_traitsIcESaIcEEES6_ET1_T0_S8_S7_
FN:375,_ZSt13__copy_move_aILb0ESt19_Bit_const_iteratorSt13_Bit_iteratorET1_T0_S3_S2_
FN:420,_ZSt14__copy_move_a2ILb0ESt19_Bit_const_iteratorSt13_Bit_iteratorET1_T0_S3_S2_
FN:420,_ZSt14__copy_move_a2ILb0EN9__gnu_cxx17__normal_iteratorIPKNSt7__cxx1112basic_stringIcSt11char_traitsIcESaIcEEESt6vectorIS7_SaIS7_EEEENS1_IPS7_SC_EEET1_T0_SH_SG_
FN:420,_ZSt14__copy_move_a2ILb0EPNSt7__cxx1112basic_stringIcSt11char_traitsIcESaIcEEES6_ET1_T0_S8_S7_
FN:420,_ZSt14__copy_move_a2ILb0EPmS0_ET1_T0_S2_S1_
FNDA:1384,_ZSt12__niter_baseISt13_Bit_iteratorET_S1_
FNDA:2120,_ZSt12__niter_baseISt19_Bit_const_iteratorET_S1_
FNDA:3180,_ZSt12__niter_baseIPmET_S1_
FNDA:0,_ZSt12__niter_baseIPNSt7__cxx1112basic_stringIcSt11char_traitsIcESaIcEEEET_S7_
FNDA:1060,_ZNSt11__copy_moveILb0ELb0ESt26random_access_iterator_tagE8__copy_mISt19_Bit_const_iteratorSt13_Bit_iteratorEET0_T_S6_S5_
FNDA:0,_ZNSt11__copy_moveILb0ELb0ESt26random_access_iterator_tagE8__copy_mIPNSt7__cxx1112basic_stringIcSt11char_traitsIcESaIcEEES9_EET0_T_SB_SA_
FNDA:0,_ZNSt11__copy_moveILb0ELb0ESt26random_access_iterator_tagE8__copy_mIPKNSt7__cxx1112basic_stringIcSt11char_traitsIcESaIcEEEPS8_EET0_T_SD_SC_
FNDA:1060,_ZNSt11__copy_moveILb0ELb1ESt26random_access_iterator_tagE8__copy_mImEEPT_PKS3_S6_S4_
FNDA:1060,_ZSt13__copy_move_aILb0ESt19_Bit_const_iteratorSt13_Bit_iteratorET1_T0_S3_S2_
FNDA:1060,_ZSt13__copy_move_aILb0EPmS0_ET1_T0_S2_S1_
FNDA:0,_ZSt13__copy_move_aILb0EPNSt7__cxx1112basic_stringIcSt11char_traitsIcESaIcEEES6_ET1_T0_S8_S7_
FNDA:0,_ZSt13__copy_move_aILb0EPKNSt7__cxx1112basic_stringIcSt11char_traitsIcESaIcEEEPS5_ET1_T0_SA_S9_
FNDA:1060,_ZSt14__copy_move_a2ILb0ESt19_Bit_const_iteratorSt13_Bit_iteratorET1_T0_S3_S2_
FNDA:1060,_ZSt14__copy_move_a2ILb0EPmS0_ET1_T0_S2_S1_
FNDA:0,_ZSt14__copy_move_a2ILb0EPNSt7__cxx1112basic_stringIcSt11char_traitsIcESaIcEEES6_ET1_T0_S8_S7_
FNDA:0,_ZSt14__copy_move_a2ILb0EN9__gnu_cxx17__normal_iteratorIPKNSt7__cxx1112basic_stringIcSt11char_traitsIcESaIcEEESt6vectorIS7_SaIS7_EEEENS1_IPS7_SC_EEET1_T0_SH_SG_
FNF:16
FNH:9
DA:277,6684
DA:278,6684
DA:279,1384
DA:280,1384
DA:281,2120
DA:282,2120
DA:283,3180
DA:284,3180
DA:285,0
DA:286,0
DA:327,1060
DA:330,8676
DA:332,7616
DA:333,7616
DA:334,7616
DA:336,1060
DA:338,1060
DA:341,8676
DA:343,7616
DA:344,7616
DA:345,7616
DA:347,1060
DA:349,0
DA:352,0
DA:354,0
DA:355,0
DA:356,0
DA:358,0
DA:360,0
DA:363,0
DA:365,0
DA:366,0
DA:367,0
DA:369,0
DA:398,1060
DA:407,1060
DA:408,1060
DA:409,0
DA:410,1060
DA:416,2120
DA:421,2120
DA:427,2120
DA:429,1060
DA:434,1060
DA:440,1060
DA:442,1060
DA:447,1060
DA:453,1060
DA:455,0
DA:460,0
DA:466,0
DA:468,0
DA:473,0
DA:479,0
DA:513,2120
DA:515,2120
DA:517,2120
DA:519,1060
DA:521,1060
DA:523,1060
DA:525,1060
DA:527,1060
DA:529,1060
DA:531,0
DA:533,0
DA:535,0
DA:537,0
DA:539,0
DA:541,0
DA:563,2120
DA:572,2120
DA:573,2120
LF:72
LH:45
end_of_record
SF:/usr/include/c++/8/bits/stl_bvector.h
FN:77,_ZNSt14_Bit_referenceC2EPmm
FN:82,_ZNKSt14_Bit_referencecvbEv
FN:86,_ZNSt14_Bit_referenceaSEb
FN:144,_ZNSt18_Bit_iterator_baseC2EPmj
FN:148,_ZNSt18_Bit_iterator_base10_M_bump_upEv
FN:168,_ZNSt18_Bit_iterator_base7_M_incrEl
FN:210,_ZStmiRKSt18_Bit_iterator_baseS1_
FN:222,_ZNSt13_Bit_iteratorC2Ev
FN:224,_ZNSt13_Bit_iteratorC2EPmj
FN:232,_ZNKSt13_Bit_iteratordeEv
FN:236,_ZNSt13_Bit_iteratorppEv
FN:266,_ZNSt13_Bit_iteratorpLEl
FN:280,_ZNKSt13_Bit_iteratorplEl
FN:311,_ZNSt19_Bit_const_iteratorC2EPmj
FN:314,_ZNSt19_Bit_const_iteratorC2ERKSt13_Bit_iterator
FN:322,_ZNKSt19_Bit_const_iteratordeEv
FN:326,_ZNSt19_Bit_const_iteratorppEv
FN:440,_ZNSt13_Bvector_baseISaIbEE18_Bvector_impl_dataC2Ev
FN:461,_ZNSt13_Bvector_baseISaIbEE18_Bvector_impl_data8_M_resetEv
FN:477,_ZNSt13_Bvector_baseISaIbEE13_Bvector_implC2ERKSaImE
FN:486,_ZNKSt13_Bvector_baseISaIbEE13_Bvector_impl11_M_end_addrEv
FN:498,_ZNSt13_Bvector_baseISaIbEE20_M_get_Bit_allocatorEv
FN:502,_ZNKSt13_Bvector_baseISaIbEE20_M_get_Bit_allocatorEv
FN:515,_ZNSt13_Bvector_baseISaIbEEC2ERKS0_
FN:522,_ZNSt13_Bvector_baseISaIbEED2Ev
FN:529,_ZNSt13_Bvector_baseISaIbEE11_M_allocateEm
FN:533,_ZNSt13_Bvector_baseISaIbEE13_M_deallocateEv
FN:552,_ZNSt13_Bvector_baseISaIbEE8_S_nwordEm
FN:652,_ZNSt6vectorIbSaIbEEC2ERKS1_
FN:710,_ZNSt6vectorIbSaIbEED2Ev
FN:713,_ZNSt6vectorIbSaIbEEaSERKS1_
FN:807,_ZNSt6vectorIbSaIbEE5beginEv
FN:811,_ZNKSt6vectorIbSaIbEE5beginEv
FN:819,_ZNKSt6vectorIbSaIbEE3endEv
FN:857,_ZNKSt6vectorIbSaIbEE4sizeEv
FN:873,_ZNKSt6vectorIbSaIbEE8capacityEv
FN:882,_ZNSt6vectorIbSaIbEEixEm
FN:889,_ZNKSt6vectorIbSaIbEEixEm
FN:1107,_ZNSt6vectorIbSaIbEE15_M_copy_alignedESt19_Bit_const_iteratorS2_St13_Bit_iterator
FN:1116,_ZNSt6vectorIbSaIbEE13_M_initializeEm
FNDA:17824,_ZNSt14_Bit_referenceC2EPmm
FNDA:9344,_ZNKSt14_Bit_referencecvbEv
FNDA:8480,_ZNSt14_Bit_referenceaSEb
FNDA:0,_ZNSt18_Bit_iterator_baseC2EPmj
FNDA:16096,_ZNSt18_Bit_iterator_base10_M_bump_upEv
FNDA:952,_ZNSt18_Bit_iterator_base7_M_incrEl
FNDA:2552,_ZStmiRKSt18_Bit_iterator_baseS1_
FNDA:0,_ZNSt13_Bit_iteratorC2Ev
FNDA:2120,_ZNSt13_Bit_iteratorC2EPmj
FNDA:8480,_ZNKSt13_Bit_iteratordeEv
FNDA:7616,_ZNSt13_Bit_iteratorppEv
FNDA:952,_ZNSt13_Bit_iteratorpLEl
FNDA:952,_ZNKSt13_Bit_iteratorplEl
FNDA:2788,_ZNSt19_Bit_const_iteratorC2EPmj
FNDA:4888,_ZNSt19_Bit_const_iteratorC2ERKSt13_Bit_iterator
FNDA:9344,_ZNKSt19_Bit_const_iteratordeEv
FNDA:7616,_ZNSt19_Bit_const_iteratorppEv
FNDA:1060,_ZNSt13_Bvector_baseISaIbEE18_Bvector_impl_dataC2Ev
FNDA:0,_ZNSt13_Bvector_baseISaIbEE18_Bvector_impl_data8_M_resetEv
FNDA:952,_ZNSt13_Bvector_baseISaIbEE13_Bvector_implC2ERKSaImE
FNDA:0,_ZNKSt13_Bvector_baseISaIbEE13_Bvector_impl11_M_end_addrEv
FNDA:0,_ZNSt13_Bvector_baseISaIbEE20_M_get_Bit_allocatorEv
FNDA:1168,_ZNKSt13_Bvector_baseISaIbEE20_M_get_Bit_allocatorEv
FNDA:952,_ZNSt13_Bvector_baseISaIbEEC2ERKS0_
FNDA:0,_ZNSt13_Bvector_baseISaIbEED2Ev
FNDA:1060,_ZNSt13_Bvector_baseISaIbEE11_M_allocateEm
FNDA:0,_ZNSt13_Bvector_baseISaIbEE13_M_deallocateEv
FNDA:2120,_ZNSt13_Bvector_baseISaIbEE8_S_nwordEm
FNDA:952,_ZNSt6vectorIbSaIbEEC2ERKS1_
FNDA:0,_ZNSt6vectorIbSaIbEED2Ev
FNDA:0,_ZNSt6vectorIbSaIbEEaSERKS1_
FNDA:108,_ZNSt6vectorIbSaIbEE5beginEv
FNDA:2336,_ZNKSt6vectorIbSaIbEE5beginEv
FNDA:2336,_ZNKSt6vectorIbSaIbEE3endEv
FNDA:1384,_ZNKSt6vectorIbSaIbEE4sizeEv
FNDA:0,_ZNKSt6vectorIbSaIbEE8capacityEv
FNDA:0,_ZNSt6vectorIbSaIbEEixEm
FNDA:1728,_ZNKSt6vectorIbSaIbEEixEm
FNDA:1060,_ZNSt6vectorIbSaIbEE15_M_copy_alignedESt19_Bit_const_iteratorS2_St13_Bit_iterator
FNDA:952,_ZNSt6vectorIbSaIbEE13_M_initializeEm
FNF:40
FNH:29
DA:77,17824
DA:78,17824
DA:82,9344
DA:83,9344
DA:86,8480
DA:88,8480
DA:89,2053
DA:91,6427
DA:92,8480
DA:144,0
DA:145,0
DA:148,16096
DA:150,16096
DA:152,0
DA:153,0
DA:155,16096
DA:168,952
DA:170,952
DA:171,952
DA:172,952
DA:173,952
DA:175,0
DA:176,0
DA:178,952
DA:179,952
DA:210,2552
DA:212,2552
DA:213,2552
DA:222,0
DA:224,2120
DA:225,2120
DA:232,8480
DA:233,8480
DA:236,7616
DA:238,7616
DA:239,7616
DA:266,952
DA:268,952
DA:269,952
DA:280,952
DA:282,952
DA:283,952
DA:311,2788
DA:312,2788
DA:314,4888
DA:315,4888
DA:322,9344
DA:323,9344
DA:326,7616
DA:328,7616
DA:329,7616
DA:440,1060
DA:441,1060
DA:442,1060
DA:461,0
DA:463,0
DA:464,0
DA:465,0
DA:477,952
DA:478,952
DA:479,952
DA:486,0
DA:488,0
DA:489,0
DA:490,0
DA:498,0
DA:499,0
DA:502,1168
DA:503,1168
DA:515,952
DA:516,952
DA:522,0
DA:523,0
DA:529,1060
DA:530,1060
DA:533,0
DA:535,0
DA:537,0
DA:538,0
DA:539,0
DA:541,0
DA:543,0
DA:552,2120
DA:553,2120
DA:652,952
DA:653,952
DA:655,952
DA:656,952
DA:657,952
DA:710,0
DA:713,0
DA:715,0
DA:716,0
DA:718,0
DA:720,0
DA:722,0
DA:723,0
DA:725,0
DA:728,0
DA:732,0
DA:734,0
DA:735,0
DA:737,0
DA:739,0
DA:807,108
DA:808,108
DA:811,2336
DA:812,2336
DA:819,2336
DA:820,2336
DA:857,1384
DA:858,1384
DA:873,0
DA:875,0
DA:882,0
DA:884,0
DA:885,0
DA:889,1728
DA:891,3456
DA:892,3456
DA:1107,1060
DA:1110,1060
DA:1111,2120
DA:1112,2120
DA:1116,952
DA:1118,952
DA:1120,952
DA:1121,952
DA:1122,952
DA:1126,0
DA:1127,0
DA:1129,952
DA:1131,952
LF:133
LH:85
end_of_record
SF:/usr/include/c++/8/bits/stl_construct.h
FN:74,_ZSt10_ConstructINSt7__cxx1112basic_stringIcSt11char_traitsIcESaIcEEEJRS5_EEvPT_DpOT0_
FN:74,_ZSt10_ConstructINSt7__cxx1112basic_stringIcSt11char_traitsIcESaIcEEEJRKS5_EEvPT_DpOT0_
FN:97,_ZSt8_DestroyINSt7__cxx1112basic_stringIcSt11char_traitsIcESaIcEEEEvPT_
FN:105,_ZNSt12_Destroy_auxILb0EE9__destroyIN9__gnu_cxx17__normal_iteratorIPNSt7__cxx1112basic_stringIcSt11char_traitsIcESaIcEEESt6vectorIS9_SaIS9_EEEEEEvT_SF_
FN:105,_ZNSt12_Destroy_auxILb0EE9__destroyIPNSt7__cxx1112basic_stringIcSt11char_traitsIcESaIcEEEEEvT_S9_
FN:127,_ZSt8_DestroyIPNSt7__cxx1112basic_stringIcSt11char_traitsIcESaIcEEEEvT_S7_
FN:127,_ZSt8_DestroyIN9__gnu_cxx17__normal_iteratorIPNSt7__cxx1112basic_stringIcSt11char_traitsIcESaIcEEESt6vectorIS7_SaIS7_EEEEEvT_SD_
FN:203,_ZSt8_DestroyIN9__gnu_cxx17__normal_iteratorIPNSt7__cxx1112basic_stringIcSt11char_traitsIcESaIcEEESt6vectorIS7_SaIS7_EEEES7_EvT_SD_RSaIT0_E
FN:203,_ZSt8_DestroyIPNSt7__cxx1112basic_stringIcSt11char_traitsIcESaIcEEES5_EvT_S7_RSaIT0_E
FNDA:0,_ZSt10_ConstructINSt7__cxx1112basic_stringIcSt11char_traitsIcESaIcEEEJRS5_EEvPT_DpOT0_
FNDA:3024,_ZSt10_ConstructINSt7__cxx1112basic_stringIcSt11char_traitsIcESaIcEEEJRKS5_EEvPT_DpOT0_
FNDA:0,_ZSt8_DestroyINSt7__cxx1112basic_stringIcSt11char_traitsIcESaIcEEEEvPT_
FNDA:0,_ZNSt12_Destroy_auxILb0EE9__destroyIN9__gnu_cxx17__normal_iteratorIPNSt7__cxx1112basic_stringIcSt11char_traitsIcESaIcEEESt6vectorIS9_SaIS9_EEEEEEvT_SF_
FNDA:0,_ZNSt12_Destroy_auxILb0EE9__destroyIPNSt7__cxx1112basic_stringIcSt11char_traitsIcESaIcEEEEEvT_S9_
FNDA:0,_ZSt8_DestroyIN9__gnu_cxx17__normal_iteratorIPNSt7__cxx1112basic_stringIcSt11char_traitsIcESaIcEEESt6vectorIS7_SaIS7_EEEEEvT_SD_
FNDA:0,_ZSt8_DestroyIPNSt7__cxx1112basic_stringIcSt11char_traitsIcESaIcEEEEvT_S7_
FNDA:0,_ZSt8_DestroyIN9__gnu_cxx17__normal_iteratorIPNSt7__cxx1112basic_stringIcSt11char_traitsIcESaIcEEESt6vectorIS7_SaIS7_EEEES7_EvT_SD_RSaIT0_E
FNDA:0,_ZSt8_DestroyIPNSt7__cxx1112basic_stringIcSt11char_traitsIcESaIcEEES5_EvT_S7_RSaIT0_E
FNF:9
FNH:1
DA:74,3024
DA:75,3024
DA:76,0
DA:77,0
DA:78,3024
DA:79,3024
DA:101,0
DA:102,0
DA:109,0
DA:111,0
DA:112,0
DA:113,0
DA:114,0
DA:116,0
DA:117,0
DA:118,0
DA:119,0
DA:121,0
DA:122,0
DA:123,0
DA:141,0
DA:151,0
DA:152,0
DA:153,0
DA:163,0
DA:164,0
DA:165,0
DA:175,0
DA:176,0
DA:241,0
DA:244,0
DA:245,0
DA:246,0
DA:249,0
DA:250,0
DA:251,0
DA:254,0
DA:255,0
LF:38
LH:4
end_of_record
SF:/usr/include/c++/8/bits/stl_iterator.h
FN:783,_ZN9__gnu_cxx17__normal_iteratorIPKNSt7__cxx1112basic_stringIcSt11char_traitsIcESaIcEEESt6vectorIS6_SaIS6_EEEC2ERKS8_
FN:783,_ZN9__gnu_cxx17__normal_iteratorIPNSt7__cxx1112basic_stringIcSt11char_traitsIcESaIcEEESt6vectorIS6_SaIS6_EEEC2ERKS7_
FN:796,_ZNK9__gnu_cxx17__normal_iteratorIPKNSt7__cxx1112basic_stringIcSt11char_traitsIcESaIcEEESt6vectorIS6_SaIS6_EEEdeEv
FN:796,_ZNK9__gnu_cxx17__normal_iteratorIPNSt7__cxx1112basic_stringIcSt11char_traitsIcESaIcEEESt6vectorIS6_SaIS6_EEEdeEv
FN:804,_ZN9__gnu_cxx17__normal_iteratorIPKNSt7__cxx1112basic_stringIcSt11char_traitsIcESaIcEEESt6vectorIS6_SaIS6_EEEppEv
FN:804,_ZN9__gnu_cxx17__normal_iteratorIPNSt7__cxx1112basic_stringIcSt11char_traitsIcESaIcEEESt6vectorIS6_SaIS6_EEEppEv
FN:848,_ZNK9__gnu_cxx17__normal_iteratorIPNSt7__cxx1112basic_stringIcSt11char_traitsIcESaIcEEESt6vectorIS6_SaIS6_EEE4baseEv
FN:848,_ZNK9__gnu_cxx17__normal_iteratorIPKNSt7__cxx1112basic_stringIcSt11char_traitsIcESaIcEEESt6vectorIS6_SaIS6_EEE4baseEv
FN:884,_ZN9__gnu_cxxneIPNSt7__cxx1112basic_stringIcSt11char_traitsIcESaIcEEESt6vectorIS6_SaIS6_EEEEbRKNS_17__normal_iteratorIT_T0_EESG_
FN:884,_ZN9__gnu_cxxneIPKNSt7__cxx1112basic_stringIcSt11char_traitsIcESaIcEEESt6vectorIS6_SaIS6_EEEEbRKNS_17__normal_iteratorIT_T0_EESH_
FN:987,_ZSt12__niter_baseIPNSt7__cxx1112basic_stringIcSt11char_traitsIcESaIcEEESt6vectorIS5_SaIS5_EEET_N9__gnu_cxx17__normal_iteratorISA_T0_EE
FN:987,_ZSt12__niter_baseIPKNSt7__cxx1112basic_stringIcSt11char_traitsIcESaIcEEESt6vectorIS5_SaIS5_EEET_N9__gnu_cxx17__normal_iteratorISB_T0_EE
FNDA:960,_ZN9__gnu_cxx17__normal_iteratorIPNSt7__cxx1112basic_stringIcSt11char_traitsIcESaIcEEESt6vectorIS6_SaIS6_EEEC2ERKS7_
FNDA:1904,_ZN9__gnu_cxx17__normal_iteratorIPKNSt7__cxx1112basic_stringIcSt11char_traitsIcESaIcEEESt6vectorIS6_SaIS6_EEEC2ERKS8_
FNDA:320,_ZNK9__gnu_cxx17__normal_iteratorIPNSt7__cxx1112basic_stringIcSt11char_traitsIcESaIcEEESt6vectorIS6_SaIS6_EEEdeEv
FNDA:3024,_ZNK9__gnu_cxx17__normal_iteratorIPKNSt7__cxx1112basic_stringIcSt11char_traitsIcESaIcEEESt6vectorIS6_SaIS6_EEEdeEv
FNDA:0,_ZN9__gnu_cxx17__normal_iteratorIPNSt7__cxx1112basic_stringIcSt11char_traitsIcESaIcEEESt6vectorIS6_SaIS6_EEEppEv
FNDA:3024,_ZN9__gnu_cxx17__normal_iteratorIPKNSt7__cxx1112basic_stringIcSt11char_traitsIcESaIcEEESt6vectorIS6_SaIS6_EEEppEv
FNDA:640,_ZNK9__gnu_cxx17__normal_iteratorIPNSt7__cxx1112basic_stringIcSt11char_traitsIcESaIcEEESt6vectorIS6_SaIS6_EEE4baseEv
FNDA:7952,_ZNK9__gnu_cxx17__normal_iteratorIPKNSt7__cxx1112basic_stringIcSt11char_traitsIcESaIcEEESt6vectorIS6_SaIS6_EEE4baseEv
FNDA:0,_ZN9__gnu_cxxneIPNSt7__cxx1112basic_stringIcSt11char_traitsIcESaIcEEESt6vectorIS6_SaIS6_EEEEbRKNS_17__normal_iteratorIT_T0_EESG_
FNDA:3976,_ZN9__gnu_cxxneIPKNSt7__cxx1112basic_stringIcSt11char_traitsIcESaIcEEESt6vectorIS6_SaIS6_EEEEbRKNS_17__normal_iteratorIT_T0_EESH_
FNDA:0,_ZSt12__niter_baseIPNSt7__cxx1112basic_stringIcSt11char_traitsIcESaIcEEESt6vectorIS5_SaIS5_EEET_N9__gnu_cxx17__normal_iteratorISA_T0_EE
FNDA:0,_ZSt12__niter_baseIPKNSt7__cxx1112basic_stringIcSt11char_traitsIcESaIcEEESt6vectorIS5_SaIS5_EEET_N9__gnu_cxx17__normal_iteratorISB_T0_EE
FNF:12
FNH:8
DA:783,2864
DA:784,2864
DA:785,960
DA:786,960
DA:787,1904
DA:788,1904
DA:800,3344
DA:801,3344
DA:802,320
DA:803,320
DA:804,3024
DA:805,3024
DA:812,3024
DA:814,3024
DA:815,3024
DA:817,0
DA:819,0
DA:820,0
DA:822,3024
DA:824,3024
DA:825,3024
DA:866,8592
DA:867,8592
DA:868,640
DA:869,640
DA:870,7952
DA:871,7952
DA:906,3976
DA:909,3976
DA:910,0
DA:913,0
DA:914,3976
DA:917,3976
DA:1017,0
DA:1018,0
DA:1019,0
DA:1020,0
DA:1021,0
DA:1022,0
LF:39
LH:28
end_of_record
SF:/usr/include/c++/8/bits/stl_iterator_base_funcs.h
FN:98,_ZSt10__distanceIPcENSt15iterator_traitsIT_E15difference_typeES2_S2_St26random_access_iterator_tag
FN:138,_ZSt8distanceIPcENSt15iterator_traitsIT_E15difference_typeES2_S2_
FNDA:0,_ZSt10__distanceIPcENSt15iterator_traitsIT_E15difference_typeES2_S2_St26random_access_iterator_tag
FNDA:0,_ZSt8distanceIPcENSt15iterator_traitsIT_E15difference_typeES2_S2_
FNF:2
FNH:0
DA:98,0
DA:104,0
DA:138,0
DA:141,0
DA:142,0
LF:5
LH:0
end_of_record
SF:/usr/include/c++/8/bits/stl_iterator_base_types.h
FN:205,_ZSt19__iterator_categoryIPcENSt15iterator_traitsIT_E17iterator_categoryERKS2_
FNDA:0,_ZSt19__iterator_categoryIPcENSt15iterator_traitsIT_E17iterator_categoryERKS2_
FNF:1
FNH:0
DA:205,0
DA:206,0
LF:2
LH:0
end_of_record
SF:/usr/include/c++/8/bits/stl_uninitialized.h
FN:76,_ZNSt20__uninitialized_copyILb0EE13__uninit_copyIPNSt7__cxx1112basic_stringIcSt11char_traitsIcESaIcEEES8_EET0_T_SA_S9_
FN:76,_ZNSt20__uninitialized_copyILb0EE13__uninit_copyIN9__gnu_cxx17__normal_iteratorIPKNSt7__cxx1112basic_stringIcSt11char_traitsIcESaIcEEESt6vectorIS9_SaIS9_EEEEPS9_EET0_T_SI_SH_
FN:115,_ZSt18uninitialized_copyIPNSt7__cxx1112basic_stringIcSt11char_traitsIcESaIcEEES6_ET0_T_S8_S7_
FN:115,_ZSt18uninitialized_copyIN9__gnu_cxx17__normal_iteratorIPKNSt7__cxx1112basic_stringIcSt11char_traitsIcESaIcEEESt6vectorIS7_SaIS7_EEEEPS7_ET0_T_SG_SF_
FN:287,_ZSt22__uninitialized_copy_aIPNSt7__cxx1112basic_stringIcSt11char_traitsIcESaIcEEES6_S5_ET0_T_S8_S7_RSaIT1_E
FN:287,_ZSt22__uninitialized_copy_aIN9__gnu_cxx17__normal_iteratorIPKNSt7__cxx1112basic_stringIcSt11char_traitsIcESaIcEEESt6vectorIS7_SaIS7_EEEEPS7_S7_ET0_T_SG_SF_RSaIT1_E
FNDA:0,_ZNSt20__uninitialized_copyILb0EE13__uninit_copyIPNSt7__cxx1112basic_stringIcSt11char_traitsIcESaIcEEES8_EET0_T_SA_S9_
FNDA:952,_ZNSt20__uninitialized_copyILb0EE13__uninit_copyIN9__gnu_cxx17__normal_iteratorIPKNSt7__cxx1112basic_stringIcSt11char_traitsIcESaIcEEESt6vectorIS9_SaIS9_EEEEPS9_EET0_T_SI_SH_
FNDA:0,_ZSt18uninitialized_copyIPNSt7__cxx1112basic_stringIcSt11char_traitsIcESaIcEEES6_ET0_T_S8_S7_
FNDA:952,_ZSt18uninitialized_copyIN9__gnu_cxx17__normal_iteratorIPKNSt7__cxx1112basic_stringIcSt11char_traitsIcESaIcEEESt6vectorIS7_SaIS7_EEEEPS7_ET0_T_SG_SF_
FNDA:0,_ZSt22__uninitialized_copy_aIPNSt7__cxx1112basic_stringIcSt11char_traitsIcESaIcEEES6_S5_ET0_T_S8_S7_RSaIT1_E
FNDA:952,_ZSt22__uninitialized_copy_aIN9__gnu_cxx17__normal_iteratorIPKNSt7__cxx1112basic_stringIcSt11char_traitsIcESaIcEEESt6vectorIS7_SaIS7_EEEEPS7_S7_ET0_T_SG_SF_RSaIT1_E
FNF:6
FNH:3
DA:76,952
DA:79,952
DA:82,3976
DA:83,3024
DA:84,952
DA:86,0
DA:88,0
DA:89,0
DA:92,0
DA:95,0
DA:98,0
DA:99,0
DA:100,0
DA:102,0
DA:104,0
DA:105,0
DA:108,952
DA:111,952
DA:114,3976
DA:115,3024
DA:116,952
DA:118,0
DA:120,0
DA:121,0
DA:147,952
DA:160,952
DA:166,952
DA:168,0
DA:181,0
DA:187,0
DA:189,952
DA:202,952
DA:208,952
DA:361,952
DA:363,952
DA:364,0
DA:366,0
DA:367,952
DA:369,952
LF:39
LH:20
end_of_record
SF:/usr/include/c++/8/bits/stl_vector.h
FN:99,_ZNSt12_Vector_baseINSt7__cxx1112basic_stringIcSt11char_traitsIcESaIcEEESaIS5_EE12_Vector_implC2ERKS6_
FN:237,_ZNSt12_Vector_baseINSt7__cxx1112basic_stringIcSt11char_traitsIcESaIcEEESaIS5_EE19_M_get_Tp_allocatorEv
FN:241,_ZNKSt12_Vector_baseINSt7__cxx1112basic_stringIcSt11char_traitsIcESaIcEEESaIS5_EE19_M_get_Tp_allocatorEv
FN:258,_ZNSt12_Vector_baseINSt7__cxx1112basic_stringIcSt11char_traitsIcESaIcEEESaIS5_EEC2EmRKS6_
FN:283,_ZNSt12_Vector_baseINSt7__cxx1112basic_stringIcSt11char_traitsIcESaIcEEESaIS5_EED2Ev
FN:293,_ZNSt12_Vector_baseINSt7__cxx1112basic_stringIcSt11char_traitsIcESaIcEEESaIS5_EE11_M_allocateEm
FN:300,_ZNSt12_Vector_baseINSt7__cxx1112basic_stringIcSt11char_traitsIcESaIcEEESaIS5_EE13_M_deallocateEPS5_m
FN:309,_ZNSt12_Vector_baseINSt7__cxx1112basic_stringIcSt11char_traitsIcESaIcEEESaIS5_EE17_M_create_storageEm
FN:458,_ZNSt6vectorINSt7__cxx1112basic_stringIcSt11char_traitsIcESaIcEEESaIS5_EEC2ERKS7_
FN:565,_ZNSt6vectorINSt7__cxx1112basic_stringIcSt11char_traitsIcESaIcEEESaIS5_EED2Ev
FN:698,_ZNSt6vectorINSt7__cxx1112basic_stringIcSt11char_traitsIcESaIcEEESaIS5_EE5beginEv
FN:707,_ZNKSt6vectorINSt7__cxx1112basic_stringIcSt11char_traitsIcESaIcEEESaIS5_EE5beginEv
FN:716,_ZNSt6vectorINSt7__cxx1112basic_stringIcSt11char_traitsIcESaIcEEESaIS5_EE3endEv
FN:725,_ZNKSt6vectorINSt7__cxx1112basic_stringIcSt11char_traitsIcESaIcEEESaIS5_EE3endEv
FN:805,_ZNKSt6vectorINSt7__cxx1112basic_stringIcSt11char_traitsIcESaIcEEESaIS5_EE4sizeEv
FN:885,_ZNKSt6vectorINSt7__cxx1112basic_stringIcSt11char_traitsIcESaIcEEESaIS5_EE8capacityEv
FN:948,_ZNKSt6vectorINSt7__cxx1112basic_stringIcSt11char_traitsIcESaIcEEESaIS5_EEixEm
FN:1385,_ZNSt6vectorINSt7__cxx1112basic_stringIcSt11char_traitsIcESaIcEEESaIS5_EE5clearEv
FN:1395,_ZNSt6vectorINSt7__cxx1112basic_stringIcSt11char_traitsIcESaIcEEESaIS5_EE20_M_allocate_and_copyIN9__gnu_cxx17__normal_iteratorIPKS5_S7_EEEEPS5_mT_SF_
FN:1654,_ZNSt6vectorINSt7__cxx1112basic_stringIcSt11char_traitsIcESaIcEEESaIS5_EE15_M_erase_at_endEPS5_
FNDA:952,_ZNSt12_Vector_baseINSt7__cxx1112basic_stringIcSt11char_traitsIcESaIcEEESaIS5_EE12_Vector_implC2ERKS6_
FNDA:0,_ZNSt12_Vector_baseINSt7__cxx1112basic_stringIcSt11char_traitsIcESaIcEEESaIS5_EE19_M_get_Tp_allocatorEv
FNDA:1272,_ZNKSt12_Vector_baseINSt7__cxx1112basic_stringIcSt11char_traitsIcESaIcEEESaIS5_EE19_M_get_Tp_allocatorEv
FNDA:952,_ZNSt12_Vector_baseINSt7__cxx1112basic_stringIcSt11char_traitsIcESaIcEEESaIS5_EEC2EmRKS6_
FNDA:0,_ZNSt12_Vector_baseINSt7__cxx1112basic_stringIcSt11char_traitsIcESaIcEEESaIS5_EED2Ev
FNDA:1112,_ZNSt12_Vector_baseINSt7__cxx1112basic_stringIcSt11char_traitsIcESaIcEEESaIS5_EE11_M_allocateEm
FNDA:0,_ZNSt12_Vector_baseINSt7__cxx1112basic_stringIcSt11char_traitsIcESaIcEEESaIS5_EE13_M_deallocateEPS5_m
FNDA:952,_ZNSt12_Vector_baseINSt7__cxx1112basic_stringIcSt11char_traitsIcESaIcEEESaIS5_EE17_M_create_storageEm
FNDA:952,_ZNSt6vectorINSt7__cxx1112basic_stringIcSt11char_traitsIcESaIcEEESaIS5_EEC2ERKS7_
FNDA:0,_ZNSt6vectorINSt7__cxx1112basic_stringIcSt11char_traitsIcESaIcEEESaIS5_EED2Ev
FNDA:160,_ZNSt6vectorINSt7__cxx1112basic_stringIcSt11char_traitsIcESaIcEEESaIS5_EE5beginEv
FNDA:952,_ZNKSt6vectorINSt7__cxx1112basic_stringIcSt11char_traitsIcESaIcEEESaIS5_EE5beginEv
FNDA:480,_ZNSt6vectorINSt7__cxx1112basic_stringIcSt11char_traitsIcESaIcEEESaIS5_EE3endEv
FNDA:952,_ZNKSt6vectorINSt7__cxx1112basic_stringIcSt11char_traitsIcESaIcEEESaIS5_EE3endEv
FNDA:1592,_ZNKSt6vectorINSt7__cxx1112basic_stringIcSt11char_traitsIcESaIcEEESaIS5_EE4sizeEv
FNDA:0,_ZNKSt6vectorINSt7__cxx1112basic_stringIcSt11char_traitsIcESaIcEEESaIS5_EE8capacityEv
FNDA:640,_ZNKSt6vectorINSt7__cxx1112basic_stringIcSt11char_traitsIcESaIcEEESaIS5_EEixEm
FNDA:0,_ZNSt6vectorINSt7__cxx1112basic_stringIcSt11char_traitsIcESaIcEEESaIS5_EE5clearEv
FNDA:0,_ZNSt6vectorINSt7__cxx1112basic_stringIcSt11char_traitsIcESaIcEEESaIS5_EE20_M_allocate_and_copyIN9__gnu_cxx17__normal_iteratorIPKS5_S7_EEEEPS5_mT_SF_
FNDA:0,_ZNSt6vectorINSt7__cxx1112basic_stringIcSt11char_traitsIcESaIcEEESaIS5_EE15_M_erase_at_endEPS5_
FNF:20
FNH:12
DA:99,952
DA:100,952
DA:101,952
DA:237,0
DA:238,0
DA:241,1272
DA:242,1272
DA:258,952
DA:259,952
DA:260,952
DA:283,0
DA:285,0
DA:286,0
DA:287,0
DA:293,1112
DA:296,1112
DA:300,0
DA:303,0
DA:304,0
DA:305,0
DA:309,952
DA:311,952
DA:312,952
DA:313,952
DA:314,952
DA:458,952
DA:460,952
DA:462,952
DA:463,952
DA:465,952
DA:466,952
DA:565,0
DA:567,0
DA:568,0
DA:570,0
DA:698,160
DA:699,160
DA:707,952
DA:708,952
DA:716,480
DA:717,480
DA:725,952
DA:726,952
DA:805,1592
DA:806,1592
DA:885,0
DA:886,0
DA:887,0
DA:948,640
DA:951,640
DA:1385,0
DA:1386,0
DA:1395,0
DA:1398,0
DA:1401,0
DA:1402,0
DA:1403,0
DA:1405,0
DA:1407,0
DA:1408,0
DA:1654,0
DA:1656,0
DA:1658,0
DA:1659,0
DA:1660,0
DA:1663,0
LF:66
LH:33
end_of_record
SF:/usr/include/c++/8/bits/vector.tcc
FN:186,_ZNSt6vectorINSt7__cxx1112basic_stringIcSt11char_traitsIcESaIcEEESaIS5_EEaSERKS7_
FNDA:0,_ZNSt6vectorINSt7__cxx1112basic_stringIcSt11char_traitsIcESaIcEEESaIS5_EEaSERKS7_
FNF:1
FNH:0
DA:186,0
DA:189,0
DA:193,0
DA:195,0
DA:196,0
DA:199,0
DA:200,0
DA:201,0
DA:202,0
DA:203,0
DA:204,0
DA:205,0
DA:207,0
DA:211,0
DA:212,0
DA:214,0
DA:216,0
DA:217,0
DA:218,0
DA:219,0
DA:220,0
DA:221,0
DA:222,0
DA:224,0
DA:226,0
DA:227,0
DA:231,0
DA:233,0
DA:234,0
DA:236,0
DA:238,0
DA:240,0
LF:32
LH:0
end_of_record
SF:/usr/include/c++/8/ext/alloc_traits.h
FN:94,_ZN9__gnu_cxx14__alloc_traitsISaIcEcE17_S_select_on_copyERKS1_
FN:94,_ZN9__gnu_cxx14__alloc_traitsISaINSt7__cxx1112basic_stringIcSt11char_traitsIcESaIcEEEES6_E17_S_select_on_copyERKS7_
FN:94,_ZN9__gnu_cxx14__alloc_traitsISaImEmE17_S_select_on_copyERKS1_
FN:100,_ZN9__gnu_cxx14__alloc_traitsISaImEmE27_S_propagate_on_copy_assignEv
FN:100,_ZN9__gnu_cxx14__alloc_traitsISaIcEcE27_S_propagate_on_copy_assignEv
FN:100,_ZN9__gnu_cxx14__alloc_traitsISaINSt7__cxx1112basic_stringIcSt11char_traitsIcESaIcEEEES6_E27_S_propagate_on_copy_assignEv
FN:109,_ZN9__gnu_cxx14__alloc_traitsISaINSt7__cxx1112basic_stringIcSt11char_traitsIcESaIcEEEES6_E15_S_always_equalEv
FN:109,_ZN9__gnu_cxx14__alloc_traitsISaIcEcE15_S_always_equalEv
FNDA:0,_ZN9__gnu_cxx14__alloc_traitsISaIcEcE17_S_select_on_copyERKS1_
FNDA:952,_ZN9__gnu_cxx14__alloc_traitsISaINSt7__cxx1112basic_stringIcSt11char_traitsIcESaIcEEEES6_E17_S_select_on_copyERKS7_
FNDA:952,_ZN9__gnu_cxx14__alloc_traitsISaImEmE17_S_select_on_copyERKS1_
FNDA:0,_ZN9__gnu_cxx14__alloc_traitsISaIcEcE27_S_propagate_on_copy_assignEv
FNDA:0,_ZN9__gnu_cxx14__alloc_traitsISaINSt7__cxx1112basic_stringIcSt11char_traitsIcESaIcEEEES6_E27_S_propagate_on_copy_assignEv
FNDA:0,_ZN9__gnu_cxx14__alloc_traitsISaImEmE27_S_propagate_on_copy_assignEv
FNDA:0,_ZN9__gnu_cxx14__alloc_traitsISaIcEcE15_S_always_equalEv
FNDA:0,_ZN9__gnu_cxx14__alloc_traitsISaINSt7__cxx1112basic_stringIcSt11char_traitsIcESaIcEEEES6_E15_S_always_equalEv
FNF:8
FNH:2
DA:94,1904
DA:95,1904
DA:96,0
DA:97,0
DA:98,952
DA:99,952
DA:100,952
DA:101,952
DA:106,0
DA:107,0
DA:108,0
DA:109,0
DA:110,0
DA:111,0
DA:112,0
DA:113,0
DA:121,0
DA:122,0
DA:123,0
DA:124,0
DA:125,0
DA:126,0
LF:22
LH:6
end_of_record
SF:/usr/include/c++/8/ext/new_allocator.h
FN:79,_ZN9__gnu_cxx13new_allocatorIbEC2Ev
FN:79,_ZN9__gnu_cxx13new_allocatorImEC2Ev
FN:81,_ZN9__gnu_cxx13new_allocatorIcEC2ERKS1_
FN:81,_ZN9__gnu_cxx13new_allocatorINSt7__cxx1112basic_stringIcSt11char_traitsIcESaIcEEEEC2ERKS7_
FN:81,_ZN9__gnu_cxx13new_allocatorImEC2ERKS1_
FN:86,_ZN9__gnu_cxx13new_allocatorIcED2Ev
FN:86,_ZN9__gnu_cxx13new_allocatorIbED2Ev
FN:86,_ZN9__gnu_cxx13new_allocatorINSt7__cxx1112basic_stringIcSt11char_traitsIcESaIcEEEED2Ev
FN:86,_ZN9__gnu_cxx13new_allocatorImED2Ev
FN:99,_ZN9__gnu_cxx13new_allocatorImE8allocateEmPKv
FN:99,_ZN9__gnu_cxx13new_allocatorIcE8allocateEmPKv
FN:99,_ZN9__gnu_cxx13new_allocatorINSt7__cxx1112basic_stringIcSt11char_traitsIcESaIcEEEE8allocateEmPKv
FN:116,_ZN9__gnu_cxx13new_allocatorIcE10deallocateEPcm
FN:116,_ZN9__gnu_cxx13new_allocatorINSt7__cxx1112basic_stringIcSt11char_traitsIcESaIcEEEE10deallocateEPS6_m
FN:116,_ZN9__gnu_cxx13new_allocatorImE10deallocateEPmm
FN:129,_ZNK9__gnu_cxx13new_allocatorImE8max_sizeEv
FN:129,_ZNK9__gnu_cxx13new_allocatorINSt7__cxx1112basic_stringIcSt11char_traitsIcESaIcEEEE8max_sizeEv
FN:129,_ZNK9__gnu_cxx13new_allocatorIcE8max_sizeEv
FNDA:1060,_ZN9__gnu_cxx13new_allocatorImEC2Ev
FNDA:952,_ZN9__gnu_cxx13new_allocatorIbEC2Ev
FNDA:1904,_ZN9__gnu_cxx13new_allocatorINSt7__cxx1112basic_stringIcSt11char_traitsIcESaIcEEEEC2ERKS7_
FNDA:1904,_ZN9__gnu_cxx13new_allocatorImEC2ERKS1_
FNDA:0,_ZN9__gnu_cxx13new_allocatorIcEC2ERKS1_
FNDA:0,_ZN9__gnu_cxx13new_allocatorINSt7__cxx1112basic_stringIcSt11char_traitsIcESaIcEEEED2Ev
FNDA:952,_ZN9__gnu_cxx13new_allocatorIbED2Ev
FNDA:0,_ZN9__gnu_cxx13new_allocatorImED2Ev
FNDA:0,_ZN9__gnu_cxx13new_allocatorIcED2Ev
FNDA:538,_ZN9__gnu_cxx13new_allocatorINSt7__cxx1112basic_stringIcSt11char_traitsIcESaIcEEEE8allocateEmPKv
FNDA:1060,_ZN9__gnu_cxx13new_allocatorImE8allocateEmPKv
FNDA:0,_ZN9__gnu_cxx13new_allocatorIcE8allocateEmPKv
FNDA:0,_ZN9__gnu_cxx13new_allocatorIcE10deallocateEPcm
FNDA:0,_ZN9__gnu_cxx13new_allocatorINSt7__cxx1112basic_stringIcSt11char_traitsIcESaIcEEEE10deallocateEPS6_m
FNDA:0,_ZN9__gnu_cxx13new_allocatorImE10deallocateEPmm
FNDA:858,_ZNK9__gnu_cxx13new_allocatorINSt7__cxx1112basic_stringIcSt11char_traitsIcESaIcEEEE8max_sizeEv
FNDA:1276,_ZNK9__gnu_cxx13new_allocatorImE8max_sizeEv
FNDA:0,_ZNK9__gnu_cxx13new_allocatorIcE8max_sizeEv
FNF:18
FNH:9
DA:79,2012
DA:81,3808
DA:86,952
DA:99,1598
DA:101,1598
DA:102,0
DA:111,1598
DA:113,538
DA:115,538
DA:116,0
DA:125,538
DA:127,1060
DA:129,1060
DA:130,0
DA:139,1060
DA:141,0
DA:143,0
DA:144,0
DA:153,0
DA:158,0
DA:167,0
DA:169,0
DA:178,0
DA:180,0
DA:189,0
DA:191,0
DA:200,0
DA:204,2134
DA:205,2134
DA:206,858
DA:207,858
DA:208,1276
DA:209,1276
DA:210,0
DA:211,0
LF:35
LH:18
end_of_record
SF:/usr/include/c++/8/ext/type_traits.h
FN:152,_ZN9__gnu_cxx17__is_null_pointerIcEEbPT_
FNDA:0,_ZN9__gnu_cxx17__is_null_pointerIcEEbPT_
FNF:1
FNH:0
DA:152,0
DA:153,0
LF:2
LH:0
end_of_record
SF:/usr/include/c++/8/new
FN:168,_ZnwmPv
FN:174,_ZdlPvS_
FNDA:0,_ZnwmPv
FNDA:0,_ZdlPvS_
FNF:2
FNH:0
DA:168,0
DA:169,0
DA:174,0
LF:3
LH:0
end_of_record
SF:/home/fsl/prog/tino/src/core/Byte.cpp
FN:7,_ZN4core4ByteC2ERKSt6vectorIbSaIbEERKS1_INSt7__cxx1112basic_stringIcSt11char_traitsIcESaIcEEESaISB_EERKSB_
FN:15,_ZNK4core4Byte7getDescB5cxx11Em
FN:20,_ZNK4core4ByteixEm
FN:25,_ZN4core4Byte3setEm
FN:30,_ZNK4core4Byte7getNameB5cxx11Ev
FN:35,_ZN4core4ByteaSERKS0_
FN:44,_ZNK4core4ByteeqERKS0_
FN:64,_ZNK4core4Byte6getIntEv
FN:75,_ZN4core4Byte6setIntEi
FNDA:108,_ZN4core4ByteC2ERKSt6vectorIbSaIbEERKS1_INSt7__cxx1112basic_stringIcSt11char_traitsIcESaIcEEESaISB_EERKSB_
FNDA:640,_ZNK4core4Byte7getDescB5cxx11Em
FNDA:640,_ZNK4core4ByteixEm
FNDA:0,_ZN4core4Byte3setEm
FNDA:216,_ZNK4core4Byte7getNameB5cxx11Ev
FNDA:0,_ZN4core4ByteaSERKS0_
FNDA:0,_ZNK4core4ByteeqERKS0_
FNDA:136,_ZNK4core4Byte6getIntEv
FNDA:0,_ZN4core4Byte6setIntEi
FNF:9
FNH:5
DA:7,108
DA:9,108
DA:11,108
DA:13,108
DA:15,640
DA:17,640
DA:20,640
DA:22,640
DA:25,0
DA:27,0
DA:28,0
DA:30,216
DA:32,216
DA:35,0
DA:37,0
DA:38,0
DA:39,0
DA:41,0
DA:44,0
DA:46,0
DA:47,0
DA:49,0
DA:50,0
DA:51,0
DA:53,0
DA:54,0
DA:56,0
DA:58,0
DA:59,0
DA:61,0
DA:64,136
DA:66,136
DA:67,136
DA:69,1224
DA:70,1088
DA:72,136
DA:75,0
DA:77,0
DA:78,0
DA:79,0
DA:81,0
LF:41
LH:16
end_of_record
TN:
SF:/usr/include/c++/8/bits/basic_string.h
FN:175,_ZNKSt7__cxx1112basic_stringIcSt11char_traitsIcESaIcEE7_M_dataEv
FN:930,_ZNKSt7__cxx1112basic_stringIcSt11char_traitsIcESaIcEE4sizeEv
FN:2302,_ZNKSt7__cxx1112basic_stringIcSt11char_traitsIcESaIcEE4dataEv
FN:6056,_ZSteqIcEN9__gnu_cxx11__enable_ifIXsrSt9__is_charIT_E7__valueEbE6__typeERKNSt7__cxx1112basic_stringIS3_St11char_traitsIS3_ESaIS3_EEESE_
FNDA:0,_ZNKSt7__cxx1112basic_stringIcSt11char_traitsIcESaIcEE7_M_dataEv
FNDA:0,_ZNKSt7__cxx1112basic_stringIcSt11char_traitsIcESaIcEE4sizeEv
FNDA:0,_ZNKSt7__cxx1112basic_stringIcSt11char_traitsIcESaIcEE4dataEv
FNDA:0,_ZSteqIcEN9__gnu_cxx11__enable_ifIXsrSt9__is_charIT_E7__valueEbE6__typeERKNSt7__cxx1112basic_stringIS3_St11char_traitsIS3_ESaIS3_EEESE_
FNF:4
FNH:0
DA:175,0
DA:176,0
DA:930,0
DA:931,0
DA:2302,0
DA:2303,0
DA:6056,0
DA:6058,0
DA:6059,0
DA:6060,0
LF:10
LH:0
end_of_record
SF:/usr/include/c++/8/bits/char_traits.h
FN:104,_ZN9__gnu_cxx11char_traitsIcE2ltERKcS3_
FN:148,_ZN9__gnu_cxx11char_traitsIcE7compareEPKcS3_m
FN:302,_ZNSt11char_traitsIcE7compareEPKcS2_m
FNDA:0,_ZN9__gnu_cxx11char_traitsIcE2ltERKcS3_
FNDA:0,_ZN9__gnu_cxx11char_traitsIcE7compareEPKcS3_m
FNDA:0,_ZNSt11char_traitsIcE7compareEPKcS2_m
FNF:3
FNH:0
DA:104,0
DA:105,0
DA:148,0
DA:151,0
DA:152,0
DA:153,0
DA:154,0
DA:155,0
DA:156,0
DA:302,0
DA:305,0
DA:307,0
DA:308,0
DA:310,0
DA:311,0
DA:312,0
LF:16
LH:0
end_of_record
SF:/home/fsl/prog/tino/src/core/Settings.cpp
FN:3,_ZNK4core8SettingseqERKS0_
FNDA:0,_ZNK4core8SettingseqERKS0_
FNF:1
FNH:0
DA:3,0
DA:5,0
DA:6,0
DA:7,0
DA:8,0
DA:9,0
LF:6
LH:0
end_of_record
TN:
SF:/usr/include/c++/8/bits/alloc_traits.h
FN:435,_ZNSt16allocator_traitsISaIcEE8allocateERS0_m
FN:435,_ZNSt16allocator_traitsISaIN4core4ByteEEE8allocateERS2_m
FN:435,_ZNSt16allocator_traitsISaImEE8allocateERS0_m
FN:435,_ZNSt16allocator_traitsISaIN4core5GroupEEE8allocateERS2_m
FN:435,_ZNSt16allocator_traitsISaINSt7__cxx1112basic_stringIcSt11char_traitsIcESaIcEEEEE8allocateERS6_m
FN:461,_ZNSt16allocator_traitsISaIN4core5GroupEEE10deallocateERS2_PS1_m
FN:461,_ZNSt16allocator_traitsISaIN4core4ByteEEE10deallocateERS2_PS1_m
FN:461,_ZNSt16allocator_traitsISaINSt7__cxx1112basic_stringIcSt11char_traitsIcESaIcEEEEE10deallocateERS6_PS5_m
FN:461,_ZNSt16allocator_traitsISaImEE10deallocateERS0_Pmm
FN:461,_ZNSt16allocator_traitsISaIcEE10deallocateERS0_Pcm
FN:495,_ZNSt16allocator_traitsISaIcEE8max_sizeERKS0_
FN:504,_ZNSt16allocator_traitsISaINSt7__cxx1112basic_stringIcSt11char_traitsIcESaIcEEEEE37select_on_container_copy_constructionERKS6_
FN:504,_ZNSt16allocator_traitsISaIN4core4ByteEEE37select_on_container_copy_constructionERKS2_
FN:504,_ZNSt16allocator_traitsISaIcEE37select_on_container_copy_constructionERKS0_
FN:504,_ZNSt16allocator_traitsISaImEE37select_on_container_copy_constructionERKS0_
FN:504,_ZNSt16allocator_traitsISaIN4core5GroupEEE37select_on_container_copy_constructionERKS2_
FN:516,_ZSt18__do_alloc_on_copyISaIN4core5GroupEEEvRT_RKS3_St17integral_constantIbLb0EE
FN:516,_ZSt18__do_alloc_on_copyISaIcEEvRT_RKS1_St17integral_constantIbLb0EE
FN:520,_ZSt15__alloc_on_copyISaIcEEvRT_RKS1_
FN:520,_ZSt15__alloc_on_copyISaIN4core5GroupEEEvRT_RKS3_
FNDA:0,_ZNSt16allocator_traitsISaINSt7__cxx1112basic_stringIcSt11char_traitsIcESaIcEEEEE8allocateERS6_m
FNDA:0,_ZNSt16allocator_traitsISaImEE8allocateERS0_m
FNDA:304,_ZNSt16allocator_traitsISaIN4core4ByteEEE8allocateERS2_m
FNDA:43,_ZNSt16allocator_traitsISaIN4core5GroupEEE8allocateERS2_m
FNDA:0,_ZNSt16allocator_traitsISaIcEE8allocateERS0_m
FNDA:0,_ZNSt16allocator_traitsISaINSt7__cxx1112basic_stringIcSt11char_traitsIcESaIcEEEEE10deallocateERS6_PS5_m
FNDA:0,_ZNSt16allocator_traitsISaImEE10deallocateERS0_Pmm
FNDA:0,_ZNSt16allocator_traitsISaIN4core4ByteEEE10deallocateERS2_PS1_m
FNDA:0,_ZNSt16allocator_traitsISaIcEE10deallocateERS0_Pcm
FNDA:0,_ZNSt16allocator_traitsISaIN4core5GroupEEE10deallocateERS2_PS1_m
FNDA:0,_ZNSt16allocator_traitsISaIcEE8max_sizeERKS0_
FNDA:0,_ZNSt16allocator_traitsISaINSt7__cxx1112basic_stringIcSt11char_traitsIcESaIcEEEEE37select_on_container_copy_constructionERKS6_
FNDA:0,_ZNSt16allocator_traitsISaImEE37select_on_container_copy_constructionERKS0_
FNDA:211,_ZNSt16allocator_traitsISaIN4core4ByteEEE37select_on_container_copy_constructionERKS2_
FNDA:0,_ZNSt16allocator_traitsISaIcEE37select_on_container_copy_constructionERKS0_
FNDA:21,_ZNSt16allocator_traitsISaIN4core5GroupEEE37select_on_container_copy_constructionERKS2_
FNDA:0,_ZSt18__do_alloc_on_copyISaIcEEvRT_RKS1_St17integral_constantIbLb0EE
FNDA:0,_ZSt18__do_alloc_on_copyISaIN4core5GroupEEEvRT_RKS3_St17integral_constantIbLb0EE
FNDA:0,_ZSt15__alloc_on_copyISaIcEEvRT_RKS1_
FNDA:0,_ZSt15__alloc_on_copyISaIN4core5GroupEEEvRT_RKS3_
FNF:20
FNH:4
DA:435,347
DA:436,347
DA:437,0
DA:438,0
DA:439,0
DA:440,0
DA:441,304
DA:442,304
DA:443,43
DA:444,43
DA:445,0
DA:446,0
DA:471,0
DA:472,0
DA:473,0
DA:474,0
DA:475,0
DA:476,0
DA:477,0
DA:478,0
DA:479,0
DA:480,0
DA:481,0
DA:482,0
DA:515,0
DA:516,0
DA:524,232
DA:525,232
DA:526,0
DA:527,0
DA:528,0
DA:529,0
DA:530,211
DA:531,211
DA:532,0
DA:533,0
DA:534,21
DA:535,21
DA:546,0
DA:547,0
DA:548,0
DA:549,0
DA:550,0
DA:551,0
DA:554,0
DA:558,0
DA:559,0
DA:560,0
DA:564,0
DA:565,0
DA:566,0
DA:570,0
DA:571,0
LF:53
LH:12
end_of_record
SF:/usr/include/c++/8/bits/allocator.h
FN:133,_ZNSaImEC2ERKS_
FN:133,_ZNSaIN4core4ByteEEC2ERKS1_
FN:133,_ZNSaINSt7__cxx1112basic_stringIcSt11char_traitsIcESaIcEEEEC2ERKS5_
FN:133,_ZNSaIN4core5GroupEEC2ERKS1_
FN:137,_ZNSaImEC2IbEERKSaIT_E
FN:137,_ZNSaIbEC2ImEERKSaIT_E
FN:139,_ZNSaIN4core4ByteEED2Ev
FN:139,_ZNSaIbED2Ev
FN:139,_ZNSaImED2Ev
FN:139,_ZNSaINSt7__cxx1112basic_stringIcSt11char_traitsIcESaIcEEEED2Ev
FN:139,_ZNSaIN4core5GroupEED2Ev
FN:164,_ZStneIN4core5GroupEEbRKSaIT_ES5_
FN:164,_ZStneIcEbRKSaIT_ES3_
FNDA:0,_ZNSaINSt7__cxx1112basic_stringIcSt11char_traitsIcESaIcEEEEC2ERKS5_
FNDA:0,_ZNSaImEC2ERKS_
FNDA:422,_ZNSaIN4core4ByteEEC2ERKS1_
FNDA:42,_ZNSaIN4core5GroupEEC2ERKS1_
FNDA:0,_ZNSaImEC2IbEERKSaIT_E
FNDA:0,_ZNSaIbEC2ImEERKSaIT_E
FNDA:0,_ZNSaINSt7__cxx1112basic_stringIcSt11char_traitsIcESaIcEEEED2Ev
FNDA:0,_ZNSaIbED2Ev
FNDA:0,_ZNSaImED2Ev
FNDA:0,_ZNSaIN4core4ByteEED2Ev
FNDA:0,_ZNSaIN4core5GroupEED2Ev
FNDA:0,_ZStneIcEbRKSaIT_ES3_
FNDA:0,_ZStneIN4core5GroupEEbRKSaIT_ES5_
FNF:13
FNH:2
DA:133,464
DA:134,464
DA:135,0
DA:136,0
DA:137,0
DA:138,0
DA:139,422
DA:140,422
DA:141,42
DA:142,42
DA:145,0
DA:147,0
DA:172,0
DA:174,0
DA:175,0
DA:177,0
DA:178,0
DA:180,0
LF:18
LH:6
end_of_record
SF:/usr/include/c++/8/bits/basic_string.h
FN:148,_ZNSt7__cxx1112basic_stringIcSt11char_traitsIcESaIcEE12_Alloc_hiderC2EPcOS3_
FN:167,_ZNSt7__cxx1112basic_stringIcSt11char_traitsIcESaIcEE7_M_dataEPc
FN:171,_ZNSt7__cxx1112basic_stringIcSt11char_traitsIcESaIcEE9_M_lengthEm
FN:175,_ZNKSt7__cxx1112basic_stringIcSt11char_traitsIcESaIcEE7_M_dataEv
FN:179,_ZNSt7__cxx1112basic_stringIcSt11char_traitsIcESaIcEE13_M_local_dataEv
FN:189,_ZNKSt7__cxx1112basic_stringIcSt11char_traitsIcESaIcEE13_M_local_dataEv
FN:199,_ZNSt7__cxx1112basic_stringIcSt11char_traitsIcESaIcEE11_M_capacityEm
FN:203,_ZNSt7__cxx1112basic_stringIcSt11char_traitsIcESaIcEE13_M_set_lengthEm
FN:210,_ZNKSt7__cxx1112basic_stringIcSt11char_traitsIcESaIcEE11_M_is_localEv
FN:218,_ZNSt7__cxx1112basic_stringIcSt11char_traitsIcESaIcEE10_M_disposeEv
FN:225,_ZNSt7__cxx1112basic_stringIcSt11char_traitsIcESaIcEE10_M_destroyEm
FN:232,_ZNSt7__cxx1112basic_stringIcSt11char_traitsIcESaIcEE16_M_construct_auxIPcEEvT_S7_St12__false_type
FN:252,_ZNSt7__cxx1112basic_stringIcSt11char_traitsIcESaIcEE12_M_constructIPcEEvT_S7_
FN:275,_ZNSt7__cxx1112basic_stringIcSt11char_traitsIcESaIcEE16_M_get_allocatorEv
FN:279,_ZNKSt7__cxx1112basic_stringIcSt11char_traitsIcESaIcEE16_M_get_allocatorEv
FN:335,_ZNSt7__cxx1112basic_stringIcSt11char_traitsIcESaIcEE7_S_copyEPcPKcm
FN:381,_ZNSt7__cxx1112basic_stringIcSt11char_traitsIcESaIcEE13_S_copy_charsEPcS5_S5_
FN:437,_ZNSt7__cxx1112basic_stringIcSt11char_traitsIcESaIcEEC2ERKS4_
FN:656,_ZNSt7__cxx1112basic_stringIcSt11char_traitsIcESaIcEED2Ev
FN:664,_ZNSt7__cxx1112basic_stringIcSt11char_traitsIcESaIcEEaSERKS4_
FN:930,_ZNKSt7__cxx1112basic_stringIcSt11char_traitsIcESaIcEE4sizeEv
FN:936,_ZNKSt7__cxx1112basic_stringIcSt11char_traitsIcESaIcEE6lengthEv
FN:941,_ZNKSt7__cxx1112basic_stringIcSt11char_traitsIcESaIcEE8max_sizeEv
FN:993,_ZNKSt7__cxx1112basic_stringIcSt11char_traitsIcESaIcEE8capacityEv
FN:1364,_ZNSt7__cxx1112basic_stringIcSt11char_traitsIcESaIcEE6assignERKS4_
FN:2302,_ZNKSt7__cxx1112basic_stringIcSt11char_traitsIcESaIcEE4dataEv
FN:6056,_ZSteqIcEN9__gnu_cxx11__enable_ifIXsrSt9__is_charIT_E7__valueEbE6__typeERKNSt7__cxx1112basic_stringIS3_St11char_traitsIS3_ESaIS3_EEESE_
FN:6095,_ZStneIcSt11char_traitsIcESaIcEEbRKNSt7__cxx1112basic_stringIT_T0_T1_EESA_
FNDA:0,_ZNSt7__cxx1112basic_stringIcSt11char_traitsIcESaIcEE12_Alloc_hiderC2EPcOS3_
FNDA:0,_ZNSt7__cxx1112basic_stringIcSt11char_traitsIcESaIcEE7_M_dataEPc
FNDA:0,_ZNSt7__cxx1112basic_stringIcSt11char_traitsIcESaIcEE9_M_lengthEm
FNDA:0,_ZNKSt7__cxx1112basic_stringIcSt11char_traitsIcESaIcEE7_M_dataEv
FNDA:0,_ZNSt7__cxx1112basic_stringIcSt11char_traitsIcESaIcEE13_M_local_dataEv
FNDA:0,_ZNKSt7__cxx1112basic_stringIcSt11char_traitsIcESaIcEE13_M_local_dataEv
FNDA:0,_ZNSt7__cxx1112basic_stringIcSt11char_traitsIcESaIcEE11_M_capacityEm
FNDA:0,_ZNSt7__cxx1112basic_stringIcSt11char_traitsIcESaIcEE13_M_set_lengthEm
FNDA:0,_ZNKSt7__cxx1112basic_stringIcSt11char_traitsIcESaIcEE11_M_is_localEv
FNDA:0,_ZNSt7__cxx1112basic_stringIcSt11char_traitsIcESaIcEE10_M_disposeEv
FNDA:0,_ZNSt7__cxx1112basic_stringIcSt11char_traitsIcESaIcEE10_M_destroyEm
FNDA:0,_ZNSt7__cxx1112basic_stringIcSt11char_traitsIcESaIcEE16_M_construct_auxIPcEEvT_S7_St12__false_type
FNDA:0,_ZNSt7__cxx1112basic_stringIcSt11char_traitsIcESaIcEE12_M_constructIPcEEvT_S7_
FNDA:0,_ZNSt7__cxx1112basic_stringIcSt11char_traitsIcESaIcEE16_M_get_allocatorEv
FNDA:0,_ZNKSt7__cxx1112basic_stringIcSt11char_traitsIcESaIcEE16_M_get_allocatorEv
FNDA:0,_ZNSt7__cxx1112basic_stringIcSt11char_traitsIcESaIcEE7_S_copyEPcPKcm
FNDA:0,_ZNSt7__cxx1112basic_stringIcSt11char_traitsIcESaIcEE13_S_copy_charsEPcS5_S5_
FNDA:0,_ZNSt7__cxx1112basic_stringIcSt11char_traitsIcESaIcEEC2ERKS4_
FNDA:0,_ZNSt7__cxx1112basic_stringIcSt11char_traitsIcESaIcEED2Ev
FNDA:0,_ZNSt7__cxx1112basic_stringIcSt11char_traitsIcESaIcEEaSERKS4_
FNDA:0,_ZNKSt7__cxx1112basic_stringIcSt11char_traitsIcESaIcEE4sizeEv
FNDA:0,_ZNKSt7__cxx1112basic_stringIcSt11char_traitsIcESaIcEE6lengthEv
FNDA:0,_ZNKSt7__cxx1112basic_stringIcSt11char_traitsIcESaIcEE8max_sizeEv
FNDA:0,_ZNKSt7__cxx1112basic_stringIcSt11char_traitsIcESaIcEE8capacityEv
FNDA:0,_ZNSt7__cxx1112basic_stringIcSt11char_traitsIcESaIcEE6assignERKS4_
FNDA:0,_ZNKSt7__cxx1112basic_stringIcSt11char_traitsIcESaIcEE4dataEv
FNDA:0,_ZSteqIcEN9__gnu_cxx11__enable_ifIXsrSt9__is_charIT_E7__valueEbE6__typeERKNSt7__cxx1112basic_stringIS3_St11char_traitsIS3_ESaIS3_EEESE_
FNDA:0,_ZStneIcSt11char_traitsIcESaIcEEbRKNSt7__cxx1112basic_stringIT_T0_T1_EESA_
FNF:28
FNH:0
DA:148,0
DA:149,0
DA:167,0
DA:168,0
DA:171,0
DA:172,0
DA:175,0
DA:176,0
DA:179,0
DA:182,0
DA:189,0
DA:192,0
DA:199,0
DA:200,0
DA:203,0
DA:205,0
DA:206,0
DA:207,0
DA:210,0
DA:211,0
DA:218,0
DA:220,0
DA:221,0
DA:222,0
DA:225,0
DA:226,0
DA:232,0
DA:236,0
DA:237,0
DA:252,0
DA:255,0
DA:256,0
DA:275,0
DA:276,0
DA:279,0
DA:280,0
DA:335,0
DA:337,0
DA:338,0
DA:340,0
DA:341,0
DA:381,0
DA:382,0
DA:437,0
DA:439,0
DA:440,0
DA:656,0
DA:657,0
DA:664,0
DA:667,0
DA:669,0
DA:670,0
DA:674,0
DA:676,0
DA:677,0
DA:678,0
DA:682,0
DA:683,0
DA:685,0
DA:686,0
DA:687,0
DA:688,0
DA:689,0
DA:692,0
DA:695,0
DA:930,0
DA:931,0
DA:936,0
DA:937,0
DA:941,0
DA:942,0
DA:993,0
DA:995,0
DA:996,0
DA:1364,0
DA:1366,0
DA:1367,0
DA:2302,0
DA:2303,0
DA:6056,0
DA:6058,0
DA:6059,0
DA:6060,0
DA:6095,0
DA:6098,0
LF:85
LH:0
end_of_record
SF:/usr/include/c++/8/bits/basic_string.tcc
FN:132,_ZNSt7__cxx1112basic_stringIcSt11char_traitsIcESaIcEE9_M_createERmm
FN:206,_ZNSt7__cxx1112basic_stringIcSt11char_traitsIcESaIcEE12_M_constructIPcEEvT_S7_St20forward_iterator_tag
FN:254,_ZNSt7__cxx1112basic_stringIcSt11char_traitsIcESaIcEE9_M_assignERKS4_
FNDA:0,_ZNSt7__cxx1112basic_stringIcSt11char_traitsIcESaIcEE9_M_createERmm
FNDA:0,_ZNSt7__cxx1112basic_stringIcSt11char_traitsIcESaIcEE12_M_constructIPcEEvT_S7_St20forward_iterator_tag
FNDA:0,_ZNSt7__cxx1112basic_stringIcSt11char_traitsIcESaIcEE9_M_assignERKS4_
FNF:3
FNH:0
DA:132,0
DA:137,0
DA:138,0
DA:143,0
DA:145,0
DA:147,0
DA:148,0
DA:153,0
DA:206,0
DA:211,0
DA:212,0
DA:215,0
DA:217,0
DA:219,0
DA:220,0
DA:225,0
DA:232,0
DA:233,0
DA:254,0
DA:257,0
DA:259,0
DA:260,0
DA:262,0
DA:264,0
DA:265,0
DA:266,0
DA:267,0
DA:268,0
DA:271,0
DA:272,0
DA:274,0
DA:276,0
LF:32
LH:0
end_of_record
SF:/usr/include/c++/8/bits/char_traits.h
FN:104,_ZN9__gnu_cxx11char_traitsIcE2ltERKcS3_
FN:148,_ZN9__gnu_cxx11char_traitsIcE7compareEPKcS3_m
FN:286,_ZNSt11char_traitsIcE6assignERcRKc
FN:302,_ZNSt11char_traitsIcE7compareEPKcS2_m
FN:348,_ZNSt11char_traitsIcE4copyEPcPKcm
FNDA:0,_ZN9__gnu_cxx11char_traitsIcE2ltERKcS3_
FNDA:0,_ZN9__gnu_cxx11char_traitsIcE7compareEPKcS3_m
FNDA:0,_ZNSt11char_traitsIcE6assignERcRKc
FNDA:0,_ZNSt11char_traitsIcE7compareEPKcS2_m
FNDA:0,_ZNSt11char_traitsIcE4copyEPcPKcm
FNF:5
FNH:0
DA:104,0
DA:105,0
DA:148,0
DA:151,0
DA:152,0
DA:153,0
DA:154,0
DA:155,0
DA:156,0
DA:286,0
DA:287,0
DA:302,0
DA:305,0
DA:307,0
DA:308,0
DA:310,0
DA:311,0
DA:312,0
DA:348,0
DA:350,0
DA:351,0
DA:352,0
LF:22
LH:0
end_of_record
SF:/usr/include/c++/8/bits/cpp_type_traits.h
FN:419,_ZSt12__miter_baseIPN4core5GroupEET_S3_
FN:419,_ZSt12__miter_baseIPmET_S1_
FN:419,_ZSt12__miter_baseISt19_Bit_const_iteratorET_S1_
FN:419,_ZSt12__miter_baseIN9__gnu_cxx17__normal_iteratorIPKN4core5GroupESt6vectorIS3_SaIS3_EEEEET_SA_
FNDA:0,_ZSt12__miter_baseISt19_Bit_const_iteratorET_S1_
FNDA:0,_ZSt12__miter_baseIPmET_S1_
FNDA:0,_ZSt12__miter_baseIPN4core5GroupEET_S3_
FNDA:0,_ZSt12__miter_baseIN9__gnu_cxx17__normal_iteratorIPKN4core5GroupESt6vectorIS3_SaIS3_EEEEET_SA_
FNF:4
FNH:0
DA:419,0
DA:420,0
DA:421,0
DA:422,0
DA:423,0
DA:424,0
DA:425,0
DA:426,0
DA:427,0
DA:428,0
LF:10
LH:0
end_of_record
SF:/usr/include/c++/8/bits/move.h
FN:47,_ZSt11__addressofIKcEPT_RS1_
FN:47,_ZSt11__addressofIN4core4ByteEEPT_RS2_
FN:47,_ZSt11__addressofImEPT_RS0_
FN:47,_ZSt11__addressofINSt7__cxx1112basic_stringIcSt11char_traitsIcESaIcEEEEPT_RS6_
FN:47,_ZSt11__addressofIN4core5GroupEEPT_RS2_
FN:47,_ZSt11__addressofIcEPT_RS0_
FN:74,_ZSt7forwardIRN4core5GroupEEOT_RNSt16remove_referenceIS3_E4typeE
FN:74,_ZSt7forwardIRKNSt7__cxx1112basic_stringIcSt11char_traitsIcESaIcEEEEOT_RNSt16remove_referenceIS8_E4typeE
FN:74,_ZSt7forwardIRKN4core5GroupEEOT_RNSt16remove_referenceIS4_E4typeE
FN:74,_ZSt7forwardIRKN4core4ByteEEOT_RNSt16remove_referenceIS4_E4typeE
FN:99,_ZSt4moveIRSaIcEEONSt16remove_referenceIT_E4typeEOS3_
FN:138,_ZSt9addressofIKcEPT_RS1_
FN:138,_ZSt9addressofIcEPT_RS0_
FNDA:0,_ZSt11__addressofINSt7__cxx1112basic_stringIcSt11char_traitsIcESaIcEEEEPT_RS6_
FNDA:0,_ZSt11__addressofImEPT_RS0_
FNDA:0,_ZSt11__addressofIN4core4ByteEEPT_RS2_
FNDA:0,_ZSt11__addressofIKcEPT_RS1_
FNDA:0,_ZSt11__addressofIcEPT_RS0_
FNDA:0,_ZSt11__addressofIN4core5GroupEEPT_RS2_
FNDA:0,_ZSt7forwardIRKNSt7__cxx1112basic_stringIcSt11char_traitsIcESaIcEEEEOT_RNSt16remove_referenceIS8_E4typeE
FNDA:1045,_ZSt7forwardIRKN4core4ByteEEOT_RNSt16remove_referenceIS4_E4typeE
FNDA:0,_ZSt7forwardIRN4core5GroupEEOT_RNSt16remove_referenceIS3_E4typeE
FNDA:233,_ZSt7forwardIRKN4core5GroupEEOT_RNSt16remove_referenceIS4_E4typeE
FNDA:0,_ZSt4moveIRSaIcEEONSt16remove_referenceIT_E4typeEOS3_
FNDA:0,_ZSt9addressofIKcEPT_RS1_
FNDA:0,_ZSt9addressofIcEPT_RS0_
FNF:13
FNH:2
DA:47,0
DA:48,0
DA:49,0
DA:50,0
DA:51,0
DA:52,0
DA:53,0
DA:54,0
DA:55,0
DA:56,0
DA:57,0
DA:58,0
DA:59,0
DA:60,0
DA:86,1278
DA:87,1278
DA:88,0
DA:89,0
DA:90,1045
DA:91,1045
DA:92,0
DA:93,0
DA:94,233
DA:95,233
DA:119,0
DA:120,0
DA:158,0
DA:159,0
DA:160,0
DA:161,0
DA:162,0
DA:163,0
LF:32
LH:6
end_of_record
SF:/usr/include/c++/8/bits/ptr_traits.h
FN:141,_ZNSt14pointer_traitsIPKcE10pointer_toERS0_
FN:141,_ZNSt14pointer_traitsIPcE10pointer_toERc
FNDA:0,_ZNSt14pointer_traitsIPKcE10pointer_toERS0_
FNDA:0,_ZNSt14pointer_traitsIPcE10pointer_toERc
FNF:2
FNH:0
DA:141,0
DA:142,0
DA:143,0
DA:144,0
DA:145,0
DA:146,0
LF:6
LH:0
end_of_record
SF:/usr/include/c++/8/bits/stl_algo.h
FN:3876,_ZSt8for_eachIN9__gnu_cxx17__normal_iteratorIPN4core5GroupESt6vectorIS3_SaIS3_EEEEZNS2_5Block8getNbyteEvEUlRKS3_E_ET0_T_SE_SD_
FNDA:7,_ZSt8for_eachIN9__gnu_cxx17__normal_iteratorIPN4core5GroupESt6vectorIS3_SaIS3_EEEEZNS2_5Block8getNbyteEvEUlRKS3_E_ET0_T_SE_SD_
FNF:1
FNH:1
DA:3876,43
DA:3881,43
DA:3882,36
DA:3883,7
LF:4
LH:4
end_of_record
SF:/usr/include/c++/8/bits/stl_algobase.h
FN:277,_ZSt12__niter_baseIPN4core5GroupEET_S3_
FN:277,_ZSt12__niter_baseISt13_Bit_iteratorET_S1_
FN:277,_ZSt12__niter_baseIPmET_S1_
FN:277,_ZSt12__niter_baseISt19_Bit_const_iteratorET_S1_
FN:319,_ZNSt11__copy_moveILb0ELb0ESt26random_access_iterator_tagE8__copy_mIPKN4core5GroupEPS4_EET0_T_S9_S8_
FN:319,_ZNSt11__copy_moveILb0ELb0ESt26random_access_iterator_tagE8__copy_mISt19_Bit_const_iteratorSt13_Bit_iteratorEET0_T_S6_S5_
FN:319,_ZNSt11__copy_moveILb0ELb0ESt26random_access_iterator_tagE8__copy_mIPN4core5GroupES5_EET0_T_S7_S6_
FN:357,_ZNSt11__copy_moveILb0ELb1ESt26random_access_iterator_tagE8__copy_mImEEPT_PKS3_S6_S4_
FN:375,_ZSt13__copy_move_aILb0EPN4core5GroupES2_ET1_T0_S4_S3_
FN:375,_ZSt13__copy_move_aILb0EPKN4core5GroupEPS1_ET1_T0_S6_S5_
FN:375,_ZSt13__copy_move_aILb0ESt19_Bit_const_iteratorSt13_Bit_iteratorET1_T0_S3_S2_
FN:375,_ZSt13__copy_move_aILb0EPmS0_ET1_T0_S2_S1_
FN:420,_ZSt14__copy_move_a2ILb0EPN4core5GroupES2_ET1_T0_S4_S3_
FN:420,_ZSt14__copy_move_a2ILb0EPmS0_ET1_T0_S2_S1_
FN:420,_ZSt14__copy_move_a2ILb0EN9__gnu_cxx17__normal_iteratorIPKN4core5GroupESt6vectorIS3_SaIS3_EEEENS1_IPS3_S8_EEET1_T0_SD_SC_
FN:420,_ZSt14__copy_move_a2ILb0ESt19_Bit_const_iteratorSt13_Bit_iteratorET1_T0_S3_S2_
FNDA:0,_ZSt12__niter_baseISt13_Bit_iteratorET_S1_
FNDA:0,_ZSt12__niter_baseISt19_Bit_const_iteratorET_S1_
FNDA:0,_ZSt12__niter_baseIPmET_S1_
FNDA:0,_ZSt12__niter_baseIPN4core5GroupEET_S3_
FNDA:0,_ZNSt11__copy_moveILb0ELb0ESt26random_access_iterator_tagE8__copy_mISt19_Bit_const_iteratorSt13_Bit_iteratorEET0_T_S6_S5_
FNDA:0,_ZNSt11__copy_moveILb0ELb0ESt26random_access_iterator_tagE8__copy_mIPN4core5GroupES5_EET0_T_S7_S6_
FNDA:0,_ZNSt11__copy_moveILb0ELb0ESt26random_access_iterator_tagE8__copy_mIPKN4core5GroupEPS4_EET0_T_S9_S8_
FNDA:0,_ZNSt11__copy_moveILb0ELb1ESt26random_access_iterator_tagE8__copy_mImEEPT_PKS3_S6_S4_
FNDA:0,_ZSt13__copy_move_aILb0ESt19_Bit_const_iteratorSt13_Bit_iteratorET1_T0_S3_S2_
FNDA:0,_ZSt13__copy_move_aILb0EPmS0_ET1_T0_S2_S1_
FNDA:0,_ZSt13__copy_move_aILb0EPN4core5GroupES2_ET1_T0_S4_S3_
FNDA:0,_ZSt13__copy_move_aILb0EPKN4core5GroupEPS1_ET1_T0_S6_S5_
FNDA:0,_ZSt14__copy_move_a2ILb0ESt19_Bit_const_iteratorSt13_Bit_iteratorET1_T0_S3_S2_
FNDA:0,_ZSt14__copy_move_a2ILb0EPmS0_ET1_T0_S2_S1_
FNDA:0,_ZSt14__copy_move_a2ILb0EPN4core5GroupES2_ET1_T0_S4_S3_
FNDA:0,_ZSt14__copy_move_a2ILb0EN9__gnu_cxx17__normal_iteratorIPKN4core5GroupESt6vectorIS3_SaIS3_EEEENS1_IPS3_S8_EEET1_T0_SD_SC_
FNF:16
FNH:0
DA:277,0
DA:278,0
DA:279,0
DA:280,0
DA:281,0
DA:282,0
DA:283,0
DA:284,0
DA:285,0
DA:286,0
DA:327,0
DA:330,0
DA:332,0
DA:333,0
DA:334,0
DA:336,0
DA:338,0
DA:341,0
DA:343,0
DA:344,0
DA:345,0
DA:347,0
DA:349,0
DA:352,0
DA:354,0
DA:355,0
DA:356,0
DA:358,0
DA:360,0
DA:363,0
DA:365,0
DA:366,0
DA:367,0
DA:369,0
DA:398,0
DA:407,0
DA:408,0
DA:409,0
DA:410,0
DA:416,0
DA:421,0
DA:427,0
DA:429,0
DA:434,0
DA:440,0
DA:442,0
DA:447,0
DA:453,0
DA:455,0
DA:460,0
DA:466,0
DA:468,0
DA:473,0
DA:479,0
DA:513,0
DA:515,0
DA:517,0
DA:519,0
DA:521,0
DA:523,0
DA:525,0
DA:527,0
DA:529,0
DA:531,0
DA:533,0
DA:535,0
DA:537,0
DA:539,0
DA:541,0
DA:563,0
DA:572,0
DA:573,0
LF:72
LH:0
end_of_record
SF:/usr/include/c++/8/bits/stl_bvector.h
FN:77,_ZNSt14_Bit_referenceC2EPmm
FN:82,_ZNKSt14_Bit_referencecvbEv
FN:86,_ZNSt14_Bit_referenceaSEb
FN:144,_ZNSt18_Bit_iterator_baseC2EPmj
FN:148,_ZNSt18_Bit_iterator_base10_M_bump_upEv
FN:168,_ZNSt18_Bit_iterator_base7_M_incrEl
FN:210,_ZStmiRKSt18_Bit_iterator_baseS1_
FN:222,_ZNSt13_Bit_iteratorC2Ev
FN:224,_ZNSt13_Bit_iteratorC2EPmj
FN:232,_ZNKSt13_Bit_iteratordeEv
FN:236,_ZNSt13_Bit_iteratorppEv
FN:266,_ZNSt13_Bit_iteratorpLEl
FN:280,_ZNKSt13_Bit_iteratorplEl
FN:311,_ZNSt19_Bit_const_iteratorC2EPmj
FN:314,_ZNSt19_Bit_const_iteratorC2ERKSt13_Bit_iterator
FN:322,_ZNKSt19_Bit_const_iteratordeEv
FN:326,_ZNSt19_Bit_const_iteratorppEv
FN:440,_ZNSt13_Bvector_baseISaIbEE18_Bvector_impl_dataC2Ev
FN:461,_ZNSt13_Bvector_baseISaIbEE18_Bvector_impl_data8_M_resetEv
FN:477,_ZNSt13_Bvector_baseISaIbEE13_Bvector_implC2ERKSaImE
FN:486,_ZNKSt13_Bvector_baseISaIbEE13_Bvector_impl11_M_end_addrEv
FN:502,_ZNKSt13_Bvector_baseISaIbEE20_M_get_Bit_allocatorEv
FN:515,_ZNSt13_Bvector_baseISaIbEEC2ERKS0_
FN:522,_ZNSt13_Bvector_baseISaIbEED2Ev
FN:529,_ZNSt13_Bvector_baseISaIbEE11_M_allocateEm
FN:533,_ZNSt13_Bvector_baseISaIbEE13_M_deallocateEv
FN:552,_ZNSt13_Bvector_baseISaIbEE8_S_nwordEm
FN:652,_ZNSt6vectorIbSaIbEEC2ERKS1_
FN:710,_ZNSt6vectorIbSaIbEED2Ev
FN:811,_ZNKSt6vectorIbSaIbEE5beginEv
FN:819,_ZNKSt6vectorIbSaIbEE3endEv
FN:857,_ZNKSt6vectorIbSaIbEE4sizeEv
FN:1107,_ZNSt6vectorIbSaIbEE15_M_copy_alignedESt19_Bit_const_iteratorS2_St13_Bit_iterator
FN:1116,_ZNSt6vectorIbSaIbEE13_M_initializeEm
FNDA:0,_ZNSt14_Bit_referenceC2EPmm
FNDA:0,_ZNKSt14_Bit_referencecvbEv
FNDA:0,_ZNSt14_Bit_referenceaSEb
FNDA:0,_ZNSt18_Bit_iterator_baseC2EPmj
FNDA:0,_ZNSt18_Bit_iterator_base10_M_bump_upEv
FNDA:0,_ZNSt18_Bit_iterator_base7_M_incrEl
FNDA:0,_ZStmiRKSt18_Bit_iterator_baseS1_
FNDA:0,_ZNSt13_Bit_iteratorC2Ev
FNDA:0,_ZNSt13_Bit_iteratorC2EPmj
FNDA:0,_ZNKSt13_Bit_iteratordeEv
FNDA:0,_ZNSt13_Bit_iteratorppEv
FNDA:0,_ZNSt13_Bit_iteratorpLEl
FNDA:0,_ZNKSt13_Bit_iteratorplEl
FNDA:0,_ZNSt19_Bit_const_iteratorC2EPmj
FNDA:0,_ZNSt19_Bit_const_iteratorC2ERKSt13_Bit_iterator
FNDA:0,_ZNKSt19_Bit_const_iteratordeEv
FNDA:0,_ZNSt19_Bit_const_iteratorppEv
FNDA:0,_ZNSt13_Bvector_baseISaIbEE18_Bvector_impl_dataC2Ev
FNDA:0,_ZNSt13_Bvector_baseISaIbEE18_Bvector_impl_data8_M_resetEv
FNDA:0,_ZNSt13_Bvector_baseISaIbEE13_Bvector_implC2ERKSaImE
FNDA:0,_ZNKSt13_Bvector_baseISaIbEE13_Bvector_impl11_M_end_addrEv
FNDA:0,_ZNKSt13_Bvector_baseISaIbEE20_M_get_Bit_allocatorEv
FNDA:0,_ZNSt13_Bvector_baseISaIbEEC2ERKS0_
FNDA:0,_ZNSt13_Bvector_baseISaIbEED2Ev
FNDA:0,_ZNSt13_Bvector_baseISaIbEE11_M_allocateEm
FNDA:0,_ZNSt13_Bvector_baseISaIbEE13_M_deallocateEv
FNDA:0,_ZNSt13_Bvector_baseISaIbEE8_S_nwordEm
FNDA:0,_ZNSt6vectorIbSaIbEEC2ERKS1_
FNDA:0,_ZNSt6vectorIbSaIbEED2Ev
FNDA:0,_ZNKSt6vectorIbSaIbEE5beginEv
FNDA:0,_ZNKSt6vectorIbSaIbEE3endEv
FNDA:0,_ZNKSt6vectorIbSaIbEE4sizeEv
FNDA:0,_ZNSt6vectorIbSaIbEE15_M_copy_alignedESt19_Bit_const_iteratorS2_St13_Bit_iterator
FNDA:0,_ZNSt6vectorIbSaIbEE13_M_initializeEm
FNF:34
FNH:0
DA:77,0
DA:78,0
DA:82,0
DA:83,0
DA:86,0
DA:88,0
DA:89,0
DA:91,0
DA:92,0
DA:144,0
DA:145,0
DA:148,0
DA:150,0
DA:152,0
DA:153,0
DA:155,0
DA:168,0
DA:170,0
DA:171,0
DA:172,0
DA:173,0
DA:175,0
DA:176,0
DA:178,0
DA:179,0
DA:210,0
DA:212,0
DA:213,0
DA:222,0
DA:224,0
DA:225,0
DA:232,0
DA:233,0
DA:236,0
DA:238,0
DA:239,0
DA:266,0
DA:268,0
DA:269,0
DA:280,0
DA:282,0
DA:283,0
DA:311,0
DA:312,0
DA:314,0
DA:315,0
DA:322,0
DA:323,0
DA:326,0
DA:328,0
DA:329,0
DA:440,0
DA:441,0
DA:442,0
DA:461,0
DA:463,0
DA:464,0
DA:465,0
DA:477,0
DA:478,0
DA:479,0
DA:486,0
DA:488,0
DA:489,0
DA:490,0
DA:502,0
DA:503,0
DA:515,0
DA:516,0
DA:522,0
DA:523,0
DA:529,0
DA:530,0
DA:533,0
DA:535,0
DA:537,0
DA:538,0
DA:539,0
DA:541,0
DA:543,0
DA:552,0
DA:553,0
DA:652,0
DA:653,0
DA:655,0
DA:656,0
DA:657,0
DA:710,0
DA:811,0
DA:812,0
DA:819,0
DA:820,0
DA:857,0
DA:858,0
DA:1107,0
DA:1110,0
DA:1111,0
DA:1112,0
DA:1116,0
DA:1118,0
DA:1120,0
DA:1121,0
DA:1122,0
DA:1126,0
DA:1127,0
DA:1129,0
DA:1131,0
LF:107
LH:0
end_of_record
SF:/usr/include/c++/8/bits/stl_construct.h
FN:74,_ZSt10_ConstructIN4core5GroupEJRKS1_EEvPT_DpOT0_
FN:74,_ZSt10_ConstructINSt7__cxx1112basic_stringIcSt11char_traitsIcESaIcEEEJRKS5_EEvPT_DpOT0_
FN:74,_ZSt10_ConstructIN4core5GroupEJRS1_EEvPT_DpOT0_
FN:74,_ZSt10_ConstructIN4core4ByteEJRKS1_EEvPT_DpOT0_
FN:97,_ZSt8_DestroyIN4core4ByteEEvPT_
FN:97,_ZSt8_DestroyINSt7__cxx1112basic_stringIcSt11char_traitsIcESaIcEEEEvPT_
FN:97,_ZSt8_DestroyIN4core5GroupEEvPT_
FN:105,_ZNSt12_Destroy_auxILb0EE9__destroyIPNSt7__cxx1112basic_stringIcSt11char_traitsIcESaIcEEEEEvT_S9_
FN:105,_ZNSt12_Destroy_auxILb0EE9__destroyIPN4core4ByteEEEvT_S5_
FN:105,_ZNSt12_Destroy_auxILb0EE9__destroyIPN4core5GroupEEEvT_S5_
FN:105,_ZNSt12_Destroy_auxILb0EE9__destroyIN9__gnu_cxx17__normal_iteratorIPN4core5GroupESt6vectorIS5_SaIS5_EEEEEEvT_SB_
FN:127,_ZSt8_DestroyIPN4core5GroupEEvT_S3_
FN:127,_ZSt8_DestroyIN9__gnu_cxx17__normal_iteratorIPN4core5GroupESt6vectorIS3_SaIS3_EEEEEvT_S9_
FN:127,_ZSt8_DestroyIPNSt7__cxx1112basic_stringIcSt11char_traitsIcESaIcEEEEvT_S7_
FN:127,_ZSt8_DestroyIPN4core4ByteEEvT_S3_
FN:203,_ZSt8_DestroyIN9__gnu_cxx17__normal_iteratorIPN4core5GroupESt6vectorIS3_SaIS3_EEEES3_EvT_S9_RSaIT0_E
FN:203,_ZSt8_DestroyIPN4core5GroupES1_EvT_S3_RSaIT0_E
FN:203,_ZSt8_DestroyIPN4core4ByteES1_EvT_S3_RSaIT0_E
FN:203,_ZSt8_DestroyIPNSt7__cxx1112basic_stringIcSt11char_traitsIcESaIcEEES5_EvT_S7_RSaIT0_E
FNDA:0,_ZSt10_ConstructINSt7__cxx1112basic_stringIcSt11char_traitsIcESaIcEEEJRKS5_EEvPT_DpOT0_
FNDA:736,_ZSt10_ConstructIN4core4ByteEJRKS1_EEvPT_DpOT0_
FNDA:0,_ZSt10_ConstructIN4core5GroupEJRS1_EEvPT_DpOT0_
FNDA:139,_ZSt10_ConstructIN4core5GroupEJRKS1_EEvPT_DpOT0_
FNDA:0,_ZSt8_DestroyINSt7__cxx1112basic_stringIcSt11char_traitsIcESaIcEEEEvPT_
FNDA:0,_ZSt8_DestroyIN4core4ByteEEvPT_
FNDA:0,_ZSt8_DestroyIN4core5GroupEEvPT_
FNDA:0,_ZNSt12_Destroy_auxILb0EE9__destroyIPNSt7__cxx1112basic_stringIcSt11char_traitsIcESaIcEEEEEvT_S9_
FNDA:0,_ZNSt12_Destroy_auxILb0EE9__destroyIPN4core4ByteEEEvT_S5_
FNDA:0,_ZNSt12_Destroy_auxILb0EE9__destroyIN9__gnu_cxx17__normal_iteratorIPN4core5GroupESt6vectorIS5_SaIS5_EEEEEEvT_SB_
FNDA:0,_ZNSt12_Destroy_auxILb0EE9__destroyIPN4core5GroupEEEvT_S5_
FNDA:0,_ZSt8_DestroyIPNSt7__cxx1112basic_stringIcSt11char_traitsIcESaIcEEEEvT_S7_
FNDA:0,_ZSt8_DestroyIPN4core4ByteEEvT_S3_
FNDA:0,_ZSt8_DestroyIN9__gnu_cxx17__normal_iteratorIPN4core5GroupESt6vectorIS3_SaIS3_EEEEEvT_S9_
FNDA:0,_ZSt8_DestroyIPN4core5GroupEEvT_S3_
FNDA:0,_ZSt8_DestroyIPNSt7__cxx1112basic_stringIcSt11char_traitsIcESaIcEEES5_EvT_S7_RSaIT0_E
FNDA:0,_ZSt8_DestroyIPN4core4ByteES1_EvT_S3_RSaIT0_E
FNDA:0,_ZSt8_DestroyIN9__gnu_cxx17__normal_iteratorIPN4core5GroupESt6vectorIS3_SaIS3_EEEES3_EvT_S9_RSaIT0_E
FNDA:0,_ZSt8_DestroyIPN4core5GroupES1_EvT_S3_RSaIT0_E
FNF:19
FNH:2
DA:74,875
DA:75,875
DA:76,0
DA:77,0
DA:78,736
DA:79,736
DA:80,0
DA:81,0
DA:82,139
DA:83,139
DA:105,0
DA:106,0
DA:107,0
DA:108,0
DA:109,0
DA:110,0
DA:111,0
DA:112,0
DA:119,0
DA:121,0
DA:122,0
DA:123,0
DA:124,0
DA:126,0
DA:127,0
DA:128,0
DA:129,0
DA:131,0
DA:132,0
DA:133,0
DA:134,0
DA:136,0
DA:137,0
DA:138,0
DA:139,0
DA:141,0
DA:142,0
DA:143,0
DA:161,0
DA:171,0
DA:172,0
DA:173,0
DA:183,0
DA:184,0
DA:185,0
DA:195,0
DA:196,0
DA:197,0
DA:207,0
DA:208,0
DA:209,0
DA:219,0
DA:220,0
DA:285,0
DA:288,0
DA:289,0
DA:290,0
DA:293,0
DA:294,0
DA:295,0
DA:298,0
DA:299,0
DA:300,0
DA:303,0
DA:304,0
DA:305,0
DA:308,0
DA:309,0
LF:68
LH:6
end_of_record
SF:/usr/include/c++/8/bits/stl_iterator.h
FN:783,_ZN9__gnu_cxx17__normal_iteratorIPKN4core5GroupESt6vectorIS2_SaIS2_EEEC2ERKS4_
FN:783,_ZN9__gnu_cxx17__normal_iteratorIPN4core5GroupESt6vectorIS2_SaIS2_EEEC2ERKS3_
FN:783,_ZN9__gnu_cxx17__normal_iteratorIPKNSt7__cxx1112basic_stringIcSt11char_traitsIcESaIcEEESt6vectorIS6_SaIS6_EEEC2ERKS8_
FN:783,_ZN9__gnu_cxx17__normal_iteratorIPKN4core4ByteESt6vectorIS2_SaIS2_EEEC2ERKS4_
FN:796,_ZNK9__gnu_cxx17__normal_iteratorIPN4core5GroupESt6vectorIS2_SaIS2_EEEdeEv
FN:796,_ZNK9__gnu_cxx17__normal_iteratorIPKN4core5GroupESt6vectorIS2_SaIS2_EEEdeEv
FN:796,_ZNK9__gnu_cxx17__normal_iteratorIPKNSt7__cxx1112basic_stringIcSt11char_traitsIcESaIcEEESt6vectorIS6_SaIS6_EEEdeEv
FN:796,_ZNK9__gnu_cxx17__normal_iteratorIPKN4core4ByteESt6vectorIS2_SaIS2_EEEdeEv
FN:804,_ZN9__gnu_cxx17__normal_iteratorIPKNSt7__cxx1112basic_stringIcSt11char_traitsIcESaIcEEESt6vectorIS6_SaIS6_EEEppEv
FN:804,_ZN9__gnu_cxx17__normal_iteratorIPKN4core4ByteESt6vectorIS2_SaIS2_EEEppEv
FN:804,_ZN9__gnu_cxx17__normal_iteratorIPKN4core5GroupESt6vectorIS2_SaIS2_EEEppEv
FN:804,_ZN9__gnu_cxx17__normal_iteratorIPN4core5GroupESt6vectorIS2_SaIS2_EEEppEv
FN:848,_ZNK9__gnu_cxx17__normal_iteratorIPKNSt7__cxx1112basic_stringIcSt11char_traitsIcESaIcEEESt6vectorIS6_SaIS6_EEE4baseEv
FN:848,_ZNK9__gnu_cxx17__normal_iteratorIPKN4core4ByteESt6vectorIS2_SaIS2_EEE4baseEv
FN:848,_ZNK9__gnu_cxx17__normal_iteratorIPN4core5GroupESt6vectorIS2_SaIS2_EEE4baseEv
FN:848,_ZNK9__gnu_cxx17__normal_iteratorIPKN4core5GroupESt6vectorIS2_SaIS2_EEE4baseEv
FN:884,_ZN9__gnu_cxxneIPN4core5GroupESt6vectorIS2_SaIS2_EEEEbRKNS_17__normal_iteratorIT_T0_EESC_
FN:884,_ZN9__gnu_cxxneIPKN4core4ByteESt6vectorIS2_SaIS2_EEEEbRKNS_17__normal_iteratorIT_T0_EESD_
FN:884,_ZN9__gnu_cxxneIPKN4core5GroupESt6vectorIS2_SaIS2_EEEEbRKNS_17__normal_iteratorIT_T0_EESD_
FN:884,_ZN9__gnu_cxxneIPKNSt7__cxx1112basic_stringIcSt11char_traitsIcESaIcEEESt6vectorIS6_SaIS6_EEEEbRKNS_17__normal_iteratorIT_T0_EESH_
FN:987,_ZSt12__niter_baseIPN4core5GroupESt6vectorIS1_SaIS1_EEET_N9__gnu_cxx17__normal_iteratorIS6_T0_EE
FN:987,_ZSt12__niter_baseIPKN4core5GroupESt6vectorIS1_SaIS1_EEET_N9__gnu_cxx17__normal_iteratorIS7_T0_EE
FNDA:0,_ZN9__gnu_cxx17__normal_iteratorIPKNSt7__cxx1112basic_stringIcSt11char_traitsIcESaIcEEESt6vectorIS6_SaIS6_EEEC2ERKS8_
FNDA:422,_ZN9__gnu_cxx17__normal_iteratorIPKN4core4ByteESt6vectorIS2_SaIS2_EEEC2ERKS4_
FNDA:42,_ZN9__gnu_cxx17__normal_iteratorIPKN4core5GroupESt6vectorIS2_SaIS2_EEEC2ERKS4_
FNDA:58,_ZN9__gnu_cxx17__normal_iteratorIPN4core5GroupESt6vectorIS2_SaIS2_EEEC2ERKS3_
FNDA:0,_ZNK9__gnu_cxx17__normal_iteratorIPKNSt7__cxx1112basic_stringIcSt11char_traitsIcESaIcEEESt6vectorIS6_SaIS6_EEEdeEv
FNDA:633,_ZNK9__gnu_cxx17__normal_iteratorIPKN4core4ByteESt6vectorIS2_SaIS2_EEEdeEv
FNDA:93,_ZNK9__gnu_cxx17__normal_iteratorIPKN4core5GroupESt6vectorIS2_SaIS2_EEEdeEv
FNDA:36,_ZNK9__gnu_cxx17__normal_iteratorIPN4core5GroupESt6vectorIS2_SaIS2_EEEdeEv
FNDA:0,_ZN9__gnu_cxx17__normal_iteratorIPKNSt7__cxx1112basic_stringIcSt11char_traitsIcESaIcEEESt6vectorIS6_SaIS6_EEEppEv
FNDA:633,_ZN9__gnu_cxx17__normal_iteratorIPKN4core4ByteESt6vectorIS2_SaIS2_EEEppEv
FNDA:93,_ZN9__gnu_cxx17__normal_iteratorIPKN4core5GroupESt6vectorIS2_SaIS2_EEEppEv
FNDA:36,_ZN9__gnu_cxx17__normal_iteratorIPN4core5GroupESt6vectorIS2_SaIS2_EEEppEv
FNDA:0,_ZNK9__gnu_cxx17__normal_iteratorIPKNSt7__cxx1112basic_stringIcSt11char_traitsIcESaIcEEESt6vectorIS6_SaIS6_EEE4baseEv
FNDA:1688,_ZNK9__gnu_cxx17__normal_iteratorIPKN4core4ByteESt6vectorIS2_SaIS2_EEE4baseEv
FNDA:228,_ZNK9__gnu_cxx17__normal_iteratorIPKN4core5GroupESt6vectorIS2_SaIS2_EEE4baseEv
FNDA:174,_ZNK9__gnu_cxx17__normal_iteratorIPN4core5GroupESt6vectorIS2_SaIS2_EEE4baseEv
FNDA:0,_ZN9__gnu_cxxneIPKNSt7__cxx1112basic_stringIcSt11char_traitsIcESaIcEEESt6vectorIS6_SaIS6_EEEEbRKNS_17__normal_iteratorIT_T0_EESH_
FNDA:844,_ZN9__gnu_cxxneIPKN4core4ByteESt6vectorIS2_SaIS2_EEEEbRKNS_17__normal_iteratorIT_T0_EESD_
FNDA:114,_ZN9__gnu_cxxneIPKN4core5GroupESt6vectorIS2_SaIS2_EEEEbRKNS_17__normal_iteratorIT_T0_EESD_
FNDA:43,_ZN9__gnu_cxxneIPN4core5GroupESt6vectorIS2_SaIS2_EEEEbRKNS_17__normal_iteratorIT_T0_EESC_
FNDA:0,_ZSt12__niter_baseIPN4core5GroupESt6vectorIS1_SaIS1_EEET_N9__gnu_cxx17__normal_iteratorIS6_T0_EE
FNDA:0,_ZSt12__niter_baseIPKN4core5GroupESt6vectorIS1_SaIS1_EEET_N9__gnu_cxx17__normal_iteratorIS7_T0_EE
FNF:22
FNH:15
DA:783,522
DA:784,522
DA:785,0
DA:786,0
DA:787,422
DA:788,422
DA:789,42
DA:790,42
DA:791,58
DA:792,58
DA:804,762
DA:805,762
DA:806,0
DA:807,0
DA:808,633
DA:809,633
DA:810,93
DA:811,93
DA:812,36
DA:813,36
DA:820,762
DA:822,762
DA:823,762
DA:825,0
DA:827,0
DA:828,0
DA:830,633
DA:832,633
DA:833,633
DA:835,93
DA:837,93
DA:838,93
DA:840,36
DA:842,36
DA:843,36
DA:884,2090
DA:885,2090
DA:886,0
DA:887,0
DA:888,1688
DA:889,1688
DA:890,228
DA:891,228
DA:892,174
DA:893,174
DA:928,1001
DA:931,1001
DA:932,0
DA:935,0
DA:936,844
DA:939,844
DA:940,114
DA:943,114
DA:944,43
DA:947,43
DA:1047,0
DA:1048,0
DA:1049,0
DA:1050,0
DA:1051,0
DA:1052,0
LF:61
LH:44
end_of_record
SF:/usr/include/c++/8/bits/stl_iterator_base_funcs.h
FN:98,_ZSt10__distanceIPcENSt15iterator_traitsIT_E15difference_typeES2_S2_St26random_access_iterator_tag
FN:138,_ZSt8distanceIPcENSt15iterator_traitsIT_E15difference_typeES2_S2_
FNDA:0,_ZSt10__distanceIPcENSt15iterator_traitsIT_E15difference_typeES2_S2_St26random_access_iterator_tag
FNDA:0,_ZSt8distanceIPcENSt15iterator_traitsIT_E15difference_typeES2_S2_
FNF:2
FNH:0
DA:98,0
DA:104,0
DA:138,0
DA:141,0
DA:142,0
LF:5
LH:0
end_of_record
SF:/usr/include/c++/8/bits/stl_iterator_base_types.h
FN:205,_ZSt19__iterator_categoryIPcENSt15iterator_traitsIT_E17iterator_categoryERKS2_
FNDA:0,_ZSt19__iterator_categoryIPcENSt15iterator_traitsIT_E17iterator_categoryERKS2_
FNF:1
FNH:0
DA:205,0
DA:206,0
LF:2
LH:0
end_of_record
SF:/usr/include/c++/8/bits/stl_uninitialized.h
FN:76,_ZNSt20__uninitialized_copyILb0EE13__uninit_copyIN9__gnu_cxx17__normal_iteratorIPKNSt7__cxx1112basic_stringIcSt11char_traitsIcESaIcEEESt6vectorIS9_SaIS9_EEEEPS9_EET0_T_SI_SH_
FN:76,_ZNSt20__uninitialized_copyILb0EE13__uninit_copyIPN4core5GroupES4_EET0_T_S6_S5_
FN:76,_ZNSt20__uninitialized_copyILb0EE13__uninit_copyIN9__gnu_cxx17__normal_iteratorIPKN4core4ByteESt6vectorIS5_SaIS5_EEEEPS5_EET0_T_SE_SD_
FN:76,_ZNSt20__uninitialized_copyILb0EE13__uninit_copyIN9__gnu_cxx17__normal_iteratorIPKN4core5GroupESt6vectorIS5_SaIS5_EEEEPS5_EET0_T_SE_SD_
FN:115,_ZSt18uninitialized_copyIPN4core5GroupES2_ET0_T_S4_S3_
FN:115,_ZSt18uninitialized_copyIN9__gnu_cxx17__normal_iteratorIPKN4core5GroupESt6vectorIS3_SaIS3_EEEEPS3_ET0_T_SC_SB_
FN:115,_ZSt18uninitialized_copyIN9__gnu_cxx17__normal_iteratorIPKN4core4ByteESt6vectorIS3_SaIS3_EEEEPS3_ET0_T_SC_SB_
FN:115,_ZSt18uninitialized_copyIN9__gnu_cxx17__normal_iteratorIPKNSt7__cxx1112basic_stringIcSt11char_traitsIcESaIcEEESt6vectorIS7_SaIS7_EEEEPS7_ET0_T_SG_SF_
FN:287,_ZSt22__uninitialized_copy_aIN9__gnu_cxx17__normal_iteratorIPKN4core4ByteESt6vectorIS3_SaIS3_EEEEPS3_S3_ET0_T_SC_SB_RSaIT1_E
FN:287,_ZSt22__uninitialized_copy_aIN9__gnu_cxx17__normal_iteratorIPKNSt7__cxx1112basic_stringIcSt11char_traitsIcESaIcEEESt6vectorIS7_SaIS7_EEEEPS7_S7_ET0_T_SG_SF_RSaIT1_E
FN:287,_ZSt22__uninitialized_copy_aIN9__gnu_cxx17__normal_iteratorIPKN4core5GroupESt6vectorIS3_SaIS3_EEEEPS3_S3_ET0_T_SC_SB_RSaIT1_E
FN:287,_ZSt22__uninitialized_copy_aIPN4core5GroupES2_S1_ET0_T_S4_S3_RSaIT1_E
FNDA:0,_ZNSt20__uninitialized_copyILb0EE13__uninit_copyIN9__gnu_cxx17__normal_iteratorIPKNSt7__cxx1112basic_stringIcSt11char_traitsIcESaIcEEESt6vectorIS9_SaIS9_EEEEPS9_EET0_T_SI_SH_
FNDA:211,_ZNSt20__uninitialized_copyILb0EE13__uninit_copyIN9__gnu_cxx17__normal_iteratorIPKN4core4ByteESt6vectorIS5_SaIS5_EEEEPS5_EET0_T_SE_SD_
FNDA:0,_ZNSt20__uninitialized_copyILb0EE13__uninit_copyIPN4core5GroupES4_EET0_T_S6_S5_
FNDA:21,_ZNSt20__uninitialized_copyILb0EE13__uninit_copyIN9__gnu_cxx17__normal_iteratorIPKN4core5GroupESt6vectorIS5_SaIS5_EEEEPS5_EET0_T_SE_SD_
FNDA:0,_ZSt18uninitialized_copyIN9__gnu_cxx17__normal_iteratorIPKNSt7__cxx1112basic_stringIcSt11char_traitsIcESaIcEEESt6vectorIS7_SaIS7_EEEEPS7_ET0_T_SG_SF_
FNDA:211,_ZSt18uninitialized_copyIN9__gnu_cxx17__normal_iteratorIPKN4core4ByteESt6vectorIS3_SaIS3_EEEEPS3_ET0_T_SC_SB_
FNDA:0,_ZSt18uninitialized_copyIPN4core5GroupES2_ET0_T_S4_S3_
FNDA:21,_ZSt18uninitialized_copyIN9__gnu_cxx17__normal_iteratorIPKN4core5GroupESt6vectorIS3_SaIS3_EEEEPS3_ET0_T_SC_SB_
FNDA:0,_ZSt22__uninitialized_copy_aIN9__gnu_cxx17__normal_iteratorIPKNSt7__cxx1112basic_stringIcSt11char_traitsIcESaIcEEESt6vectorIS7_SaIS7_EEEEPS7_S7_ET0_T_SG_SF_RSaIT1_E
FNDA:211,_ZSt22__uninitialized_copy_aIN9__gnu_cxx17__normal_iteratorIPKN4core4ByteESt6vectorIS3_SaIS3_EEEEPS3_S3_ET0_T_SC_SB_RSaIT1_E
FNDA:0,_ZSt22__uninitialized_copy_aIPN4core5GroupES2_S1_ET0_T_S4_S3_RSaIT1_E
FNDA:21,_ZSt22__uninitialized_copy_aIN9__gnu_cxx17__normal_iteratorIPKN4core5GroupESt6vectorIS3_SaIS3_EEEEPS3_S3_ET0_T_SC_SB_RSaIT1_E
FNF:12
FNH:6
DA:76,232
DA:79,232
DA:82,958
DA:83,726
DA:84,232
DA:86,0
DA:88,0
DA:89,0
DA:92,0
DA:95,0
DA:98,0
DA:99,0
DA:100,0
DA:102,0
DA:104,0
DA:105,0
DA:108,211
DA:111,211
DA:114,844
DA:115,633
DA:116,211
DA:118,0
DA:120,0
DA:121,0
DA:124,0
DA:127,0
DA:130,0
DA:131,0
DA:132,0
DA:134,0
DA:136,0
DA:137,0
DA:140,21
DA:143,21
DA:146,114
DA:147,93
DA:148,21
DA:150,0
DA:152,0
DA:153,0
DA:179,232
DA:192,232
DA:198,232
DA:200,0
DA:213,0
DA:219,0
DA:221,211
DA:234,211
DA:240,211
DA:242,0
DA:255,0
DA:261,0
DA:263,21
DA:276,21
DA:282,21
DA:435,232
DA:437,232
DA:438,0
DA:440,0
DA:441,211
DA:443,211
DA:444,0
DA:446,0
DA:447,21
DA:449,21
LF:65
LH:30
end_of_record
SF:/usr/include/c++/8/bits/stl_vector.h
FN:99,_ZNSt12_Vector_baseINSt7__cxx1112basic_stringIcSt11char_traitsIcESaIcEEESaIS5_EE12_Vector_implC2ERKS6_
FN:99,_ZNSt12_Vector_baseIN4core4ByteESaIS1_EE12_Vector_implC2ERKS2_
FN:99,_ZNSt12_Vector_baseIN4core5GroupESaIS1_EE12_Vector_implC2ERKS2_
FN:237,_ZNSt12_Vector_baseINSt7__cxx1112basic_stringIcSt11char_traitsIcESaIcEEESaIS5_EE19_M_get_Tp_allocatorEv
FN:237,_ZNSt12_Vector_baseIN4core4ByteESaIS1_EE19_M_get_Tp_allocatorEv
FN:237,_ZNSt12_Vector_baseIN4core5GroupESaIS1_EE19_M_get_Tp_allocatorEv
FN:241,_ZNKSt12_Vector_baseIN4core4ByteESaIS1_EE19_M_get_Tp_allocatorEv
FN:241,_ZNKSt12_Vector_baseIN4core5GroupESaIS1_EE19_M_get_Tp_allocatorEv
FN:241,_ZNKSt12_Vector_baseINSt7__cxx1112basic_stringIcSt11char_traitsIcESaIcEEESaIS5_EE19_M_get_Tp_allocatorEv
FN:258,_ZNSt12_Vector_baseIN4core5GroupESaIS1_EEC2EmRKS2_
FN:258,_ZNSt12_Vector_baseINSt7__cxx1112basic_stringIcSt11char_traitsIcESaIcEEESaIS5_EEC2EmRKS6_
FN:258,_ZNSt12_Vector_baseIN4core4ByteESaIS1_EEC2EmRKS2_
FN:283,_ZNSt12_Vector_baseINSt7__cxx1112basic_stringIcSt11char_traitsIcESaIcEEESaIS5_EED2Ev
FN:283,_ZNSt12_Vector_baseIN4core5GroupESaIS1_EED2Ev
FN:283,_ZNSt12_Vector_baseIN4core4ByteESaIS1_EED2Ev
FN:293,_ZNSt12_Vector_baseIN4core4ByteESaIS1_EE11_M_allocateEm
FN:293,_ZNSt12_Vector_baseIN4core5GroupESaIS1_EE11_M_allocateEm
FN:293,_ZNSt12_Vector_baseINSt7__cxx1112basic_stringIcSt11char_traitsIcESaIcEEESaIS5_EE11_M_allocateEm
FN:300,_ZNSt12_Vector_baseIN4core4ByteESaIS1_EE13_M_deallocateEPS1_m
FN:300,_ZNSt12_Vector_baseIN4core5GroupESaIS1_EE13_M_deallocateEPS1_m
FN:300,_ZNSt12_Vector_baseINSt7__cxx1112basic_stringIcSt11char_traitsIcESaIcEEESaIS5_EE13_M_deallocateEPS5_m
FN:309,_ZNSt12_Vector_baseIN4core5GroupESaIS1_EE17_M_create_storageEm
FN:309,_ZNSt12_Vector_baseIN4core4ByteESaIS1_EE17_M_create_storageEm
FN:309,_ZNSt12_Vector_baseINSt7__cxx1112basic_stringIcSt11char_traitsIcESaIcEEESaIS5_EE17_M_create_storageEm
FN:458,_ZNSt6vectorIN4core5GroupESaIS1_EEC2ERKS3_
FN:458,_ZNSt6vectorIN4core4ByteESaIS1_EEC2ERKS3_
FN:458,_ZNSt6vectorINSt7__cxx1112basic_stringIcSt11char_traitsIcESaIcEEESaIS5_EEC2ERKS7_
FN:565,_ZNSt6vectorIN4core5GroupESaIS1_EED2Ev
FN:565,_ZNSt6vectorIN4core4ByteESaIS1_EED2Ev
FN:565,_ZNSt6vectorINSt7__cxx1112basic_stringIcSt11char_traitsIcESaIcEEESaIS5_EED2Ev
FN:698,_ZNSt6vectorIN4core5GroupESaIS1_EE5beginEv
FN:707,_ZNKSt6vectorINSt7__cxx1112basic_stringIcSt11char_traitsIcESaIcEEESaIS5_EE5beginEv
FN:707,_ZNKSt6vectorIN4core5GroupESaIS1_EE5beginEv
FN:707,_ZNKSt6vectorIN4core4ByteESaIS1_EE5beginEv
FN:716,_ZNSt6vectorIN4core5GroupESaIS1_EE3endEv
FN:725,_ZNKSt6vectorIN4core5GroupESaIS1_EE3endEv
FN:725,_ZNKSt6vectorINSt7__cxx1112basic_stringIcSt11char_traitsIcESaIcEEESaIS5_EE3endEv
FN:725,_ZNKSt6vectorIN4core4ByteESaIS1_EE3endEv
FN:805,_ZNKSt6vectorINSt7__cxx1112basic_stringIcSt11char_traitsIcESaIcEEESaIS5_EE4sizeEv
FN:805,_ZNKSt6vectorIN4core4ByteESaIS1_EE4sizeEv
FN:805,_ZNKSt6vectorIN4core5GroupESaIS1_EE4sizeEv
FN:885,_ZNKSt6vectorIN4core5GroupESaIS1_EE8capacityEv
FN:930,_ZNSt6vectorIN4core5GroupESaIS1_EEixEm
FN:948,_ZNKSt6vectorIN4core5GroupESaIS1_EEixEm
FN:1385,_ZNSt6vectorIN4core5GroupESaIS1_EE5clearEv
FN:1395,_ZNSt6vectorIN4core5GroupESaIS1_EE20_M_allocate_and_copyIN9__gnu_cxx17__normal_iteratorIPKS1_S3_EEEEPS1_mT_SB_
FN:1654,_ZNSt6vectorIN4core5GroupESaIS1_EE15_M_erase_at_endEPS1_
FNDA:0,_ZNSt12_Vector_baseINSt7__cxx1112basic_stringIcSt11char_traitsIcESaIcEEESaIS5_EE12_Vector_implC2ERKS6_
FNDA:211,_ZNSt12_Vector_baseIN4core4ByteESaIS1_EE12_Vector_implC2ERKS2_
FNDA:21,_ZNSt12_Vector_baseIN4core5GroupESaIS1_EE12_Vector_implC2ERKS2_
FNDA:0,_ZNSt12_Vector_baseINSt7__cxx1112basic_stringIcSt11char_traitsIcESaIcEEESaIS5_EE19_M_get_Tp_allocatorEv
FNDA:0,_ZNSt12_Vector_baseIN4core4ByteESaIS1_EE19_M_get_Tp_allocatorEv
FNDA:0,_ZNSt12_Vector_baseIN4core5GroupESaIS1_EE19_M_get_Tp_allocatorEv
FNDA:0,_ZNKSt12_Vector_baseINSt7__cxx1112basic_stringIcSt11char_traitsIcESaIcEEESaIS5_EE19_M_get_Tp_allocatorEv
FNDA:397,_ZNKSt12_Vector_baseIN4core4ByteESaIS1_EE19_M_get_Tp_allocatorEv
FNDA:65,_ZNKSt12_Vector_baseIN4core5GroupESaIS1_EE19_M_get_Tp_allocatorEv
FNDA:0,_ZNSt12_Vector_baseINSt7__cxx1112basic_stringIcSt11char_traitsIcESaIcEEESaIS5_EEC2EmRKS6_
FNDA:211,_ZNSt12_Vector_baseIN4core4ByteESaIS1_EEC2EmRKS2_
FNDA:21,_ZNSt12_Vector_baseIN4core5GroupESaIS1_EEC2EmRKS2_
FNDA:0,_ZNSt12_Vector_baseINSt7__cxx1112basic_stringIcSt11char_traitsIcESaIcEEESaIS5_EED2Ev
FNDA:0,_ZNSt12_Vector_baseIN4core4ByteESaIS1_EED2Ev
FNDA:0,_ZNSt12_Vector_baseIN4core5GroupESaIS1_EED2Ev
FNDA:0,_ZNSt12_Vector_baseINSt7__cxx1112basic_stringIcSt11char_traitsIcESaIcEEESaIS5_EE11_M_allocateEm
FNDA:304,_ZNSt12_Vector_baseIN4core4ByteESaIS1_EE11_M_allocateEm
FNDA:43,_ZNSt12_Vector_baseIN4core5GroupESaIS1_EE11_M_allocateEm
FNDA:0,_ZNSt12_Vector_baseINSt7__cxx1112basic_stringIcSt11char_traitsIcESaIcEEESaIS5_EE13_M_deallocateEPS5_m
FNDA:0,_ZNSt12_Vector_baseIN4core4ByteESaIS1_EE13_M_deallocateEPS1_m
FNDA:0,_ZNSt12_Vector_baseIN4core5GroupESaIS1_EE13_M_deallocateEPS1_m
FNDA:0,_ZNSt12_Vector_baseINSt7__cxx1112basic_stringIcSt11char_traitsIcESaIcEEESaIS5_EE17_M_create_storageEm
FNDA:211,_ZNSt12_Vector_baseIN4core4ByteESaIS1_EE17_M_create_storageEm
FNDA:21,_ZNSt12_Vector_baseIN4core5GroupESaIS1_EE17_M_create_storageEm
FNDA:0,_ZNSt6vectorINSt7__cxx1112basic_stringIcSt11char_traitsIcESaIcEEESaIS5_EEC2ERKS7_
FNDA:211,_ZNSt6vectorIN4core4ByteESaIS1_EEC2ERKS3_
FNDA:21,_ZNSt6vectorIN4core5GroupESaIS1_EEC2ERKS3_
FNDA:0,_ZNSt6vectorINSt7__cxx1112basic_stringIcSt11char_traitsIcESaIcEEESaIS5_EED2Ev
FNDA:0,_ZNSt6vectorIN4core4ByteESaIS1_EED2Ev
FNDA:0,_ZNSt6vectorIN4core5GroupESaIS1_EED2Ev
FNDA:29,_ZNSt6vectorIN4core5GroupESaIS1_EE5beginEv
FNDA:0,_ZNKSt6vectorINSt7__cxx1112basic_stringIcSt11char_traitsIcESaIcEEESaIS5_EE5beginEv
FNDA:211,_ZNKSt6vectorIN4core4ByteESaIS1_EE5beginEv
FNDA:21,_ZNKSt6vectorIN4core5GroupESaIS1_EE5beginEv
FNDA:29,_ZNSt6vectorIN4core5GroupESaIS1_EE3endEv
FNDA:0,_ZNKSt6vectorINSt7__cxx1112basic_stringIcSt11char_traitsIcESaIcEEESaIS5_EE3endEv
FNDA:211,_ZNKSt6vectorIN4core4ByteESaIS1_EE3endEv
FNDA:21,_ZNKSt6vectorIN4core5GroupESaIS1_EE3endEv
FNDA:0,_ZNKSt6vectorINSt7__cxx1112basic_stringIcSt11char_traitsIcESaIcEEESaIS5_EE4sizeEv
FNDA:951,_ZNKSt6vectorIN4core4ByteESaIS1_EE4sizeEv
FNDA:195,_ZNKSt6vectorIN4core5GroupESaIS1_EE4sizeEv
FNDA:0,_ZNKSt6vectorIN4core5GroupESaIS1_EE8capacityEv
FNDA:72,_ZNSt6vectorIN4core5GroupESaIS1_EEixEm
FNDA:0,_ZNKSt6vectorIN4core5GroupESaIS1_EEixEm
FNDA:0,_ZNSt6vectorIN4core5GroupESaIS1_EE5clearEv
FNDA:0,_ZNSt6vectorIN4core5GroupESaIS1_EE20_M_allocate_and_copyIN9__gnu_cxx17__normal_iteratorIPKS1_S3_EEEEPS1_mT_SB_
FNDA:0,_ZNSt6vectorIN4core5GroupESaIS1_EE15_M_erase_at_endEPS1_
FNF:47
FNH:21
DA:99,232
DA:100,232
DA:101,232
DA:102,0
DA:103,0
DA:104,0
DA:105,211
DA:106,211
DA:107,211
DA:108,21
DA:109,21
DA:110,21
DA:246,0
DA:247,0
DA:248,0
DA:249,0
DA:250,0
DA:251,0
DA:252,0
DA:253,0
DA:256,462
DA:257,462
DA:258,0
DA:259,0
DA:260,397
DA:261,397
DA:262,65
DA:263,65
DA:279,232
DA:280,232
DA:281,232
DA:282,0
DA:283,0
DA:284,0
DA:285,211
DA:286,211
DA:287,211
DA:288,21
DA:289,21
DA:290,21
DA:313,0
DA:315,0
DA:316,0
DA:317,0
DA:318,0
DA:320,0
DA:321,0
DA:322,0
DA:323,0
DA:325,0
DA:326,0
DA:327,0
DA:328,0
DA:330,0
DA:331,0
DA:332,0
DA:338,347
DA:341,347
DA:343,0
DA:346,0
DA:348,304
DA:351,304
DA:353,43
DA:356,43
DA:360,0
DA:363,0
DA:364,0
DA:365,0
DA:366,0
DA:369,0
DA:370,0
DA:371,0
DA:372,0
DA:375,0
DA:376,0
DA:377,0
DA:378,0
DA:381,0
DA:382,0
DA:383,0
DA:387,232
DA:389,232
DA:390,232
DA:391,232
DA:392,232
DA:393,0
DA:395,0
DA:396,0
DA:397,0
DA:398,0
DA:399,211
DA:401,211
DA:402,211
DA:403,211
DA:404,211
DA:405,21
DA:407,21
DA:408,21
DA:409,21
DA:410,21
DA:554,232
DA:556,232
DA:558,232
DA:559,232
DA:561,232
DA:562,232
DA:563,0
DA:565,0
DA:567,0
DA:568,0
DA:570,0
DA:571,0
DA:572,211
DA:574,211
DA:576,211
DA:577,211
DA:579,211
DA:580,211
DA:581,21
DA:583,21
DA:585,21
DA:586,21
DA:588,21
DA:589,21
DA:688,0
DA:690,0
DA:691,0
DA:693,0
DA:694,0
DA:696,0
DA:697,0
DA:699,0
DA:700,0
DA:702,0
DA:703,0
DA:705,0
DA:706,0
DA:708,0
DA:709,0
DA:711,0
DA:839,29
DA:840,29
DA:848,232
DA:849,232
DA:850,0
DA:851,0
DA:852,211
DA:853,211
DA:854,21
DA:855,21
DA:863,29
DA:864,29
DA:872,232
DA:873,232
DA:874,0
DA:875,0
DA:876,211
DA:877,211
DA:878,21
DA:879,21
DA:958,1146
DA:959,1146
DA:960,0
DA:961,0
DA:962,951
DA:963,951
DA:964,195
DA:965,195
DA:1044,0
DA:1045,0
DA:1046,0
DA:1089,72
DA:1092,72
DA:1107,0
DA:1110,0
DA:1544,0
DA:1545,0
DA:1554,0
DA:1557,0
DA:1560,0
DA:1561,0
DA:1562,0
DA:1564,0
DA:1566,0
DA:1567,0
DA:1813,0
DA:1815,0
DA:1817,0
DA:1818,0
DA:1819,0
DA:1822,0
LF:191
LH:87
end_of_record
SF:/usr/include/c++/8/bits/vector.tcc
FN:186,_ZNSt6vectorIN4core5GroupESaIS1_EEaSERKS3_
FNDA:0,_ZNSt6vectorIN4core5GroupESaIS1_EEaSERKS3_
FNF:1
FNH:0
DA:186,0
DA:189,0
DA:193,0
DA:195,0
DA:196,0
DA:199,0
DA:200,0
DA:201,0
DA:202,0
DA:203,0
DA:204,0
DA:205,0
DA:207,0
DA:211,0
DA:212,0
DA:214,0
DA:216,0
DA:217,0
DA:218,0
DA:219,0
DA:220,0
DA:221,0
DA:222,0
DA:224,0
DA:226,0
DA:227,0
DA:231,0
DA:233,0
DA:234,0
DA:236,0
DA:238,0
DA:240,0
LF:32
LH:0
end_of_record
SF:/usr/include/c++/8/ext/alloc_traits.h
FN:94,_ZN9__gnu_cxx14__alloc_traitsISaIN4core4ByteEES2_E17_S_select_on_copyERKS3_
FN:94,_ZN9__gnu_cxx14__alloc_traitsISaIcEcE17_S_select_on_copyERKS1_
FN:94,_ZN9__gnu_cxx14__alloc_traitsISaIN4core5GroupEES2_E17_S_select_on_copyERKS3_
FN:94,_ZN9__gnu_cxx14__alloc_traitsISaImEmE17_S_select_on_copyERKS1_
FN:94,_ZN9__gnu_cxx14__alloc_traitsISaINSt7__cxx1112basic_stringIcSt11char_traitsIcESaIcEEEES6_E17_S_select_on_copyERKS7_
FN:100,_ZN9__gnu_cxx14__alloc_traitsISaIcEcE27_S_propagate_on_copy_assignEv
FN:100,_ZN9__gnu_cxx14__alloc_traitsISaIN4core5GroupEES2_E27_S_propagate_on_copy_assignEv
FN:109,_ZN9__gnu_cxx14__alloc_traitsISaIN4core5GroupEES2_E15_S_always_equalEv
FN:109,_ZN9__gnu_cxx14__alloc_traitsISaIcEcE15_S_always_equalEv
FNDA:0,_ZN9__gnu_cxx14__alloc_traitsISaINSt7__cxx1112basic_stringIcSt11char_traitsIcESaIcEEEES6_E17_S_select_on_copyERKS7_
FNDA:0,_ZN9__gnu_cxx14__alloc_traitsISaImEmE17_S_select_on_copyERKS1_
FNDA:211,_ZN9__gnu_cxx14__alloc_traitsISaIN4core4ByteEES2_E17_S_select_on_copyERKS3_
FNDA:0,_ZN9__gnu_cxx14__alloc_traitsISaIcEcE17_S_select_on_copyERKS1_
FNDA:21,_ZN9__gnu_cxx14__alloc_traitsISaIN4core5GroupEES2_E17_S_select_on_copyERKS3_
FNDA:0,_ZN9__gnu_cxx14__alloc_traitsISaIcEcE27_S_propagate_on_copy_assignEv
FNDA:0,_ZN9__gnu_cxx14__alloc_traitsISaIN4core5GroupEES2_E27_S_propagate_on_copy_assignEv
FNDA:0,_ZN9__gnu_cxx14__alloc_traitsISaIcEcE15_S_always_equalEv
FNDA:0,_ZN9__gnu_cxx14__alloc_traitsISaIN4core5GroupEES2_E15_S_always_equalEv
FNF:9
FNH:2
DA:94,232
DA:95,232
DA:96,0
DA:97,0
DA:98,0
DA:99,0
DA:100,211
DA:101,211
DA:102,0
DA:103,0
DA:104,21
DA:105,21
DA:110,0
DA:111,0
DA:112,0
DA:113,0
DA:114,0
DA:115,0
DA:123,0
DA:124,0
DA:125,0
DA:126,0
DA:127,0
DA:128,0
LF:24
LH:6
end_of_record
SF:/usr/include/c++/8/ext/new_allocator.h
FN:79,_ZN9__gnu_cxx13new_allocatorImEC2Ev
FN:79,_ZN9__gnu_cxx13new_allocatorIbEC2Ev
FN:81,_ZN9__gnu_cxx13new_allocatorImEC2ERKS1_
FN:81,_ZN9__gnu_cxx13new_allocatorIN4core4ByteEEC2ERKS3_
FN:81,_ZN9__gnu_cxx13new_allocatorIcEC2ERKS1_
FN:81,_ZN9__gnu_cxx13new_allocatorIN4core5GroupEEC2ERKS3_
FN:81,_ZN9__gnu_cxx13new_allocatorINSt7__cxx1112basic_stringIcSt11char_traitsIcESaIcEEEEC2ERKS7_
FN:86,_ZN9__gnu_cxx13new_allocatorINSt7__cxx1112basic_stringIcSt11char_traitsIcESaIcEEEED2Ev
FN:86,_ZN9__gnu_cxx13new_allocatorIcED2Ev
FN:86,_ZN9__gnu_cxx13new_allocatorIbED2Ev
FN:86,_ZN9__gnu_cxx13new_allocatorImED2Ev
FN:86,_ZN9__gnu_cxx13new_allocatorIN4core5GroupEED2Ev
FN:86,_ZN9__gnu_cxx13new_allocatorIN4core4ByteEED2Ev
FN:99,_ZN9__gnu_cxx13new_allocatorINSt7__cxx1112basic_stringIcSt11char_traitsIcESaIcEEEE8allocateEmPKv
FN:99,_ZN9__gnu_cxx13new_allocatorImE8allocateEmPKv
FN:99,_ZN9__gnu_cxx13new_allocatorIN4core5GroupEE8allocateEmPKv
FN:99,_ZN9__gnu_cxx13new_allocatorIcE8allocateEmPKv
FN:99,_ZN9__gnu_cxx13new_allocatorIN4core4ByteEE8allocateEmPKv
FN:116,_ZN9__gnu_cxx13new_allocatorImE10deallocateEPmm
FN:116,_ZN9__gnu_cxx13new_allocatorIN4core4ByteEE10deallocateEPS2_m
FN:116,_ZN9__gnu_cxx13new_allocatorIN4core5GroupEE10deallocateEPS2_m
FN:116,_ZN9__gnu_cxx13new_allocatorINSt7__cxx1112basic_stringIcSt11char_traitsIcESaIcEEEE10deallocateEPS6_m
FN:116,_ZN9__gnu_cxx13new_allocatorIcE10deallocateEPcm
FN:129,_ZNK9__gnu_cxx13new_allocatorIcE8max_sizeEv
FN:129,_ZNK9__gnu_cxx13new_allocatorIN4core4ByteEE8max_sizeEv
FN:129,_ZNK9__gnu_cxx13new_allocatorIN4core5GroupEE8max_sizeEv
FN:129,_ZNK9__gnu_cxx13new_allocatorImE8max_sizeEv
FN:129,_ZNK9__gnu_cxx13new_allocatorINSt7__cxx1112basic_stringIcSt11char_traitsIcESaIcEEEE8max_sizeEv
FNDA:0,_ZN9__gnu_cxx13new_allocatorImEC2Ev
FNDA:0,_ZN9__gnu_cxx13new_allocatorIbEC2Ev
FNDA:0,_ZN9__gnu_cxx13new_allocatorINSt7__cxx1112basic_stringIcSt11char_traitsIcESaIcEEEEC2ERKS7_
FNDA:0,_ZN9__gnu_cxx13new_allocatorImEC2ERKS1_
FNDA:422,_ZN9__gnu_cxx13new_allocatorIN4core4ByteEEC2ERKS3_
FNDA:42,_ZN9__gnu_cxx13new_allocatorIN4core5GroupEEC2ERKS3_
FNDA:0,_ZN9__gnu_cxx13new_allocatorIcEC2ERKS1_
FNDA:0,_ZN9__gnu_cxx13new_allocatorINSt7__cxx1112basic_stringIcSt11char_traitsIcESaIcEEEED2Ev
FNDA:0,_ZN9__gnu_cxx13new_allocatorIbED2Ev
FNDA:0,_ZN9__gnu_cxx13new_allocatorImED2Ev
FNDA:0,_ZN9__gnu_cxx13new_allocatorIN4core4ByteEED2Ev
FNDA:0,_ZN9__gnu_cxx13new_allocatorIN4core5GroupEED2Ev
FNDA:0,_ZN9__gnu_cxx13new_allocatorIcED2Ev
FNDA:0,_ZN9__gnu_cxx13new_allocatorINSt7__cxx1112basic_stringIcSt11char_traitsIcESaIcEEEE8allocateEmPKv
FNDA:0,_ZN9__gnu_cxx13new_allocatorImE8allocateEmPKv
FNDA:304,_ZN9__gnu_cxx13new_allocatorIN4core4ByteEE8allocateEmPKv
FNDA:43,_ZN9__gnu_cxx13new_allocatorIN4core5GroupEE8allocateEmPKv
FNDA:0,_ZN9__gnu_cxx13new_allocatorIcE8allocateEmPKv
FNDA:0,_ZN9__gnu_cxx13new_allocatorINSt7__cxx1112basic_stringIcSt11char_traitsIcESaIcEEEE10deallocateEPS6_m
FNDA:0,_ZN9__gnu_cxx13new_allocatorImE10deallocateEPmm
FNDA:0,_ZN9__gnu_cxx13new_allocatorIN4core4ByteEE10deallocateEPS2_m
FNDA:0,_ZN9__gnu_cxx13new_allocatorIcE10deallocateEPcm
FNDA:0,_ZN9__gnu_cxx13new_allocatorIN4core5GroupEE10deallocateEPS2_m
FNDA:0,_ZNK9__gnu_cxx13new_allocatorINSt7__cxx1112basic_stringIcSt11char_traitsIcESaIcEEEE8max_sizeEv
FNDA:0,_ZNK9__gnu_cxx13new_allocatorImE8max_sizeEv
FNDA:490,_ZNK9__gnu_cxx13new_allocatorIN4core4ByteEE8max_sizeEv
FNDA:87,_ZNK9__gnu_cxx13new_allocatorIN4core5GroupEE8max_sizeEv
FNDA:0,_ZNK9__gnu_cxx13new_allocatorIcE8max_sizeEv
FNF:28
FNH:6
DA:79,0
DA:81,464
DA:86,0
DA:99,347
DA:101,347
DA:102,0
DA:111,347
DA:113,0
DA:115,0
DA:116,0
DA:125,0
DA:127,0
DA:129,0
DA:130,0
DA:139,0
DA:141,304
DA:143,304
DA:144,0
DA:153,304
DA:155,43
DA:157,43
DA:158,0
DA:167,43
DA:169,0
DA:171,0
DA:172,0
DA:181,0
DA:186,0
DA:195,0
DA:197,0
DA:206,0
DA:208,0
DA:217,0
DA:219,0
DA:228,0
DA:230,0
DA:239,0
DA:241,0
DA:250,0
DA:254,577
DA:255,577
DA:256,0
DA:257,0
DA:258,0
DA:259,0
DA:260,490
DA:261,490
DA:262,87
DA:263,87
DA:264,0
DA:265,0
LF:51
LH:16
end_of_record
SF:/usr/include/c++/8/ext/type_traits.h
FN:152,_ZN9__gnu_cxx17__is_null_pointerIcEEbPT_
FNDA:0,_ZN9__gnu_cxx17__is_null_pointerIcEEbPT_
FNF:1
FNH:0
DA:152,0
DA:153,0
LF:2
LH:0
end_of_record
SF:/usr/include/c++/8/new
FN:168,_ZnwmPv
FN:174,_ZdlPvS_
FNDA:0,_ZnwmPv
FNDA:0,_ZdlPvS_
FNF:2
FNH:0
DA:168,0
DA:169,0
DA:174,0
LF:3
LH:0
end_of_record
SF:/home/fsl/prog/tino/src/core/Block.cpp
FN:5,_ZN4core5BlockC2ERKSt6vectorINS_5GroupESaIS2_EEiRKNSt7__cxx1112basic_stringIcSt11char_traitsIcESaIcEEE
FN:12,_ZNK4core5Block7getNameB5cxx11Ev
FN:16,_ZN4core5BlockixEm
FN:21,_ZNK4core5Block6getDimEv
FN:26,_ZNK4core5BlockeqERKS0_
FN:40,_ZN4core5BlockaSERKS0_
FN:49,_ZNK4core5Block8getStartEv
FN:54,_ZN4core5Block8getNbyteEv
FN:59,_ZZN4core5Block8getNbyteEvENKUlRKNS_5GroupEE_clES3_
FN:64,_ZN4core5Block15setIntAtAddressEii
FNDA:7,_ZN4core5BlockC2ERKSt6vectorINS_5GroupESaIS2_EEiRKNSt7__cxx1112basic_stringIcSt11char_traitsIcESaIcEEE
FNDA:7,_ZNK4core5Block7getNameB5cxx11Ev
FNDA:72,_ZN4core5BlockixEm
FNDA:86,_ZNK4core5Block6getDimEv
FNDA:0,_ZNK4core5BlockeqERKS0_
FNDA:0,_ZN4core5BlockaSERKS0_
FNDA:2,_ZNK4core5Block8getStartEv
FNDA:7,_ZN4core5Block8getNbyteEv
FNDA:36,_ZZN4core5Block8getNbyteEvENKUlRKNS_5GroupEE_clES3_
FNDA:0,_ZN4core5Block15setIntAtAddressEii
FNF:10
FNH:7
DA:5,7
DA:6,7
DA:8,7
DA:10,7
DA:12,7
DA:14,7
DA:16,72
DA:18,72
DA:21,86
DA:23,86
DA:26,0
DA:28,0
DA:29,0
DA:30,0
DA:32,0
DA:34,0
DA:35,0
DA:37,0
DA:40,0
DA:42,0
DA:44,0
DA:45,0
DA:46,0
DA:49,2
DA:51,2
DA:54,7
DA:56,7
DA:59,43
DA:61,7
DA:64,0
DA:66,0
DA:68,0
DA:70,0
DA:72,0
DA:73,0
DA:74,0
DA:75,0
DA:76,0
DA:77,0
DA:79,0
DA:80,0
DA:83,0
DA:85,0
LF:43
LH:16
end_of_record
SF:/home/fsl/prog/tino/src/core/Byte.hpp
FN:19,_ZN4core4ByteD2Ev
FN:20,_ZN4core4ByteC2ERKS0_
FNDA:0,_ZN4core4ByteD2Ev
FNDA:844,_ZN4core4ByteC2ERKS0_
FNF:2
FNH:1
DA:19,0
DA:20,844
LF:2
LH:1
end_of_record
SF:/home/fsl/prog/tino/src/core/Group.hpp
FN:16,_ZN4core5GroupD2Ev
FN:17,_ZN4core5GroupC2ERKS0_
FNDA:0,_ZN4core5GroupD2Ev
FNDA:175,_ZN4core5GroupC2ERKS0_
FNF:2
FNH:1
DA:16,0
DA:17,175
LF:2
LH:1
end_of_record
TN:
SF:/usr/include/c++/8/bits/alloc_traits.h
FN:435,_ZNSt16allocator_traitsISaIN4core5GroupEEE8allocateERS2_m
FN:435,_ZNSt16allocator_traitsISaImEE8allocateERS0_m
FN:435,_ZNSt16allocator_traitsISaIcEE8allocateERS0_m
FN:435,_ZNSt16allocator_traitsISaINSt7__cxx1112basic_stringIcSt11char_traitsIcESaIcEEEEE8allocateERS6_m
FN:435,_ZNSt16allocator_traitsISaIN4core4ByteEEE8allocateERS2_m
FN:435,_ZNSt16allocator_traitsISaIN4core5BlockEEE8allocateERS2_m
FN:461,_ZNSt16allocator_traitsISaIN4core5GroupEEE10deallocateERS2_PS1_m
FN:461,_ZNSt16allocator_traitsISaIcEE10deallocateERS0_Pcm
FN:461,_ZNSt16allocator_traitsISaINSt7__cxx1112basic_stringIcSt11char_traitsIcESaIcEEEEE10deallocateERS6_PS5_m
FN:461,_ZNSt16allocator_traitsISaIN4core4ByteEEE10deallocateERS2_PS1_m
FN:461,_ZNSt16allocator_traitsISaIN4core5BlockEEE10deallocateERS2_PS1_m
FN:461,_ZNSt16allocator_traitsISaImEE10deallocateERS0_Pmm
FN:474,_ZNSt16allocator_traitsISaIN4core5BlockEEE9constructIS1_JRKS1_EEEvRS2_PT_DpOT0_
FN:474,_ZNSt16allocator_traitsISaIN4core4ByteEEE9constructIS1_JRKS1_EEEvRS2_PT_DpOT0_
FN:474,_ZNSt16allocator_traitsISaIN4core5GroupEEE9constructIS1_JRKS1_EEEvRS2_PT_DpOT0_
FN:474,_ZNSt16allocator_traitsISaINSt7__cxx1112basic_stringIcSt11char_traitsIcESaIcEEEEE9constructIS5_JS5_EEEvRS6_PT_DpOT0_
FN:486,_ZNSt16allocator_traitsISaIN4core5BlockEEE7destroyIS1_EEvRS2_PT_
FN:486,_ZNSt16allocator_traitsISaINSt7__cxx1112basic_stringIcSt11char_traitsIcESaIcEEEEE7destroyIS5_EEvRS6_PT_
FN:486,_ZNSt16allocator_traitsISaIN4core5GroupEEE7destroyIS1_EEvRS2_PT_
FN:486,_ZNSt16allocator_traitsISaIN4core4ByteEEE7destroyIS1_EEvRS2_PT_
FN:495,_ZNSt16allocator_traitsISaIcEE8max_sizeERKS0_
FN:495,_ZNSt16allocator_traitsISaIN4core5BlockEEE8max_sizeERKS2_
FN:495,_ZNSt16allocator_traitsISaINSt7__cxx1112basic_stringIcSt11char_traitsIcESaIcEEEEE8max_sizeERKS6_
FN:495,_ZNSt16allocator_traitsISaIN4core5GroupEEE8max_sizeERKS2_
FN:495,_ZNSt16allocator_traitsISaImEE8max_sizeERKS0_
FN:495,_ZNSt16allocator_traitsISaIN4core4ByteEEE8max_sizeERKS2_
FN:504,_ZNSt16allocator_traitsISaIN4core4ByteEEE37select_on_container_copy_constructionERKS2_
FN:504,_ZNSt16allocator_traitsISaIN4core5GroupEEE37select_on_container_copy_constructionERKS2_
FN:504,_ZNSt16allocator_traitsISaIcEE37select_on_container_copy_constructionERKS0_
FN:504,_ZNSt16allocator_traitsISaINSt7__cxx1112basic_stringIcSt11char_traitsIcESaIcEEEEE37select_on_container_copy_constructionERKS6_
FN:504,_ZNSt16allocator_traitsISaImEE37select_on_container_copy_constructionERKS0_
FN:535,_ZSt18__do_alloc_on_moveISaIcEEvRT_S2_St17integral_constantIbLb1EE
FN:543,_ZSt15__alloc_on_moveISaIcEEvRT_S2_
FNDA:0,_ZNSt16allocator_traitsISaIcEE8allocateERS0_m
FNDA:0,_ZNSt16allocator_traitsISaINSt7__cxx1112basic_stringIcSt11char_traitsIcESaIcEEEEE8allocateERS6_m
FNDA:4,_ZNSt16allocator_traitsISaIN4core5BlockEEE8allocateERS2_m
FNDA:0,_ZNSt16allocator_traitsISaIN4core5GroupEEE8allocateERS2_m
FNDA:0,_ZNSt16allocator_traitsISaIN4core4ByteEEE8allocateERS2_m
FNDA:0,_ZNSt16allocator_traitsISaImEE8allocateERS0_m
FNDA:0,_ZNSt16allocator_traitsISaIN4core5BlockEEE10deallocateERS2_PS1_m
FNDA:0,_ZNSt16allocator_traitsISaINSt7__cxx1112basic_stringIcSt11char_traitsIcESaIcEEEEE10deallocateERS6_PS5_m
FNDA:0,_ZNSt16allocator_traitsISaIN4core4ByteEEE10deallocateERS2_PS1_m
FNDA:0,_ZNSt16allocator_traitsISaIN4core5GroupEEE10deallocateERS2_PS1_m
FNDA:0,_ZNSt16allocator_traitsISaIcEE10deallocateERS0_Pcm
FNDA:0,_ZNSt16allocator_traitsISaImEE10deallocateERS0_Pmm
FNDA:320,_ZNSt16allocator_traitsISaINSt7__cxx1112basic_stringIcSt11char_traitsIcESaIcEEEEE9constructIS5_JS5_EEEvRS6_PT_DpOT0_
FNDA:7,_ZNSt16allocator_traitsISaIN4core5BlockEEE9constructIS1_JRKS1_EEEvRS2_PT_DpOT0_
FNDA:36,_ZNSt16allocator_traitsISaIN4core5GroupEEE9constructIS1_JRKS1_EEEvRS2_PT_DpOT0_
FNDA:108,_ZNSt16allocator_traitsISaIN4core4ByteEEE9constructIS1_JRKS1_EEEvRS2_PT_DpOT0_
FNDA:0,_ZNSt16allocator_traitsISaINSt7__cxx1112basic_stringIcSt11char_traitsIcESaIcEEEEE7destroyIS5_EEvRS6_PT_
FNDA:0,_ZNSt16allocator_traitsISaIN4core5BlockEEE7destroyIS1_EEvRS2_PT_
FNDA:0,_ZNSt16allocator_traitsISaIN4core5GroupEEE7destroyIS1_EEvRS2_PT_
FNDA:0,_ZNSt16allocator_traitsISaIN4core4ByteEEE7destroyIS1_EEvRS2_PT_
FNDA:320,_ZNSt16allocator_traitsISaINSt7__cxx1112basic_stringIcSt11char_traitsIcESaIcEEEEE8max_sizeERKS6_
FNDA:8,_ZNSt16allocator_traitsISaIN4core5BlockEEE8max_sizeERKS2_
FNDA:44,_ZNSt16allocator_traitsISaIN4core5GroupEEE8max_sizeERKS2_
FNDA:186,_ZNSt16allocator_traitsISaIN4core4ByteEEE8max_sizeERKS2_
FNDA:216,_ZNSt16allocator_traitsISaImEE8max_sizeERKS0_
FNDA:0,_ZNSt16allocator_traitsISaIcEE8max_sizeERKS0_
FNDA:0,_ZNSt16allocator_traitsISaIN4core5GroupEEE37select_on_container_copy_constructionERKS2_
FNDA:0,_ZNSt16allocator_traitsISaIN4core4ByteEEE37select_on_container_copy_constructionERKS2_
FNDA:0,_ZNSt16allocator_traitsISaINSt7__cxx1112basic_stringIcSt11char_traitsIcESaIcEEEEE37select_on_container_copy_constructionERKS6_
FNDA:0,_ZNSt16allocator_traitsISaImEE37select_on_container_copy_constructionERKS0_
FNDA:0,_ZNSt16allocator_traitsISaIcEE37select_on_container_copy_constructionERKS0_
FNDA:0,_ZSt18__do_alloc_on_moveISaIcEEvRT_S2_St17integral_constantIbLb1EE
FNDA:0,_ZSt15__alloc_on_moveISaIcEEvRT_S2_
FNF:33
FNH:10
DA:435,4
DA:436,4
DA:437,0
DA:438,0
DA:439,0
DA:440,0
DA:441,4
DA:442,4
DA:443,0
DA:444,0
DA:445,0
DA:446,0
DA:447,0
DA:448,0
DA:473,0
DA:474,0
DA:475,0
DA:476,0
DA:477,0
DA:478,0
DA:479,0
DA:480,0
DA:481,0
DA:482,0
DA:483,0
DA:484,0
DA:485,0
DA:486,0
DA:498,471
DA:499,471
DA:500,320
DA:501,320
DA:502,7
DA:503,7
DA:504,36
DA:505,36
DA:506,108
DA:507,108
DA:518,0
DA:519,0
DA:520,0
DA:521,0
DA:522,0
DA:523,0
DA:524,0
DA:525,0
DA:526,0
DA:527,0
DA:535,774
DA:536,774
DA:537,320
DA:538,320
DA:539,8
DA:540,8
DA:541,44
DA:542,44
DA:543,186
DA:544,186
DA:545,216
DA:546,216
DA:547,0
DA:548,0
DA:556,0
DA:557,0
DA:558,0
DA:559,0
DA:560,0
DA:561,0
DA:562,0
DA:563,0
DA:564,0
DA:565,0
DA:566,0
DA:567,0
DA:597,0
DA:598,0
DA:605,0
DA:609,0
DA:610,0
LF:79
LH:26
end_of_record
SF:/usr/include/c++/8/bits/allocator.h
FN:131,_ZNSaIN4core4ByteEEC2Ev
FN:131,_ZNSaImEC2Ev
FN:131,_ZNSaINSt7__cxx1112basic_stringIcSt11char_traitsIcESaIcEEEEC2Ev
FN:131,_ZNSaIN4core5GroupEEC2Ev
FN:133,_ZNSaImEC2ERKS_
FN:133,_ZNSaIN4core4ByteEEC2ERKS1_
FN:133,_ZNSaINSt7__cxx1112basic_stringIcSt11char_traitsIcESaIcEEEEC2ERKS5_
FN:133,_ZNSaIN4core5GroupEEC2ERKS1_
FN:137,_ZNSaImEC2IbEERKSaIT_E
FN:137,_ZNSaIbEC2ImEERKSaIT_E
FN:139,_ZNSaIN4core4ByteEED2Ev
FN:139,_ZNSaINSt7__cxx1112basic_stringIcSt11char_traitsIcESaIcEEEED2Ev
FN:139,_ZNSaImED2Ev
FN:139,_ZNSaIbED2Ev
FN:139,_ZNSaIN4core5GroupEED2Ev
FN:152,_ZSteqIcEbRKSaIT_ES3_
FN:164,_ZStneIcEbRKSaIT_ES3_
FNDA:0,_ZNSaINSt7__cxx1112basic_stringIcSt11char_traitsIcESaIcEEEEC2Ev
FNDA:0,_ZNSaIN4core4ByteEEC2Ev
FNDA:0,_ZNSaIN4core5GroupEEC2Ev
FNDA:108,_ZNSaImEC2Ev
FNDA:0,_ZNSaIN4core5GroupEEC2ERKS1_
FNDA:0,_ZNSaIN4core4ByteEEC2ERKS1_
FNDA:0,_ZNSaINSt7__cxx1112basic_stringIcSt11char_traitsIcESaIcEEEEC2ERKS5_
FNDA:0,_ZNSaImEC2ERKS_
FNDA:0,_ZNSaImEC2IbEERKSaIT_E
FNDA:0,_ZNSaIbEC2ImEERKSaIT_E
FNDA:0,_ZNSaIbED2Ev
FNDA:0,_ZNSaINSt7__cxx1112basic_stringIcSt11char_traitsIcESaIcEEEED2Ev
FNDA:0,_ZNSaIN4core4ByteEED2Ev
FNDA:0,_ZNSaIN4core5GroupEED2Ev
FNDA:0,_ZNSaImED2Ev
FNDA:0,_ZSteqIcEbRKSaIT_ES3_
FNDA:0,_ZStneIcEbRKSaIT_ES3_
FNF:17
FNH:1
DA:131,108
DA:133,0
DA:134,0
DA:135,0
DA:136,0
DA:137,0
DA:138,0
DA:139,0
DA:140,0
DA:141,0
DA:142,0
DA:145,0
DA:147,0
DA:160,0
DA:162,0
DA:172,0
DA:174,0
LF:17
LH:1
end_of_record
SF:/usr/include/c++/8/bits/basic_string.h
FN:145,_ZNSt7__cxx1112basic_stringIcSt11char_traitsIcESaIcEE12_Alloc_hiderC2EPcRKS3_
FN:148,_ZNSt7__cxx1112basic_stringIcSt11char_traitsIcESaIcEE12_Alloc_hiderC2EPcOS3_
FN:167,_ZNSt7__cxx1112basic_stringIcSt11char_traitsIcESaIcEE7_M_dataEPc
FN:171,_ZNSt7__cxx1112basic_stringIcSt11char_traitsIcESaIcEE9_M_lengthEm
FN:175,_ZNKSt7__cxx1112basic_stringIcSt11char_traitsIcESaIcEE7_M_dataEv
FN:179,_ZNSt7__cxx1112basic_stringIcSt11char_traitsIcESaIcEE13_M_local_dataEv
FN:189,_ZNKSt7__cxx1112basic_stringIcSt11char_traitsIcESaIcEE13_M_local_dataEv
FN:199,_ZNSt7__cxx1112basic_stringIcSt11char_traitsIcESaIcEE11_M_capacityEm
FN:203,_ZNSt7__cxx1112basic_stringIcSt11char_traitsIcESaIcEE13_M_set_lengthEm
FN:210,_ZNKSt7__cxx1112basic_stringIcSt11char_traitsIcESaIcEE11_M_is_localEv
FN:218,_ZNSt7__cxx1112basic_stringIcSt11char_traitsIcESaIcEE10_M_disposeEv
FN:225,_ZNSt7__cxx1112basic_stringIcSt11char_traitsIcESaIcEE10_M_destroyEm
FN:232,_ZNSt7__cxx1112basic_stringIcSt11char_traitsIcESaIcEE16_M_construct_auxIPcEEvT_S7_St12__false_type
FN:252,_ZNSt7__cxx1112basic_stringIcSt11char_traitsIcESaIcEE12_M_constructIPcEEvT_S7_
FN:275,_ZNSt7__cxx1112basic_stringIcSt11char_traitsIcESaIcEE16_M_get_allocatorEv
FN:279,_ZNKSt7__cxx1112basic_stringIcSt11char_traitsIcESaIcEE16_M_get_allocatorEv
FN:299,_ZNKSt7__cxx1112basic_stringIcSt11char_traitsIcESaIcEE8_M_checkEmPKc
FN:309,_ZNKSt7__cxx1112basic_stringIcSt11char_traitsIcESaIcEE15_M_check_lengthEmmPKc
FN:318,_ZNKSt7__cxx1112basic_stringIcSt11char_traitsIcESaIcEE8_M_limitEmm
FN:326,_ZNKSt7__cxx1112basic_stringIcSt11char_traitsIcESaIcEE11_M_disjunctEPKc
FN:335,_ZNSt7__cxx1112basic_stringIcSt11char_traitsIcESaIcEE7_S_copyEPcPKcm
FN:344,_ZNSt7__cxx1112basic_stringIcSt11char_traitsIcESaIcEE7_S_moveEPcPKcm
FN:381,_ZNSt7__cxx1112basic_stringIcSt11char_traitsIcESaIcEE13_S_copy_charsEPcS5_S5_
FN:437,_ZNSt7__cxx1112basic_stringIcSt11char_traitsIcESaIcEEC2ERKS4_
FN:541,_ZNSt7__cxx1112basic_stringIcSt11char_traitsIcESaIcEEC2EOS4_
FN:614,_ZNSt7__cxx1112basic_stringIcSt11char_traitsIcESaIcEEC2IPcvEET_S7_RKS3_
FN:656,_ZNSt7__cxx1112basic_stringIcSt11char_traitsIcESaIcEED2Ev
FN:732,_ZNSt7__cxx1112basic_stringIcSt11char_traitsIcESaIcEEaSEOS4_
FN:930,_ZNKSt7__cxx1112basic_stringIcSt11char_traitsIcESaIcEE4sizeEv
FN:936,_ZNKSt7__cxx1112basic_stringIcSt11char_traitsIcESaIcEE6lengthEv
FN:941,_ZNKSt7__cxx1112basic_stringIcSt11char_traitsIcESaIcEE8max_sizeEv
FN:993,_ZNKSt7__cxx1112basic_stringIcSt11char_traitsIcESaIcEE8capacityEv
FN:1023,_ZNSt7__cxx1112basic_stringIcSt11char_traitsIcESaIcEE5clearEv
FN:1063,_ZNSt7__cxx1112basic_stringIcSt11char_traitsIcESaIcEEixEm
FN:1221,_ZNSt7__cxx1112basic_stringIcSt11char_traitsIcESaIcEE6appendERKS4_
FN:1263,_ZNSt7__cxx1112basic_stringIcSt11char_traitsIcESaIcEE6appendEPKc
FN:1364,_ZNSt7__cxx1112basic_stringIcSt11char_traitsIcESaIcEE6assignERKS4_
FN:1631,_ZNSt7__cxx1112basic_stringIcSt11char_traitsIcESaIcEE6insertEmRKS4_
FN:1927,_ZNSt7__cxx1112basic_stringIcSt11char_traitsIcESaIcEE7replaceEmmPKcm
FN:6004,_ZStplIcSt11char_traitsIcESaIcEENSt7__cxx1112basic_stringIT_T0_T1_EEOS8_S9_
FN:6028,_ZStplIcSt11char_traitsIcESaIcEENSt7__cxx1112basic_stringIT_T0_T1_EEOS8_PKS5_
FN:6453,_ZNSt7__cxx119to_stringEi
FNDA:0,_ZNSt7__cxx1112basic_stringIcSt11char_traitsIcESaIcEE12_Alloc_hiderC2EPcRKS3_
FNDA:0,_ZNSt7__cxx1112basic_stringIcSt11char_traitsIcESaIcEE12_Alloc_hiderC2EPcOS3_
FNDA:0,_ZNSt7__cxx1112basic_stringIcSt11char_traitsIcESaIcEE7_M_dataEPc
FNDA:0,_ZNSt7__cxx1112basic_stringIcSt11char_traitsIcESaIcEE9_M_lengthEm
FNDA:0,_ZNKSt7__cxx1112basic_stringIcSt11char_traitsIcESaIcEE7_M_dataEv
FNDA:0,_ZNSt7__cxx1112basic_stringIcSt11char_traitsIcESaIcEE13_M_local_dataEv
FNDA:0,_ZNKSt7__cxx1112basic_stringIcSt11char_traitsIcESaIcEE13_M_local_dataEv
FNDA:0,_ZNSt7__cxx1112basic_stringIcSt11char_traitsIcESaIcEE11_M_capacityEm
FNDA:0,_ZNSt7__cxx1112basic_stringIcSt11char_traitsIcESaIcEE13_M_set_lengthEm
FNDA:0,_ZNKSt7__cxx1112basic_stringIcSt11char_traitsIcESaIcEE11_M_is_localEv
FNDA:0,_ZNSt7__cxx1112basic_stringIcSt11char_traitsIcESaIcEE10_M_disposeEv
FNDA:0,_ZNSt7__cxx1112basic_stringIcSt11char_traitsIcESaIcEE10_M_destroyEm
FNDA:0,_ZNSt7__cxx1112basic_stringIcSt11char_traitsIcESaIcEE16_M_construct_auxIPcEEvT_S7_St12__false_type
FNDA:0,_ZNSt7__cxx1112basic_stringIcSt11char_traitsIcESaIcEE12_M_constructIPcEEvT_S7_
FNDA:0,_ZNSt7__cxx1112basic_stringIcSt11char_traitsIcESaIcEE16_M_get_allocatorEv
FNDA:0,_ZNKSt7__cxx1112basic_stringIcSt11char_traitsIcESaIcEE16_M_get_allocatorEv
FNDA:0,_ZNKSt7__cxx1112basic_stringIcSt11char_traitsIcESaIcEE8_M_checkEmPKc
FNDA:0,_ZNKSt7__cxx1112basic_stringIcSt11char_traitsIcESaIcEE15_M_check_lengthEmmPKc
FNDA:0,_ZNKSt7__cxx1112basic_stringIcSt11char_traitsIcESaIcEE8_M_limitEmm
FNDA:0,_ZNKSt7__cxx1112basic_stringIcSt11char_traitsIcESaIcEE11_M_disjunctEPKc
FNDA:0,_ZNSt7__cxx1112basic_stringIcSt11char_traitsIcESaIcEE7_S_copyEPcPKcm
FNDA:0,_ZNSt7__cxx1112basic_stringIcSt11char_traitsIcESaIcEE7_S_moveEPcPKcm
FNDA:0,_ZNSt7__cxx1112basic_stringIcSt11char_traitsIcESaIcEE13_S_copy_charsEPcS5_S5_
FNDA:0,_ZNSt7__cxx1112basic_stringIcSt11char_traitsIcESaIcEEC2ERKS4_
FNDA:0,_ZNSt7__cxx1112basic_stringIcSt11char_traitsIcESaIcEEC2EOS4_
FNDA:0,_ZNSt7__cxx1112basic_stringIcSt11char_traitsIcESaIcEEC2IPcvEET_S7_RKS3_
FNDA:0,_ZNSt7__cxx1112basic_stringIcSt11char_traitsIcESaIcEED2Ev
FNDA:0,_ZNSt7__cxx1112basic_stringIcSt11char_traitsIcESaIcEEaSEOS4_
FNDA:0,_ZNKSt7__cxx1112basic_stringIcSt11char_traitsIcESaIcEE4sizeEv
FNDA:0,_ZNKSt7__cxx1112basic_stringIcSt11char_traitsIcESaIcEE6lengthEv
FNDA:0,_ZNKSt7__cxx1112basic_stringIcSt11char_traitsIcESaIcEE8max_sizeEv
FNDA:0,_ZNKSt7__cxx1112basic_stringIcSt11char_traitsIcESaIcEE8capacityEv
FNDA:0,_ZNSt7__cxx1112basic_stringIcSt11char_traitsIcESaIcEE5clearEv
FNDA:0,_ZNSt7__cxx1112basic_stringIcSt11char_traitsIcESaIcEEixEm
FNDA:0,_ZNSt7__cxx1112basic_stringIcSt11char_traitsIcESaIcEE6appendERKS4_
FNDA:0,_ZNSt7__cxx1112basic_stringIcSt11char_traitsIcESaIcEE6appendEPKc
FNDA:0,_ZNSt7__cxx1112basic_stringIcSt11char_traitsIcESaIcEE6assignERKS4_
FNDA:0,_ZNSt7__cxx1112basic_stringIcSt11char_traitsIcESaIcEE6insertEmRKS4_
FNDA:0,_ZNSt7__cxx1112basic_stringIcSt11char_traitsIcESaIcEE7replaceEmmPKcm
FNDA:108,_ZStplIcSt11char_traitsIcESaIcEENSt7__cxx1112basic_stringIT_T0_T1_EEOS8_S9_
FNDA:0,_ZStplIcSt11char_traitsIcESaIcEENSt7__cxx1112basic_stringIT_T0_T1_EEOS8_PKS5_
FNDA:0,_ZNSt7__cxx119to_stringEi
FNF:42
FNH:1
DA:145,0
DA:146,0
DA:148,0
DA:149,0
DA:167,0
DA:168,0
DA:171,0
DA:172,0
DA:175,0
DA:176,0
DA:179,0
DA:182,0
DA:189,0
DA:192,0
DA:199,0
DA:200,0
DA:203,0
DA:205,0
DA:206,0
DA:207,0
DA:210,0
DA:211,0
DA:218,0
DA:220,0
DA:221,0
DA:222,0
DA:225,0
DA:226,0
DA:232,0
DA:236,0
DA:237,0
DA:252,0
DA:255,0
DA:256,0
DA:275,0
DA:276,0
DA:279,0
DA:280,0
DA:299,0
DA:301,0
DA:302,0
DA:305,0
DA:309,0
DA:311,0
DA:312,0
DA:313,0
DA:318,0
DA:320,0
DA:321,0
DA:326,0
DA:328,0
DA:329,0
DA:335,0
DA:337,0
DA:338,0
DA:340,0
DA:341,0
DA:344,0
DA:346,0
DA:347,0
DA:349,0
DA:350,0
DA:381,0
DA:382,0
DA:437,0
DA:439,0
DA:440,0
DA:541,0
DA:542,0
DA:544,0
DA:546,0
DA:551,0
DA:552,0
DA:558,0
DA:559,0
DA:560,0
DA:561,0
DA:614,0
DA:616,0
DA:617,0
DA:656,0
DA:657,0
DA:732,0
DA:735,0
DA:736,0
DA:737,0
DA:740,0
DA:741,0
DA:742,0
DA:745,0
DA:747,0
DA:750,0
DA:751,0
DA:752,0
DA:754,0
DA:755,0
DA:756,0
DA:759,0
DA:761,0
DA:763,0
DA:766,0
DA:767,0
DA:770,0
DA:773,0
DA:774,0
DA:775,0
DA:776,0
DA:778,0
DA:779,0
DA:782,0
DA:785,0
DA:786,0
DA:787,0
DA:930,0
DA:931,0
DA:936,0
DA:937,0
DA:941,0
DA:942,0
DA:993,0
DA:995,0
DA:996,0
DA:1023,0
DA:1024,0
DA:1063,0
DA:1070,0
DA:1221,0
DA:1222,0
DA:1263,0
DA:1266,0
DA:1267,0
DA:1268,0
DA:1364,0
DA:1366,0
DA:1367,0
DA:1631,0
DA:1633,0
DA:1927,0
DA:1932,0
DA:6004,108
DA:6007,108
DA:6008,108
DA:6009,108
DA:6010,0
DA:6011,108
DA:6028,0
DA:6030,0
DA:6453,0
DA:6455,0
LF:149
LH:5
end_of_record
SF:/usr/include/c++/8/bits/basic_string.tcc
FN:132,_ZNSt7__cxx1112basic_stringIcSt11char_traitsIcESaIcEE9_M_createERmm
FN:206,_ZNSt7__cxx1112basic_stringIcSt11char_traitsIcESaIcEE12_M_constructIPcEEvT_S7_St20forward_iterator_tag
FN:254,_ZNSt7__cxx1112basic_stringIcSt11char_traitsIcESaIcEE9_M_assignERKS4_
FN:310,_ZNSt7__cxx1112basic_stringIcSt11char_traitsIcESaIcEE9_M_mutateEmmPKcm
FN:359,_ZNSt7__cxx1112basic_stringIcSt11char_traitsIcESaIcEE9_M_appendEPKcm
FN:421,_ZNSt7__cxx1112basic_stringIcSt11char_traitsIcESaIcEE10_M_replaceEmmPKcm
FNDA:0,_ZNSt7__cxx1112basic_stringIcSt11char_traitsIcESaIcEE9_M_createERmm
FNDA:0,_ZNSt7__cxx1112basic_stringIcSt11char_traitsIcESaIcEE12_M_constructIPcEEvT_S7_St20forward_iterator_tag
FNDA:0,_ZNSt7__cxx1112basic_stringIcSt11char_traitsIcESaIcEE9_M_assignERKS4_
FNDA:0,_ZNSt7__cxx1112basic_stringIcSt11char_traitsIcESaIcEE9_M_mutateEmmPKcm
FNDA:0,_ZNSt7__cxx1112basic_stringIcSt11char_traitsIcESaIcEE9_M_appendEPKcm
FNDA:0,_ZNSt7__cxx1112basic_stringIcSt11char_traitsIcESaIcEE10_M_replaceEmmPKcm
FNF:6
FNH:0
DA:132,0
DA:137,0
DA:138,0
DA:143,0
DA:145,0
DA:147,0
DA:148,0
DA:153,0
DA:206,0
DA:211,0
DA:212,0
DA:215,0
DA:217,0
DA:219,0
DA:220,0
DA:225,0
DA:232,0
DA:233,0
DA:254,0
DA:257,0
DA:259,0
DA:260,0
DA:262,0
DA:264,0
DA:265,0
DA:266,0
DA:267,0
DA:268,0
DA:271,0
DA:272,0
DA:274,0
DA:276,0
DA:310,0
DA:314,0
DA:316,0
DA:317,0
DA:319,0
DA:320,0
DA:321,0
DA:322,0
DA:323,0
DA:324,0
DA:325,0
DA:327,0
DA:328,0
DA:329,0
DA:330,0
DA:359,0
DA:362,0
DA:364,0
DA:366,0
DA:367,0
DA:370,0
DA:372,0
DA:373,0
DA:421,0
DA:425,0
DA:427,0
DA:428,0
DA:430,0
DA:432,0
DA:434,0
DA:435,0
DA:437,0
DA:438,0
DA:439,0
DA:440,0
DA:445,0
DA:446,0
DA:447,0
DA:448,0
DA:449,0
DA:451,0
DA:452,0
DA:453,0
DA:454,0
DA:457,0
DA:458,0
DA:459,0
DA:466,0
DA:468,0
DA:469,0
LF:82
LH:0
end_of_record
SF:/usr/include/c++/8/bits/char_traits.h
FN:100,_ZN9__gnu_cxx11char_traitsIcE2eqERKcS3_
FN:161,_ZN9__gnu_cxx11char_traitsIcE6lengthEPKc
FN:286,_ZNSt11char_traitsIcE6assignERcRKc
FN:316,_ZNSt11char_traitsIcE6lengthEPKc
FN:340,_ZNSt11char_traitsIcE4moveEPcPKcm
FN:348,_ZNSt11char_traitsIcE4copyEPcPKcm
FNDA:0,_ZN9__gnu_cxx11char_traitsIcE2eqERKcS3_
FNDA:0,_ZN9__gnu_cxx11char_traitsIcE6lengthEPKc
FNDA:0,_ZNSt11char_traitsIcE6assignERcRKc
FNDA:0,_ZNSt11char_traitsIcE6lengthEPKc
FNDA:0,_ZNSt11char_traitsIcE4moveEPcPKcm
FNDA:0,_ZNSt11char_traitsIcE4copyEPcPKcm
FNF:6
FNH:0
DA:100,0
DA:101,0
DA:161,0
DA:164,0
DA:165,0
DA:166,0
DA:167,0
DA:235,0
DA:286,0
DA:287,0
DA:316,0
DA:319,0
DA:320,0
DA:322,0
DA:340,0
DA:342,0
DA:343,0
DA:344,0
DA:348,0
DA:350,0
DA:351,0
DA:352,0
LF:22
LH:0
end_of_record
SF:/usr/include/c++/8/bits/cpp_type_traits.h
FN:419,_ZSt12__miter_baseISt13_Bit_iteratorET_S1_
FN:419,_ZSt12__miter_baseISt19_Bit_const_iteratorET_S1_
FN:419,_ZSt12__miter_baseIPmET_S1_
FNDA:0,_ZSt12__miter_baseISt19_Bit_const_iteratorET_S1_
FNDA:0,_ZSt12__miter_baseIPmET_S1_
FNDA:216,_ZSt12__miter_baseISt13_Bit_iteratorET_S1_
FNF:3
FNH:1
DA:419,216
DA:420,216
DA:421,0
DA:422,0
DA:423,0
DA:424,0
DA:425,216
DA:426,216
LF:8
LH:4
end_of_record
SF:/usr/include/c++/8/bits/move.h
FN:47,_ZSt11__addressofINSt7__cxx1112basic_stringIcSt11char_traitsIcESaIcEEEEPT_RS6_
FN:47,_ZSt11__addressofIcEPT_RS0_
FN:47,_ZSt11__addressofIN4core5GroupEEPT_RS2_
FN:47,_ZSt11__addressofImEPT_RS0_
FN:47,_ZSt11__addressofIN4core4ByteEEPT_RS2_
FN:47,_ZSt11__addressofIKcEPT_RS1_
FN:47,_ZSt11__addressofIN4core5BlockEEPT_RS2_
FN:74,_ZSt7forwardIRKN4core4ByteEEOT_RNSt16remove_referenceIS4_E4typeE
FN:74,_ZSt7forwardINSt7__cxx1112basic_stringIcSt11char_traitsIcESaIcEEEEOT_RNSt16remove_referenceIS6_E4typeE
FN:74,_ZSt7forwardIRKNSt7__cxx1112basic_stringIcSt11char_traitsIcESaIcEEEEOT_RNSt16remove_referenceIS8_E4typeE
FN:74,_ZSt7forwardIRKN4core5BlockEEOT_RNSt16remove_referenceIS4_E4typeE
FN:74,_ZSt7forwardIRN4Json5ValueEEOT_RNSt16remove_referenceIS3_E4typeE
FN:74,_ZSt7forwardIRKN4core5GroupEEOT_RNSt16remove_referenceIS4_E4typeE
FN:99,_ZSt4moveIRNSt7__cxx1112basic_stringIcSt11char_traitsIcESaIcEEEEONSt16remove_referenceIT_E4typeEOS8_
FN:99,_ZSt4moveIRSaIcEEONSt16remove_referenceIT_E4typeEOS3_
FN:138,_ZSt9addressofIcEPT_RS0_
FN:138,_ZSt9addressofIKcEPT_RS1_
FNDA:0,_ZSt11__addressofIKcEPT_RS1_
FNDA:0,_ZSt11__addressofIN4core5BlockEEPT_RS2_
FNDA:0,_ZSt11__addressofIcEPT_RS0_
FNDA:0,_ZSt11__addressofINSt7__cxx1112basic_stringIcSt11char_traitsIcESaIcEEEEPT_RS6_
FNDA:0,_ZSt11__addressofIN4core4ByteEEPT_RS2_
FNDA:0,_ZSt11__addressofIN4core5GroupEEPT_RS2_
FNDA:0,_ZSt11__addressofImEPT_RS0_
FNDA:0,_ZSt7forwardIRKNSt7__cxx1112basic_stringIcSt11char_traitsIcESaIcEEEEOT_RNSt16remove_referenceIS8_E4typeE
FNDA:25,_ZSt7forwardIRKN4core5BlockEEOT_RNSt16remove_referenceIS4_E4typeE
FNDA:0,_ZSt7forwardIRKN4core5GroupEEOT_RNSt16remove_referenceIS4_E4typeE
FNDA:0,_ZSt7forwardIRKN4core4ByteEEOT_RNSt16remove_referenceIS4_E4typeE
FNDA:1400,_ZSt7forwardINSt7__cxx1112basic_stringIcSt11char_traitsIcESaIcEEEEOT_RNSt16remove_referenceIS6_E4typeE
FNDA:2,_ZSt7forwardIRN4Json5ValueEEOT_RNSt16remove_referenceIS3_E4typeE
FNDA:0,_ZSt4moveIRSaIcEEONSt16remove_referenceIT_E4typeEOS3_
FNDA:0,_ZSt4moveIRNSt7__cxx1112basic_stringIcSt11char_traitsIcESaIcEEEEONSt16remove_referenceIT_E4typeEOS8_
FNDA:0,_ZSt9addressofIKcEPT_RS1_
FNDA:0,_ZSt9addressofIcEPT_RS0_
FNF:17
FNH:3
DA:47,0
DA:48,0
DA:49,0
DA:50,0
DA:51,0
DA:52,0
DA:53,0
DA:54,0
DA:55,0
DA:56,0
DA:57,0
DA:58,0
DA:59,0
DA:60,0
DA:61,0
DA:62,0
DA:88,1427
DA:89,1427
DA:90,0
DA:91,0
DA:92,25
DA:93,25
DA:94,0
DA:95,0
DA:96,0
DA:97,0
DA:98,1400
DA:99,1400
DA:100,2
DA:101,2
DA:125,0
DA:126,0
DA:127,0
DA:128,0
DA:129,0
DA:130,0
DA:168,0
DA:169,0
DA:170,0
DA:171,0
DA:172,0
DA:173,0
LF:42
LH:8
end_of_record
SF:/usr/include/c++/8/bits/ptr_traits.h
FN:141,_ZNSt14pointer_traitsIPKcE10pointer_toERS0_
FN:141,_ZNSt14pointer_traitsIPcE10pointer_toERc
FNDA:0,_ZNSt14pointer_traitsIPKcE10pointer_toERS0_
FNDA:0,_ZNSt14pointer_traitsIPcE10pointer_toERc
FNF:2
FNH:0
DA:141,0
DA:142,0
DA:143,0
DA:144,0
DA:145,0
DA:146,0
LF:6
LH:0
end_of_record
SF:/usr/include/c++/8/bits/stl_algo.h
DA:3876,196
DA:3881,196
DA:3882,151
DA:3883,45
LF:4
LH:4
end_of_record
SF:/usr/include/c++/8/bits/stl_algobase.h
FN:219,_ZSt3maxImERKT_S2_S2_
FN:277,_ZSt12__niter_baseISt19_Bit_const_iteratorET_S1_
FN:277,_ZSt12__niter_baseISt13_Bit_iteratorET_S1_
FN:277,_ZSt12__niter_baseIPmET_S1_
FN:319,_ZNSt11__copy_moveILb0ELb0ESt26random_access_iterator_tagE8__copy_mISt13_Bit_iteratorS3_EET0_T_S5_S4_
FN:319,_ZNSt11__copy_moveILb0ELb0ESt26random_access_iterator_tagE8__copy_mISt19_Bit_const_iteratorSt13_Bit_iteratorEET0_T_S6_S5_
FN:357,_ZNSt11__copy_moveILb0ELb1ESt26random_access_iterator_tagE8__copy_mImEEPT_PKS3_S6_S4_
FN:375,_ZSt13__copy_move_aILb0EPmS0_ET1_T0_S2_S1_
FN:375,_ZSt13__copy_move_aILb0ESt19_Bit_const_iteratorSt13_Bit_iteratorET1_T0_S3_S2_
FN:375,_ZSt13__copy_move_aILb0ESt13_Bit_iteratorS0_ET1_T0_S2_S1_
FN:420,_ZSt14__copy_move_a2ILb0ESt13_Bit_iteratorS0_ET1_T0_S2_S1_
FN:420,_ZSt14__copy_move_a2ILb0ESt19_Bit_const_iteratorSt13_Bit_iteratorET1_T0_S3_S2_
FN:420,_ZSt14__copy_move_a2ILb0EPmS0_ET1_T0_S2_S1_
FN:446,_ZSt4copyISt13_Bit_iteratorS0_ET0_T_S2_S1_
FN:446,_ZSt4copyISt19_Bit_const_iteratorSt13_Bit_iteratorET0_T_S3_S2_
FN:446,_ZSt4copyIPmS0_ET0_T_S2_S1_
FN:529,_ZNSt20__copy_move_backwardILb0ELb0ESt26random_access_iterator_tagE13__copy_move_bISt13_Bit_iteratorS3_EET0_T_S5_S4_
FN:577,_ZSt22__copy_move_backward_aILb0ESt13_Bit_iteratorS0_ET1_T0_S2_S1_
FN:595,_ZSt23__copy_move_backward_a2ILb0ESt13_Bit_iteratorS0_ET1_T0_S2_S1_
FN:622,_ZSt13copy_backwardISt13_Bit_iteratorS0_ET0_T_S2_S1_
FNDA:0,_ZSt3maxImERKT_S2_S2_
FNDA:0,_ZSt12__niter_baseISt19_Bit_const_iteratorET_S1_
FNDA:0,_ZSt12__niter_baseIPmET_S1_
FNDA:0,_ZSt12__niter_baseISt13_Bit_iteratorET_S1_
FNDA:0,_ZNSt11__copy_moveILb0ELb0ESt26random_access_iterator_tagE8__copy_mISt19_Bit_const_iteratorSt13_Bit_iteratorEET0_T_S6_S5_
FNDA:108,_ZNSt11__copy_moveILb0ELb0ESt26random_access_iterator_tagE8__copy_mISt13_Bit_iteratorS3_EET0_T_S5_S4_
FNDA:0,_ZNSt11__copy_moveILb0ELb1ESt26random_access_iterator_tagE8__copy_mImEEPT_PKS3_S6_S4_
FNDA:0,_ZSt13__copy_move_aILb0ESt19_Bit_const_iteratorSt13_Bit_iteratorET1_T0_S3_S2_
FNDA:0,_ZSt13__copy_move_aILb0EPmS0_ET1_T0_S2_S1_
FNDA:108,_ZSt13__copy_move_aILb0ESt13_Bit_iteratorS0_ET1_T0_S2_S1_
FNDA:0,_ZSt14__copy_move_a2ILb0ESt19_Bit_const_iteratorSt13_Bit_iteratorET1_T0_S3_S2_
FNDA:0,_ZSt14__copy_move_a2ILb0EPmS0_ET1_T0_S2_S1_
FNDA:108,_ZSt14__copy_move_a2ILb0ESt13_Bit_iteratorS0_ET1_T0_S2_S1_
FNDA:0,_ZSt4copyISt19_Bit_const_iteratorSt13_Bit_iteratorET0_T_S3_S2_
FNDA:0,_ZSt4copyIPmS0_ET0_T_S2_S1_
FNDA:108,_ZSt4copyISt13_Bit_iteratorS0_ET0_T_S2_S1_
FNDA:0,_ZNSt20__copy_move_backwardILb0ELb0ESt26random_access_iterator_tagE13__copy_move_bISt13_Bit_iteratorS3_EET0_T_S5_S4_
FNDA:0,_ZSt22__copy_move_backward_aILb0ESt13_Bit_iteratorS0_ET1_T0_S2_S1_
FNDA:0,_ZSt23__copy_move_backward_a2ILb0ESt13_Bit_iteratorS0_ET1_T0_S2_S1_
FNDA:0,_ZSt13copy_backwardISt13_Bit_iteratorS0_ET0_T_S2_S1_
FNF:20
FNH:4
DA:219,0
DA:224,0
DA:225,0
DA:226,0
DA:277,0
DA:278,0
DA:279,0
DA:280,0
DA:281,0
DA:282,0
DA:283,0
DA:284,0
DA:325,108
DA:328,108
DA:330,0
DA:331,0
DA:332,0
DA:334,108
DA:336,0
DA:339,0
DA:341,0
DA:342,0
DA:343,0
DA:345,0
DA:347,108
DA:350,108
DA:352,0
DA:353,0
DA:354,0
DA:356,108
DA:385,0
DA:394,0
DA:395,0
DA:396,0
DA:397,0
DA:403,108
DA:408,108
DA:414,108
DA:416,0
DA:421,0
DA:427,0
DA:429,0
DA:434,0
DA:440,0
DA:442,108
DA:447,108
DA:453,108
DA:487,108
DA:489,108
DA:491,108
DA:493,0
DA:495,0
DA:497,0
DA:499,0
DA:501,0
DA:503,0
DA:505,108
DA:507,108
DA:509,108
DA:531,108
DA:540,108
DA:541,108
DA:543,0
DA:552,0
DA:553,0
DA:555,0
DA:564,0
DA:565,0
DA:567,108
DA:576,108
DA:577,108
DA:650,0
DA:653,0
DA:654,0
DA:655,0
DA:698,0
DA:703,0
DA:709,0
DA:711,0
DA:716,0
DA:719,0
DA:720,0
DA:743,0
DA:754,0
DA:755,0
LF:85
LH:24
end_of_record
SF:/usr/include/c++/8/bits/stl_bvector.h
FN:77,_ZNSt14_Bit_referenceC2EPmm
FN:82,_ZNKSt14_Bit_referencecvbEv
FN:86,_ZNSt14_Bit_referenceaSEb
FN:96,_ZNSt14_Bit_referenceaSERKS_
FN:144,_ZNSt18_Bit_iterator_baseC2EPmj
FN:148,_ZNSt18_Bit_iterator_base10_M_bump_upEv
FN:158,_ZNSt18_Bit_iterator_base12_M_bump_downEv
FN:168,_ZNSt18_Bit_iterator_base7_M_incrEl
FN:210,_ZStmiRKSt18_Bit_iterator_baseS1_
FN:222,_ZNSt13_Bit_iteratorC2Ev
FN:224,_ZNSt13_Bit_iteratorC2EPmj
FN:232,_ZNKSt13_Bit_iteratordeEv
FN:236,_ZNSt13_Bit_iteratorppEv
FN:243,_ZNSt13_Bit_iteratorppEi
FN:251,_ZNSt13_Bit_iteratormmEv
FN:266,_ZNSt13_Bit_iteratorpLEl
FN:280,_ZNKSt13_Bit_iteratorplEl
FN:311,_ZNSt19_Bit_const_iteratorC2EPmj
FN:314,_ZNSt19_Bit_const_iteratorC2ERKSt13_Bit_iterator
FN:322,_ZNKSt19_Bit_const_iteratordeEv
FN:326,_ZNSt19_Bit_const_iteratorppEv
FN:440,_ZNSt13_Bvector_baseISaIbEE18_Bvector_impl_dataC2Ev
FN:461,_ZNSt13_Bvector_baseISaIbEE18_Bvector_impl_data8_M_resetEv
FN:472,_ZNSt13_Bvector_baseISaIbEE13_Bvector_implC2Ev
FN:477,_ZNSt13_Bvector_baseISaIbEE13_Bvector_implC2ERKSaImE
FN:486,_ZNKSt13_Bvector_baseISaIbEE13_Bvector_impl11_M_end_addrEv
FN:502,_ZNKSt13_Bvector_baseISaIbEE20_M_get_Bit_allocatorEv
FN:510,_ZNSt13_Bvector_baseISaIbEEC2Ev
FN:515,_ZNSt13_Bvector_baseISaIbEEC2ERKS0_
FN:522,_ZNSt13_Bvector_baseISaIbEED2Ev
FN:529,_ZNSt13_Bvector_baseISaIbEE11_M_allocateEm
FN:533,_ZNSt13_Bvector_baseISaIbEE13_M_deallocateEv
FN:552,_ZNSt13_Bvector_baseISaIbEE8_S_nwordEm
FN:624,_ZNSt6vectorIbSaIbEEC2Ev
FN:652,_ZNSt6vectorIbSaIbEEC2ERKS1_
FN:710,_ZNSt6vectorIbSaIbEED2Ev
FN:807,_ZNSt6vectorIbSaIbEE5beginEv
FN:811,_ZNKSt6vectorIbSaIbEE5beginEv
FN:815,_ZNSt6vectorIbSaIbEE3endEv
FN:819,_ZNKSt6vectorIbSaIbEE3endEv
FN:857,_ZNKSt6vectorIbSaIbEE4sizeEv
FN:861,_ZNKSt6vectorIbSaIbEE8max_sizeEv
FN:949,_ZNSt6vectorIbSaIbEE9push_backEb
FN:1107,_ZNSt6vectorIbSaIbEE15_M_copy_alignedESt19_Bit_const_iteratorS2_St13_Bit_iterator
FN:1116,_ZNSt6vectorIbSaIbEE13_M_initializeEm
FN:1291,_ZNKSt6vectorIbSaIbEE12_M_check_lenEmPKc
FNDA:0,_ZNSt14_Bit_referenceC2EPmm
FNDA:0,_ZNKSt14_Bit_referencecvbEv
FNDA:0,_ZNSt14_Bit_referenceaSEb
FNDA:0,_ZNSt14_Bit_referenceaSERKS_
FNDA:0,_ZNSt18_Bit_iterator_baseC2EPmj
FNDA:0,_ZNSt18_Bit_iterator_base10_M_bump_upEv
FNDA:0,_ZNSt18_Bit_iterator_base12_M_bump_downEv
FNDA:0,_ZNSt18_Bit_iterator_base7_M_incrEl
FNDA:0,_ZStmiRKSt18_Bit_iterator_baseS1_
FNDA:0,_ZNSt13_Bit_iteratorC2Ev
FNDA:0,_ZNSt13_Bit_iteratorC2EPmj
FNDA:0,_ZNKSt13_Bit_iteratordeEv
FNDA:0,_ZNSt13_Bit_iteratorppEv
FNDA:864,_ZNSt13_Bit_iteratorppEi
FNDA:0,_ZNSt13_Bit_iteratormmEv
FNDA:0,_ZNSt13_Bit_iteratorpLEl
FNDA:0,_ZNKSt13_Bit_iteratorplEl
FNDA:0,_ZNSt19_Bit_const_iteratorC2EPmj
FNDA:0,_ZNSt19_Bit_const_iteratorC2ERKSt13_Bit_iterator
FNDA:0,_ZNKSt19_Bit_const_iteratordeEv
FNDA:0,_ZNSt19_Bit_const_iteratorppEv
FNDA:0,_ZNSt13_Bvector_baseISaIbEE18_Bvector_impl_dataC2Ev
FNDA:0,_ZNSt13_Bvector_baseISaIbEE18_Bvector_impl_data8_M_resetEv
FNDA:108,_ZNSt13_Bvector_baseISaIbEE13_Bvector_implC2Ev
FNDA:0,_ZNSt13_Bvector_baseISaIbEE13_Bvector_implC2ERKSaImE
FNDA:0,_ZNKSt13_Bvector_baseISaIbEE13_Bvector_impl11_M_end_addrEv
FNDA:0,_ZNKSt13_Bvector_baseISaIbEE20_M_get_Bit_allocatorEv
FNDA:108,_ZNSt13_Bvector_baseISaIbEEC2Ev
FNDA:0,_ZNSt13_Bvector_baseISaIbEEC2ERKS0_
FNDA:0,_ZNSt13_Bvector_baseISaIbEED2Ev
FNDA:0,_ZNSt13_Bvector_baseISaIbEE11_M_allocateEm
FNDA:0,_ZNSt13_Bvector_baseISaIbEE13_M_deallocateEv
FNDA:0,_ZNSt13_Bvector_baseISaIbEE8_S_nwordEm
FNDA:108,_ZNSt6vectorIbSaIbEEC2Ev
FNDA:0,_ZNSt6vectorIbSaIbEEC2ERKS1_
FNDA:0,_ZNSt6vectorIbSaIbEED2Ev
FNDA:0,_ZNSt6vectorIbSaIbEE5beginEv
FNDA:0,_ZNKSt6vectorIbSaIbEE5beginEv
FNDA:216,_ZNSt6vectorIbSaIbEE3endEv
FNDA:0,_ZNKSt6vectorIbSaIbEE3endEv
FNDA:0,_ZNKSt6vectorIbSaIbEE4sizeEv
FNDA:216,_ZNKSt6vectorIbSaIbEE8max_sizeEv
FNDA:864,_ZNSt6vectorIbSaIbEE9push_backEb
FNDA:0,_ZNSt6vectorIbSaIbEE15_M_copy_alignedESt19_Bit_const_iteratorS2_St13_Bit_iterator
FNDA:0,_ZNSt6vectorIbSaIbEE13_M_initializeEm
FNDA:108,_ZNKSt6vectorIbSaIbEE12_M_check_lenEmPKc
FNF:46
FNH:8
DA:77,0
DA:78,0
DA:82,0
DA:83,0
DA:86,0
DA:88,0
DA:89,0
DA:91,0
DA:92,0
DA:96,0
DA:97,0
DA:144,0
DA:145,0
DA:148,0
DA:150,0
DA:152,0
DA:153,0
DA:155,0
DA:158,0
DA:160,0
DA:162,0
DA:163,0
DA:165,0
DA:168,0
DA:170,0
DA:171,0
DA:172,0
DA:173,0
DA:175,0
DA:176,0
DA:178,0
DA:179,0
DA:210,0
DA:212,0
DA:213,0
DA:222,0
DA:224,0
DA:225,0
DA:232,0
DA:233,0
DA:236,0
DA:238,0
DA:239,0
DA:243,864
DA:245,864
DA:246,864
DA:247,864
DA:251,0
DA:253,0
DA:254,0
DA:266,0
DA:268,0
DA:269,0
DA:280,0
DA:282,0
DA:283,0
DA:311,0
DA:312,0
DA:314,0
DA:315,0
DA:322,0
DA:323,0
DA:326,0
DA:328,0
DA:329,0
DA:440,0
DA:441,0
DA:442,0
DA:461,0
DA:463,0
DA:464,0
DA:465,0
DA:472,108
DA:474,108
DA:475,108
DA:477,0
DA:478,0
DA:479,0
DA:486,0
DA:488,0
DA:489,0
DA:490,0
DA:502,0
DA:503,0
DA:510,108
DA:515,0
DA:516,0
DA:522,0
DA:523,0
DA:529,0
DA:530,0
DA:533,0
DA:535,0
DA:537,0
DA:538,0
DA:539,0
DA:541,0
DA:543,0
DA:552,0
DA:553,0
DA:624,108
DA:652,0
DA:653,0
DA:655,0
DA:656,0
DA:657,0
DA:710,0
DA:807,0
DA:808,0
DA:811,0
DA:812,0
DA:815,216
DA:816,216
DA:819,0
DA:820,0
DA:857,0
DA:858,0
DA:861,216
DA:863,216
DA:867,216
DA:869,216
DA:949,864
DA:951,864
DA:952,756
DA:954,108
DA:955,864
DA:1107,0
DA:1110,0
DA:1111,0
DA:1112,0
DA:1116,0
DA:1118,0
DA:1120,0
DA:1121,0
DA:1122,0
DA:1126,0
DA:1127,0
DA:1129,0
DA:1131,0
DA:1291,108
DA:1293,108
DA:1294,0
DA:1296,108
DA:1297,108
LF:144
LH:24
end_of_record
SF:/usr/include/c++/8/bits/stl_construct.h
FN:74,_ZSt10_ConstructIN4core5BlockEJRKS1_EEvPT_DpOT0_
FN:74,_ZSt10_ConstructIN4core5GroupEJRKS1_EEvPT_DpOT0_
FN:74,_ZSt10_ConstructINSt7__cxx1112basic_stringIcSt11char_traitsIcESaIcEEEJRKS5_EEvPT_DpOT0_
FN:74,_ZSt10_ConstructIN4core4ByteEJRKS1_EEvPT_DpOT0_
FN:74,_ZSt10_ConstructINSt7__cxx1112basic_stringIcSt11char_traitsIcESaIcEEEJS5_EEvPT_DpOT0_
FN:97,_ZSt8_DestroyINSt7__cxx1112basic_stringIcSt11char_traitsIcESaIcEEEEvPT_
FN:97,_ZSt8_DestroyIN4core4ByteEEvPT_
FN:97,_ZSt8_DestroyIN4core5BlockEEvPT_
FN:97,_ZSt8_DestroyIN4core5GroupEEvPT_
FN:105,_ZNSt12_Destroy_auxILb0EE9__destroyIPN4core5BlockEEEvT_S5_
FN:105,_ZNSt12_Destroy_auxILb0EE9__destroyIPN4core4ByteEEEvT_S5_
FN:105,_ZNSt12_Destroy_auxILb0EE9__destroyIPNSt7__cxx1112basic_stringIcSt11char_traitsIcESaIcEEEEEvT_S9_
FN:105,_ZNSt12_Destroy_auxILb0EE9__destroyIPN4core5GroupEEEvT_S5_
FN:127,_ZSt8_DestroyIPN4core4ByteEEvT_S3_
FN:127,_ZSt8_DestroyIPNSt7__cxx1112basic_stringIcSt11char_traitsIcESaIcEEEEvT_S7_
FN:127,_ZSt8_DestroyIPN4core5GroupEEvT_S3_
FN:127,_ZSt8_DestroyIPN4core5BlockEEvT_S3_
FN:203,_ZSt8_DestroyIPN4core4ByteES1_EvT_S3_RSaIT0_E
FN:203,_ZSt8_DestroyIPNSt7__cxx1112basic_stringIcSt11char_traitsIcESaIcEEES5_EvT_S7_RSaIT0_E
FN:203,_ZSt8_DestroyIPN4core5BlockES1_EvT_S3_RSaIT0_E
FN:203,_ZSt8_DestroyIPN4core5GroupES1_EvT_S3_RSaIT0_E
FNDA:0,_ZSt10_ConstructINSt7__cxx1112basic_stringIcSt11char_traitsIcESaIcEEEJRKS5_EEvPT_DpOT0_
FNDA:280,_ZSt10_ConstructINSt7__cxx1112basic_stringIcSt11char_traitsIcESaIcEEEJS5_EEvPT_DpOT0_
FNDA:7,_ZSt10_ConstructIN4core5BlockEJRKS1_EEvPT_DpOT0_
FNDA:0,_ZSt10_ConstructIN4core5GroupEJRKS1_EEvPT_DpOT0_
FNDA:0,_ZSt10_ConstructIN4core4ByteEJRKS1_EEvPT_DpOT0_
FNDA:0,_ZSt8_DestroyIN4core5BlockEEvPT_
FNDA:0,_ZSt8_DestroyINSt7__cxx1112basic_stringIcSt11char_traitsIcESaIcEEEEvPT_
FNDA:0,_ZSt8_DestroyIN4core4ByteEEvPT_
FNDA:0,_ZSt8_DestroyIN4core5GroupEEvPT_
FNDA:0,_ZNSt12_Destroy_auxILb0EE9__destroyIPN4core5BlockEEEvT_S5_
FNDA:0,_ZNSt12_Destroy_auxILb0EE9__destroyIPNSt7__cxx1112basic_stringIcSt11char_traitsIcESaIcEEEEEvT_S9_
FNDA:0,_ZNSt12_Destroy_auxILb0EE9__destroyIPN4core4ByteEEEvT_S5_
FNDA:0,_ZNSt12_Destroy_auxILb0EE9__destroyIPN4core5GroupEEEvT_S5_
FNDA:0,_ZSt8_DestroyIPN4core5BlockEEvT_S3_
FNDA:0,_ZSt8_DestroyIPNSt7__cxx1112basic_stringIcSt11char_traitsIcESaIcEEEEvT_S7_
FNDA:0,_ZSt8_DestroyIPN4core4ByteEEvT_S3_
FNDA:0,_ZSt8_DestroyIPN4core5GroupEEvT_S3_
FNDA:0,_ZSt8_DestroyIPN4core5BlockES1_EvT_S3_RSaIT0_E
FNDA:0,_ZSt8_DestroyIPNSt7__cxx1112basic_stringIcSt11char_traitsIcESaIcEEES5_EvT_S7_RSaIT0_E
FNDA:0,_ZSt8_DestroyIPN4core4ByteES1_EvT_S3_RSaIT0_E
FNDA:0,_ZSt8_DestroyIPN4core5GroupES1_EvT_S3_RSaIT0_E
FNF:21
FNH:2
DA:74,287
DA:75,287
DA:76,0
DA:77,0
DA:78,280
DA:79,280
DA:80,7
DA:81,7
DA:82,0
DA:83,0
DA:84,0
DA:85,0
DA:107,0
DA:108,0
DA:109,0
DA:110,0
DA:111,0
DA:112,0
DA:113,0
DA:114,0
DA:115,0
DA:116,0
DA:123,0
DA:125,0
DA:126,0
DA:127,0
DA:128,0
DA:130,0
DA:131,0
DA:132,0
DA:133,0
DA:135,0
DA:136,0
DA:137,0
DA:138,0
DA:140,0
DA:141,0
DA:142,0
DA:143,0
DA:145,0
DA:146,0
DA:147,0
DA:165,0
DA:175,0
DA:176,0
DA:177,0
DA:187,0
DA:188,0
DA:189,0
DA:199,0
DA:200,0
DA:201,0
DA:211,0
DA:212,0
DA:213,0
DA:223,0
DA:224,0
DA:289,0
DA:292,0
DA:293,0
DA:294,0
DA:297,0
DA:298,0
DA:299,0
DA:302,0
DA:303,0
DA:304,0
DA:307,0
DA:308,0
DA:309,0
DA:312,0
DA:313,0
LF:72
LH:6
end_of_record
SF:/usr/include/c++/8/bits/stl_function.h
FN:427,_ZNKSt4lessIPKcEclES1_S1_
FNDA:0,_ZNKSt4lessIPKcEclES1_S1_
FNF:1
FNH:0
DA:427,0
DA:431,0
LF:2
LH:0
end_of_record
SF:/usr/include/c++/8/bits/stl_iterator.h
FN:783,_ZN9__gnu_cxx17__normal_iteratorIPNSt7__cxx1112basic_stringIcSt11char_traitsIcESaIcEEESt6vectorIS6_SaIS6_EEEC2ERKS7_
FN:783,_ZN9__gnu_cxx17__normal_iteratorIPN4core5GroupESt6vectorIS2_SaIS2_EEEC2ERKS3_
FN:783,_ZN9__gnu_cxx17__normal_iteratorIPKN4core5GroupESt6vectorIS2_SaIS2_EEEC2ERKS4_
FN:783,_ZN9__gnu_cxx17__normal_iteratorIPN4core5BlockESt6vectorIS2_SaIS2_EEEC2ERKS3_
FN:783,_ZN9__gnu_cxx17__normal_iteratorIPN4core4ByteESt6vectorIS2_SaIS2_EEEC2ERKS3_
FN:783,_ZN9__gnu_cxx17__normal_iteratorIPKN4core4ByteESt6vectorIS2_SaIS2_EEEC2ERKS4_
FN:783,_ZN9__gnu_cxx17__normal_iteratorIPKNSt7__cxx1112basic_stringIcSt11char_traitsIcESaIcEEESt6vectorIS6_SaIS6_EEEC2ERKS8_
FN:796,_ZNK9__gnu_cxx17__normal_iteratorIPKN4core4ByteESt6vectorIS2_SaIS2_EEEdeEv
FN:796,_ZNK9__gnu_cxx17__normal_iteratorIPKN4core5GroupESt6vectorIS2_SaIS2_EEEdeEv
FN:796,_ZNK9__gnu_cxx17__normal_iteratorIPKNSt7__cxx1112basic_stringIcSt11char_traitsIcESaIcEEESt6vectorIS6_SaIS6_EEEdeEv
FN:796,_ZNK9__gnu_cxx17__normal_iteratorIPNSt7__cxx1112basic_stringIcSt11char_traitsIcESaIcEEESt6vectorIS6_SaIS6_EEEdeEv
FN:804,_ZN9__gnu_cxx17__normal_iteratorIPKN4core5GroupESt6vectorIS2_SaIS2_EEEppEv
FN:804,_ZN9__gnu_cxx17__normal_iteratorIPKNSt7__cxx1112basic_stringIcSt11char_traitsIcESaIcEEESt6vectorIS6_SaIS6_EEEppEv
FN:804,_ZN9__gnu_cxx17__normal_iteratorIPKN4core4ByteESt6vectorIS2_SaIS2_EEEppEv
FN:844,_ZNK9__gnu_cxx17__normal_iteratorIPNSt7__cxx1112basic_stringIcSt11char_traitsIcESaIcEEESt6vectorIS6_SaIS6_EEEmiEl
FN:848,_ZNK9__gnu_cxx17__normal_iteratorIPN4core5GroupESt6vectorIS2_SaIS2_EEE4baseEv
FN:848,_ZNK9__gnu_cxx17__normal_iteratorIPKN4core5GroupESt6vectorIS2_SaIS2_EEE4baseEv
FN:848,_ZNK9__gnu_cxx17__normal_iteratorIPKN4core4ByteESt6vectorIS2_SaIS2_EEE4baseEv
FN:848,_ZNK9__gnu_cxx17__normal_iteratorIPN4core5BlockESt6vectorIS2_SaIS2_EEE4baseEv
FN:848,_ZNK9__gnu_cxx17__normal_iteratorIPNSt7__cxx1112basic_stringIcSt11char_traitsIcESaIcEEESt6vectorIS6_SaIS6_EEE4baseEv
FN:848,_ZNK9__gnu_cxx17__normal_iteratorIPN4core4ByteESt6vectorIS2_SaIS2_EEE4baseEv
FN:848,_ZNK9__gnu_cxx17__normal_iteratorIPKNSt7__cxx1112basic_stringIcSt11char_traitsIcESaIcEEESt6vectorIS6_SaIS6_EEE4baseEv
FN:884,_ZN9__gnu_cxxneIPKNSt7__cxx1112basic_stringIcSt11char_traitsIcESaIcEEESt6vectorIS6_SaIS6_EEEEbRKNS_17__normal_iteratorIT_T0_EESH_
FN:884,_ZN9__gnu_cxxneIPKN4core5GroupESt6vectorIS2_SaIS2_EEEEbRKNS_17__normal_iteratorIT_T0_EESD_
FN:884,_ZN9__gnu_cxxneIPKN4core4ByteESt6vectorIS2_SaIS2_EEEEbRKNS_17__normal_iteratorIT_T0_EESD_
FN:966,_ZN9__gnu_cxxmiIPN4core5BlockESt6vectorIS2_SaIS2_EEEENS_17__normal_iteratorIT_T0_E15difference_typeERKSA_SD_
FN:966,_ZN9__gnu_cxxmiIPNSt7__cxx1112basic_stringIcSt11char_traitsIcESaIcEEESt6vectorIS6_SaIS6_EEEENS_17__normal_iteratorIT_T0_E15difference_typeERKSE_SH_
FN:966,_ZN9__gnu_cxxmiIPN4core4ByteESt6vectorIS2_SaIS2_EEEENS_17__normal_iteratorIT_T0_E15difference_typeERKSA_SD_
FN:966,_ZN9__gnu_cxxmiIPN4core5GroupESt6vectorIS2_SaIS2_EEEENS_17__normal_iteratorIT_T0_E15difference_typeERKSA_SD_
FN:1033,_ZNSt13move_iteratorIPNSt7__cxx1112basic_stringIcSt11char_traitsIcESaIcEEEEC2ES6_
FN:1042,_ZNKSt13move_iteratorIPNSt7__cxx1112basic_stringIcSt11char_traitsIcESaIcEEEE4baseEv
FN:1046,_ZNKSt13move_iteratorIPNSt7__cxx1112basic_stringIcSt11char_traitsIcESaIcEEEEdeEv
FN:1054,_ZNSt13move_iteratorIPNSt7__cxx1112basic_stringIcSt11char_traitsIcESaIcEEEEppEv
FN:1121,_ZSteqIPNSt7__cxx1112basic_stringIcSt11char_traitsIcESaIcEEEEbRKSt13move_iteratorIT_ESB_
FN:1133,_ZStneIPNSt7__cxx1112basic_stringIcSt11char_traitsIcESaIcEEEEbRKSt13move_iteratorIT_ESB_
FN:1218,_ZSt32__make_move_if_noexcept_iteratorINSt7__cxx1112basic_stringIcSt11char_traitsIcESaIcEEESt13move_iteratorIPS5_EET0_PT_
FN:1218,_ZSt32__make_move_if_noexcept_iteratorIN4core5GroupEPKS1_ET0_PT_
FN:1218,_ZSt32__make_move_if_noexcept_iteratorIN4core4ByteEPKS1_ET0_PT_
FN:1218,_ZSt32__make_move_if_noexcept_iteratorIN4core5BlockEPKS1_ET0_PT_
FNDA:0,_ZN9__gnu_cxx17__normal_iteratorIPKN4core5GroupESt6vectorIS2_SaIS2_EEEC2ERKS4_
FNDA:0,_ZN9__gnu_cxx17__normal_iteratorIPKN4core4ByteESt6vectorIS2_SaIS2_EEEC2ERKS4_
FNDA:0,_ZN9__gnu_cxx17__normal_iteratorIPKNSt7__cxx1112basic_stringIcSt11char_traitsIcESaIcEEESt6vectorIS6_SaIS6_EEEC2ERKS8_
FNDA:0,_ZN9__gnu_cxx17__normal_iteratorIPNSt7__cxx1112basic_stringIcSt11char_traitsIcESaIcEEESt6vectorIS6_SaIS6_EEEC2ERKS7_
FNDA:0,_ZN9__gnu_cxx17__normal_iteratorIPN4core5BlockESt6vectorIS2_SaIS2_EEEC2ERKS3_
FNDA:0,_ZN9__gnu_cxx17__normal_iteratorIPN4core5GroupESt6vectorIS2_SaIS2_EEEC2ERKS3_
FNDA:0,_ZN9__gnu_cxx17__normal_iteratorIPN4core4ByteESt6vectorIS2_SaIS2_EEEC2ERKS3_
FNDA:0,_ZNK9__gnu_cxx17__normal_iteratorIPKN4core5GroupESt6vectorIS2_SaIS2_EEEdeEv
FNDA:0,_ZNK9__gnu_cxx17__normal_iteratorIPKN4core4ByteESt6vectorIS2_SaIS2_EEEdeEv
FNDA:0,_ZNK9__gnu_cxx17__normal_iteratorIPKNSt7__cxx1112basic_stringIcSt11char_traitsIcESaIcEEESt6vectorIS6_SaIS6_EEEdeEv
FNDA:0,_ZNK9__gnu_cxx17__normal_iteratorIPNSt7__cxx1112basic_stringIcSt11char_traitsIcESaIcEEESt6vectorIS6_SaIS6_EEEdeEv
FNDA:0,_ZN9__gnu_cxx17__normal_iteratorIPKN4core5GroupESt6vectorIS2_SaIS2_EEEppEv
FNDA:0,_ZN9__gnu_cxx17__normal_iteratorIPKN4core4ByteESt6vectorIS2_SaIS2_EEEppEv
FNDA:0,_ZN9__gnu_cxx17__normal_iteratorIPKNSt7__cxx1112basic_stringIcSt11char_traitsIcESaIcEEESt6vectorIS6_SaIS6_EEEppEv
FNDA:320,_ZNK9__gnu_cxx17__normal_iteratorIPNSt7__cxx1112basic_stringIcSt11char_traitsIcESaIcEEESt6vectorIS6_SaIS6_EEEmiEl
FNDA:0,_ZNK9__gnu_cxx17__normal_iteratorIPKN4core5GroupESt6vectorIS2_SaIS2_EEE4baseEv
FNDA:0,_ZNK9__gnu_cxx17__normal_iteratorIPKN4core4ByteESt6vectorIS2_SaIS2_EEE4baseEv
FNDA:0,_ZNK9__gnu_cxx17__normal_iteratorIPKNSt7__cxx1112basic_stringIcSt11char_traitsIcESaIcEEESt6vectorIS6_SaIS6_EEE4baseEv
FNDA:0,_ZNK9__gnu_cxx17__normal_iteratorIPNSt7__cxx1112basic_stringIcSt11char_traitsIcESaIcEEESt6vectorIS6_SaIS6_EEE4baseEv
FNDA:0,_ZNK9__gnu_cxx17__normal_iteratorIPN4core5BlockESt6vectorIS2_SaIS2_EEE4baseEv
FNDA:0,_ZNK9__gnu_cxx17__normal_iteratorIPN4core5GroupESt6vectorIS2_SaIS2_EEE4baseEv
FNDA:0,_ZNK9__gnu_cxx17__normal_iteratorIPN4core4ByteESt6vectorIS2_SaIS2_EEE4baseEv
FNDA:0,_ZN9__gnu_cxxneIPKN4core5GroupESt6vectorIS2_SaIS2_EEEEbRKNS_17__normal_iteratorIT_T0_EESD_
FNDA:0,_ZN9__gnu_cxxneIPKN4core4ByteESt6vectorIS2_SaIS2_EEEEbRKNS_17__normal_iteratorIT_T0_EESD_
FNDA:0,_ZN9__gnu_cxxneIPKNSt7__cxx1112basic_stringIcSt11char_traitsIcESaIcEEESt6vectorIS6_SaIS6_EEEEbRKNS_17__normal_iteratorIT_T0_EESH_
FNDA:160,_ZN9__gnu_cxxmiIPNSt7__cxx1112basic_stringIcSt11char_traitsIcESaIcEEESt6vectorIS6_SaIS6_EEEENS_17__normal_iteratorIT_T0_E15difference_typeERKSE_SH_
FNDA:0,_ZN9__gnu_cxxmiIPN4core5BlockESt6vectorIS2_SaIS2_EEEENS_17__normal_iteratorIT_T0_E15difference_typeERKSA_SD_
FNDA:22,_ZN9__gnu_cxxmiIPN4core5GroupESt6vectorIS2_SaIS2_EEEENS_17__normal_iteratorIT_T0_E15difference_typeERKSA_SD_
FNDA:93,_ZN9__gnu_cxxmiIPN4core4ByteESt6vectorIS2_SaIS2_EEEENS_17__normal_iteratorIT_T0_E15difference_typeERKSA_SD_
FNDA:640,_ZNSt13move_iteratorIPNSt7__cxx1112basic_stringIcSt11char_traitsIcESaIcEEEEC2ES6_
FNDA:1200,_ZNKSt13move_iteratorIPNSt7__cxx1112basic_stringIcSt11char_traitsIcESaIcEEEE4baseEv
FNDA:280,_ZNKSt13move_iteratorIPNSt7__cxx1112basic_stringIcSt11char_traitsIcESaIcEEEEdeEv
FNDA:280,_ZNSt13move_iteratorIPNSt7__cxx1112basic_stringIcSt11char_traitsIcESaIcEEEEppEv
FNDA:600,_ZSteqIPNSt7__cxx1112basic_stringIcSt11char_traitsIcESaIcEEEEbRKSt13move_iteratorIT_ESB_
FNDA:600,_ZStneIPNSt7__cxx1112basic_stringIcSt11char_traitsIcESaIcEEEEbRKSt13move_iteratorIT_ESB_
FNDA:640,_ZSt32__make_move_if_noexcept_iteratorINSt7__cxx1112basic_stringIcSt11char_traitsIcESaIcEEESt13move_iteratorIPS5_EET0_PT_
FNDA:16,_ZSt32__make_move_if_noexcept_iteratorIN4core5BlockEPKS1_ET0_PT_
FNDA:88,_ZSt32__make_move_if_noexcept_iteratorIN4core5GroupEPKS1_ET0_PT_
FNDA:372,_ZSt32__make_move_if_noexcept_iteratorIN4core4ByteEPKS1_ET0_PT_
FNF:39
FNH:14
DA:783,0
DA:784,0
DA:785,0
DA:786,0
DA:787,0
DA:788,0
DA:789,0
DA:790,0
DA:791,0
DA:792,0
DA:793,0
DA:794,0
DA:795,0
DA:796,0
DA:797,0
DA:798,0
DA:810,0
DA:811,0
DA:812,0
DA:813,0
DA:814,0
DA:815,0
DA:816,0
DA:817,0
DA:818,0
DA:819,0
DA:826,0
DA:828,0
DA:829,0
DA:831,0
DA:833,0
DA:834,0
DA:836,0
DA:838,0
DA:839,0
DA:841,0
DA:843,0
DA:844,0
DA:881,320
DA:882,320
DA:885,0
DA:886,0
DA:887,0
DA:888,0
DA:889,0
DA:890,0
DA:891,0
DA:892,0
DA:893,0
DA:894,0
DA:895,0
DA:896,0
DA:897,0
DA:898,0
DA:899,0
DA:900,0
DA:935,0
DA:938,0
DA:939,0
DA:942,0
DA:943,0
DA:946,0
DA:947,0
DA:950,0
DA:1029,275
DA:1032,275
DA:1033,160
DA:1036,160
DA:1037,0
DA:1040,0
DA:1041,22
DA:1044,22
DA:1045,93
DA:1048,93
DA:1112,640
DA:1113,640
DA:1121,1200
DA:1122,1200
DA:1125,280
DA:1126,280
DA:1133,280
DA:1135,280
DA:1136,280
DA:1200,600
DA:1202,600
DA:1212,600
DA:1214,600
DA:1297,1116
DA:1298,1116
DA:1299,640
DA:1300,640
DA:1301,16
DA:1302,16
DA:1303,88
DA:1304,88
DA:1305,372
DA:1306,372
LF:97
LH:33
end_of_record
SF:/usr/include/c++/8/bits/stl_iterator_base_funcs.h
FN:98,_ZSt10__distanceIPcENSt15iterator_traitsIT_E15difference_typeES2_S2_St26random_access_iterator_tag
FN:138,_ZSt8distanceIPcENSt15iterator_traitsIT_E15difference_typeES2_S2_
FNDA:0,_ZSt10__distanceIPcENSt15iterator_traitsIT_E15difference_typeES2_S2_St26random_access_iterator_tag
FNDA:0,_ZSt8distanceIPcENSt15iterator_traitsIT_E15difference_typeES2_S2_
FNF:2
FNH:0
DA:98,0
DA:104,0
DA:138,0
DA:141,0
DA:142,0
LF:5
LH:0
end_of_record
SF:/usr/include/c++/8/bits/stl_iterator_base_types.h
FN:205,_ZSt19__iterator_categoryIPcENSt15iterator_traitsIT_E17iterator_categoryERKS2_
FNDA:0,_ZSt19__iterator_categoryIPcENSt15iterator_traitsIT_E17iterator_categoryERKS2_
FNF:1
FNH:0
DA:205,0
DA:206,0
LF:2
LH:0
end_of_record
SF:/usr/include/c++/8/bits/stl_uninitialized.h
FN:76,_ZNSt20__uninitialized_copyILb0EE13__uninit_copyIN9__gnu_cxx17__normal_iteratorIPKNSt7__cxx1112basic_stringIcSt11char_traitsIcESaIcEEESt6vectorIS9_SaIS9_EEEEPS9_EET0_T_SI_SH_
FN:76,_ZNSt20__uninitialized_copyILb0EE13__uninit_copyIN9__gnu_cxx17__normal_iteratorIPKN4core5GroupESt6vectorIS5_SaIS5_EEEEPS5_EET0_T_SE_SD_
FN:76,_ZNSt20__uninitialized_copyILb0EE13__uninit_copyIN9__gnu_cxx17__normal_iteratorIPKN4core4ByteESt6vectorIS5_SaIS5_EEEEPS5_EET0_T_SE_SD_
FN:76,_ZNSt20__uninitialized_copyILb0EE13__uninit_copyIPKN4core5GroupEPS3_EET0_T_S8_S7_
FN:76,_ZNSt20__uninitialized_copyILb0EE13__uninit_copyIPKN4core4ByteEPS3_EET0_T_S8_S7_
FN:76,_ZNSt20__uninitialized_copyILb0EE13__uninit_copyIPKN4core5BlockEPS3_EET0_T_S8_S7_
FN:76,_ZNSt20__uninitialized_copyILb0EE13__uninit_copyISt13move_iteratorIPNSt7__cxx1112basic_stringIcSt11char_traitsIcESaIcEEEES9_EET0_T_SC_SB_
FN:115,_ZSt18uninitialized_copyIN9__gnu_cxx17__normal_iteratorIPKN4core4ByteESt6vectorIS3_SaIS3_EEEEPS3_ET0_T_SC_SB_
FN:115,_ZSt18uninitialized_copyISt13move_iteratorIPNSt7__cxx1112basic_stringIcSt11char_traitsIcESaIcEEEES7_ET0_T_SA_S9_
FN:115,_ZSt18uninitialized_copyIPKN4core5BlockEPS1_ET0_T_S6_S5_
FN:115,_ZSt18uninitialized_copyIPKN4core5GroupEPS1_ET0_T_S6_S5_
FN:115,_ZSt18uninitialized_copyIPKN4core4ByteEPS1_ET0_T_S6_S5_
FN:115,_ZSt18uninitialized_copyIN9__gnu_cxx17__normal_iteratorIPKNSt7__cxx1112basic_stringIcSt11char_traitsIcESaIcEEESt6vectorIS7_SaIS7_EEEEPS7_ET0_T_SG_SF_
FN:115,_ZSt18uninitialized_copyIN9__gnu_cxx17__normal_iteratorIPKN4core5GroupESt6vectorIS3_SaIS3_EEEEPS3_ET0_T_SC_SB_
FN:287,_ZSt22__uninitialized_copy_aIPKN4core5GroupEPS1_S1_ET0_T_S6_S5_RSaIT1_E
FN:287,_ZSt22__uninitialized_copy_aIPKN4core4ByteEPS1_S1_ET0_T_S6_S5_RSaIT1_E
FN:287,_ZSt22__uninitialized_copy_aISt13move_iteratorIPNSt7__cxx1112basic_stringIcSt11char_traitsIcESaIcEEEES7_S6_ET0_T_SA_S9_RSaIT1_E
FN:287,_ZSt22__uninitialized_copy_aIN9__gnu_cxx17__normal_iteratorIPKNSt7__cxx1112basic_stringIcSt11char_traitsIcESaIcEEESt6vectorIS7_SaIS7_EEEEPS7_S7_ET0_T_SG_SF_RSaIT1_E
FN:287,_ZSt22__uninitialized_copy_aIN9__gnu_cxx17__normal_iteratorIPKN4core4ByteESt6vectorIS3_SaIS3_EEEEPS3_S3_ET0_T_SC_SB_RSaIT1_E
FN:287,_ZSt22__uninitialized_copy_aIPKN4core5BlockEPS1_S1_ET0_T_S6_S5_RSaIT1_E
FN:287,_ZSt22__uninitialized_copy_aIN9__gnu_cxx17__normal_iteratorIPKN4core5GroupESt6vectorIS3_SaIS3_EEEEPS3_S3_ET0_T_SC_SB_RSaIT1_E
FNDA:0,_ZNSt20__uninitialized_copyILb0EE13__uninit_copyIN9__gnu_cxx17__normal_iteratorIPKN4core5GroupESt6vectorIS5_SaIS5_EEEEPS5_EET0_T_SE_SD_
FNDA:0,_ZNSt20__uninitialized_copyILb0EE13__uninit_copyIN9__gnu_cxx17__normal_iteratorIPKN4core4ByteESt6vectorIS5_SaIS5_EEEEPS5_EET0_T_SE_SD_
FNDA:0,_ZNSt20__uninitialized_copyILb0EE13__uninit_copyIN9__gnu_cxx17__normal_iteratorIPKNSt7__cxx1112basic_stringIcSt11char_traitsIcESaIcEEESt6vectorIS9_SaIS9_EEEEPS9_EET0_T_SI_SH_
FNDA:320,_ZNSt20__uninitialized_copyILb0EE13__uninit_copyISt13move_iteratorIPNSt7__cxx1112basic_stringIcSt11char_traitsIcESaIcEEEES9_EET0_T_SC_SB_
FNDA:8,_ZNSt20__uninitialized_copyILb0EE13__uninit_copyIPKN4core5BlockEPS3_EET0_T_S8_S7_
FNDA:0,_ZNSt20__uninitialized_copyILb0EE13__uninit_copyIPKN4core5GroupEPS3_EET0_T_S8_S7_
FNDA:0,_ZNSt20__uninitialized_copyILb0EE13__uninit_copyIPKN4core4ByteEPS3_EET0_T_S8_S7_
FNDA:0,_ZSt18uninitialized_copyIN9__gnu_cxx17__normal_iteratorIPKN4core5GroupESt6vectorIS3_SaIS3_EEEEPS3_ET0_T_SC_SB_
FNDA:0,_ZSt18uninitialized_copyIN9__gnu_cxx17__normal_iteratorIPKN4core4ByteESt6vectorIS3_SaIS3_EEEEPS3_ET0_T_SC_SB_
FNDA:0,_ZSt18uninitialized_copyIN9__gnu_cxx17__normal_iteratorIPKNSt7__cxx1112basic_stringIcSt11char_traitsIcESaIcEEESt6vectorIS7_SaIS7_EEEEPS7_ET0_T_SG_SF_
FNDA:320,_ZSt18uninitialized_copyISt13move_iteratorIPNSt7__cxx1112basic_stringIcSt11char_traitsIcESaIcEEEES7_ET0_T_SA_S9_
FNDA:8,_ZSt18uninitialized_copyIPKN4core5BlockEPS1_ET0_T_S6_S5_
FNDA:0,_ZSt18uninitialized_copyIPKN4core5GroupEPS1_ET0_T_S6_S5_
FNDA:0,_ZSt18uninitialized_copyIPKN4core4ByteEPS1_ET0_T_S6_S5_
FNDA:0,_ZSt22__uninitialized_copy_aIN9__gnu_cxx17__normal_iteratorIPKN4core5GroupESt6vectorIS3_SaIS3_EEEEPS3_S3_ET0_T_SC_SB_RSaIT1_E
FNDA:0,_ZSt22__uninitialized_copy_aIN9__gnu_cxx17__normal_iteratorIPKN4core4ByteESt6vectorIS3_SaIS3_EEEEPS3_S3_ET0_T_SC_SB_RSaIT1_E
FNDA:0,_ZSt22__uninitialized_copy_aIN9__gnu_cxx17__normal_iteratorIPKNSt7__cxx1112basic_stringIcSt11char_traitsIcESaIcEEESt6vectorIS7_SaIS7_EEEEPS7_S7_ET0_T_SG_SF_RSaIT1_E
FNDA:320,_ZSt22__uninitialized_copy_aISt13move_iteratorIPNSt7__cxx1112basic_stringIcSt11char_traitsIcESaIcEEEES7_S6_ET0_T_SA_S9_RSaIT1_E
FNDA:8,_ZSt22__uninitialized_copy_aIPKN4core5BlockEPS1_S1_ET0_T_S6_S5_RSaIT1_E
FNDA:0,_ZSt22__uninitialized_copy_aIPKN4core5GroupEPS1_S1_ET0_T_S6_S5_RSaIT1_E
FNDA:0,_ZSt22__uninitialized_copy_aIPKN4core4ByteEPS1_S1_ET0_T_S6_S5_RSaIT1_E
FNF:21
FNH:6
DA:76,328
DA:79,328
DA:82,615
DA:83,287
DA:84,328
DA:86,0
DA:88,0
DA:89,0
DA:92,0
DA:95,0
DA:98,0
DA:99,0
DA:100,0
DA:102,0
DA:104,0
DA:105,0
DA:108,0
DA:111,0
DA:114,0
DA:115,0
DA:116,0
DA:118,0
DA:120,0
DA:121,0
DA:124,0
DA:127,0
DA:130,0
DA:131,0
DA:132,0
DA:134,0
DA:136,0
DA:137,0
DA:140,320
DA:143,320
DA:146,600
DA:147,280
DA:148,320
DA:150,0
DA:152,0
DA:153,0
DA:156,8
DA:159,8
DA:162,15
DA:163,7
DA:164,8
DA:166,0
DA:168,0
DA:169,0
DA:172,0
DA:175,0
DA:178,0
DA:179,0
DA:180,0
DA:182,0
DA:184,0
DA:185,0
DA:188,0
DA:191,0
DA:194,0
DA:195,0
DA:196,0
DA:198,0
DA:200,0
DA:201,0
DA:227,328
DA:240,328
DA:246,328
DA:248,0
DA:261,0
DA:267,0
DA:269,0
DA:282,0
DA:288,0
DA:290,0
DA:303,0
DA:309,0
DA:311,320
DA:324,320
DA:330,320
DA:332,8
DA:345,8
DA:351,8
DA:353,0
DA:366,0
DA:372,0
DA:374,0
DA:387,0
DA:393,0
DA:546,328
DA:548,328
DA:549,0
DA:551,0
DA:552,0
DA:554,0
DA:555,0
DA:557,0
DA:558,320
DA:560,320
DA:561,8
DA:563,8
DA:564,0
DA:566,0
DA:567,0
DA:569,0
DA:585,558
DA:591,558
DA:592,558
LF:107
LH:33
end_of_record
SF:/usr/include/c++/8/bits/stl_vector.h
FN:95,_ZNSt12_Vector_baseINSt7__cxx1112basic_stringIcSt11char_traitsIcESaIcEEESaIS5_EE12_Vector_implC2Ev
FN:95,_ZNSt12_Vector_baseIN4core5GroupESaIS1_EE12_Vector_implC2Ev
FN:95,_ZNSt12_Vector_baseIN4core4ByteESaIS1_EE12_Vector_implC2Ev
FN:99,_ZNSt12_Vector_baseIN4core5GroupESaIS1_EE12_Vector_implC2ERKS2_
FN:99,_ZNSt12_Vector_baseIN4core4ByteESaIS1_EE12_Vector_implC2ERKS2_
FN:99,_ZNSt12_Vector_baseINSt7__cxx1112basic_stringIcSt11char_traitsIcESaIcEEESaIS5_EE12_Vector_implC2ERKS6_
FN:237,_ZNSt12_Vector_baseIN4core5BlockESaIS1_EE19_M_get_Tp_allocatorEv
FN:237,_ZNSt12_Vector_baseIN4core5GroupESaIS1_EE19_M_get_Tp_allocatorEv
FN:237,_ZNSt12_Vector_baseIN4core4ByteESaIS1_EE19_M_get_Tp_allocatorEv
FN:237,_ZNSt12_Vector_baseINSt7__cxx1112basic_stringIcSt11char_traitsIcESaIcEEESaIS5_EE19_M_get_Tp_allocatorEv
FN:241,_ZNKSt12_Vector_baseIN4core5BlockESaIS1_EE19_M_get_Tp_allocatorEv
FN:241,_ZNKSt12_Vector_baseINSt7__cxx1112basic_stringIcSt11char_traitsIcESaIcEEESaIS5_EE19_M_get_Tp_allocatorEv
FN:241,_ZNKSt12_Vector_baseIN4core5GroupESaIS1_EE19_M_get_Tp_allocatorEv
FN:241,_ZNKSt12_Vector_baseIN4core4ByteESaIS1_EE19_M_get_Tp_allocatorEv
FN:248,_ZNSt12_Vector_baseIN4core4ByteESaIS1_EEC2Ev
FN:248,_ZNSt12_Vector_baseIN4core5GroupESaIS1_EEC2Ev
FN:248,_ZNSt12_Vector_baseINSt7__cxx1112basic_stringIcSt11char_traitsIcESaIcEEESaIS5_EEC2Ev
FN:258,_ZNSt12_Vector_baseIN4core4ByteESaIS1_EEC2EmRKS2_
FN:258,_ZNSt12_Vector_baseINSt7__cxx1112basic_stringIcSt11char_traitsIcESaIcEEESaIS5_EEC2EmRKS6_
FN:258,_ZNSt12_Vector_baseIN4core5GroupESaIS1_EEC2EmRKS2_
FN:283,_ZNSt12_Vector_baseIN4core5GroupESaIS1_EED2Ev
FN:283,_ZNSt12_Vector_baseIN4core4ByteESaIS1_EED2Ev
FN:283,_ZNSt12_Vector_baseINSt7__cxx1112basic_stringIcSt11char_traitsIcESaIcEEESaIS5_EED2Ev
FN:293,_ZNSt12_Vector_baseINSt7__cxx1112basic_stringIcSt11char_traitsIcESaIcEEESaIS5_EE11_M_allocateEm
FN:293,_ZNSt12_Vector_baseIN4core5BlockESaIS1_EE11_M_allocateEm
FN:293,_ZNSt12_Vector_baseIN4core5GroupESaIS1_EE11_M_allocateEm
FN:293,_ZNSt12_Vector_baseIN4core4ByteESaIS1_EE11_M_allocateEm
FN:300,_ZNSt12_Vector_baseIN4core5BlockESaIS1_EE13_M_deallocateEPS1_m
FN:300,_ZNSt12_Vector_baseIN4core5GroupESaIS1_EE13_M_deallocateEPS1_m
FN:300,_ZNSt12_Vector_baseINSt7__cxx1112basic_stringIcSt11char_traitsIcESaIcEEESaIS5_EE13_M_deallocateEPS5_m
FN:300,_ZNSt12_Vector_baseIN4core4ByteESaIS1_EE13_M_deallocateEPS1_m
FN:309,_ZNSt12_Vector_baseINSt7__cxx1112basic_stringIcSt11char_traitsIcESaIcEEESaIS5_EE17_M_create_storageEm
FN:309,_ZNSt12_Vector_baseIN4core4ByteESaIS1_EE17_M_create_storageEm
FN:309,_ZNSt12_Vector_baseIN4core5GroupESaIS1_EE17_M_create_storageEm
FN:391,_ZNSt6vectorINSt7__cxx1112basic_stringIcSt11char_traitsIcESaIcEEESaIS5_EEC2Ev
FN:391,_ZNSt6vectorIN4core4ByteESaIS1_EEC2Ev
FN:391,_ZNSt6vectorIN4core5GroupESaIS1_EEC2Ev
FN:458,_ZNSt6vectorIN4core4ByteESaIS1_EEC2ERKS3_
FN:458,_ZNSt6vectorINSt7__cxx1112basic_stringIcSt11char_traitsIcESaIcEEESaIS5_EEC2ERKS7_
FN:458,_ZNSt6vectorIN4core5GroupESaIS1_EEC2ERKS3_
FN:565,_ZNSt6vectorIN4core4ByteESaIS1_EED2Ev
FN:565,_ZNSt6vectorINSt7__cxx1112basic_stringIcSt11char_traitsIcESaIcEEESaIS5_EED2Ev
FN:565,_ZNSt6vectorIN4core5GroupESaIS1_EED2Ev
FN:698,_ZNSt6vectorINSt7__cxx1112basic_stringIcSt11char_traitsIcESaIcEEESaIS5_EE5beginEv
FN:698,_ZNSt6vectorIN4core5BlockESaIS1_EE5beginEv
FN:698,_ZNSt6vectorIN4core5GroupESaIS1_EE5beginEv
FN:698,_ZNSt6vectorIN4core4ByteESaIS1_EE5beginEv
FN:707,_ZNKSt6vectorIN4core5GroupESaIS1_EE5beginEv
FN:707,_ZNKSt6vectorIN4core4ByteESaIS1_EE5beginEv
FN:707,_ZNKSt6vectorINSt7__cxx1112basic_stringIcSt11char_traitsIcESaIcEEESaIS5_EE5beginEv
FN:716,_ZNSt6vectorIN4core5BlockESaIS1_EE3endEv
FN:716,_ZNSt6vectorIN4core4ByteESaIS1_EE3endEv
FN:716,_ZNSt6vectorIN4core5GroupESaIS1_EE3endEv
FN:716,_ZNSt6vectorINSt7__cxx1112basic_stringIcSt11char_traitsIcESaIcEEESaIS5_EE3endEv
FN:725,_ZNKSt6vectorIN4core4ByteESaIS1_EE3endEv
FN:725,_ZNKSt6vectorINSt7__cxx1112basic_stringIcSt11char_traitsIcESaIcEEESaIS5_EE3endEv
FN:725,_ZNKSt6vectorIN4core5GroupESaIS1_EE3endEv
FN:805,_ZNKSt6vectorIN4core5BlockESaIS1_EE4sizeEv
FN:805,_ZNKSt6vectorIN4core5GroupESaIS1_EE4sizeEv
FN:805,_ZNKSt6vectorIN4core4ByteESaIS1_EE4sizeEv
FN:805,_ZNKSt6vectorINSt7__cxx1112basic_stringIcSt11char_traitsIcESaIcEEESaIS5_EE4sizeEv
FN:810,_ZNKSt6vectorIN4core5GroupESaIS1_EE8max_sizeEv
FN:810,_ZNKSt6vectorINSt7__cxx1112basic_stringIcSt11char_traitsIcESaIcEEESaIS5_EE8max_sizeEv
FN:810,_ZNKSt6vectorIN4core5BlockESaIS1_EE8max_sizeEv
FN:810,_ZNKSt6vectorIN4core4ByteESaIS1_EE8max_sizeEv
FN:1030,_ZNSt6vectorINSt7__cxx1112basic_stringIcSt11char_traitsIcESaIcEEESaIS5_EE4backEv
FN:1074,_ZNSt6vectorIN4core5GroupESaIS1_EE9push_backERKS1_
FN:1074,_ZNSt6vectorIN4core4ByteESaIS1_EE9push_backERKS1_
FN:1074,_ZNSt6vectorIN4core5BlockESaIS1_EE9push_backERKS1_
FN:1090,_ZNSt6vectorINSt7__cxx1112basic_stringIcSt11char_traitsIcESaIcEEESaIS5_EE9push_backEOS5_
FN:1385,_ZNSt6vectorIN4core5BlockESaIS1_EE5clearEv
FN:1640,_ZNKSt6vectorIN4core5GroupESaIS1_EE12_M_check_lenEmPKc
FN:1640,_ZNKSt6vectorINSt7__cxx1112basic_stringIcSt11char_traitsIcESaIcEEESaIS5_EE12_M_check_lenEmPKc
FN:1640,_ZNKSt6vectorIN4core4ByteESaIS1_EE12_M_check_lenEmPKc
FN:1640,_ZNKSt6vectorIN4core5BlockESaIS1_EE12_M_check_lenEmPKc
FN:1654,_ZNSt6vectorIN4core5BlockESaIS1_EE15_M_erase_at_endEPS1_
FNDA:0,_ZNSt12_Vector_baseINSt7__cxx1112basic_stringIcSt11char_traitsIcESaIcEEESaIS5_EE12_Vector_implC2Ev
FNDA:36,_ZNSt12_Vector_baseIN4core4ByteESaIS1_EE12_Vector_implC2Ev
FNDA:7,_ZNSt12_Vector_baseIN4core5GroupESaIS1_EE12_Vector_implC2Ev
FNDA:0,_ZNSt12_Vector_baseIN4core5GroupESaIS1_EE12_Vector_implC2ERKS2_
FNDA:0,_ZNSt12_Vector_baseIN4core4ByteESaIS1_EE12_Vector_implC2ERKS2_
FNDA:0,_ZNSt12_Vector_baseINSt7__cxx1112basic_stringIcSt11char_traitsIcESaIcEEESaIS5_EE12_Vector_implC2ERKS6_
FNDA:0,_ZNSt12_Vector_baseIN4core5BlockESaIS1_EE19_M_get_Tp_allocatorEv
FNDA:0,_ZNSt12_Vector_baseINSt7__cxx1112basic_stringIcSt11char_traitsIcESaIcEEESaIS5_EE19_M_get_Tp_allocatorEv
FNDA:0,_ZNSt12_Vector_baseIN4core4ByteESaIS1_EE19_M_get_Tp_allocatorEv
FNDA:0,_ZNSt12_Vector_baseIN4core5GroupESaIS1_EE19_M_get_Tp_allocatorEv
FNDA:8,_ZNKSt12_Vector_baseIN4core5BlockESaIS1_EE19_M_get_Tp_allocatorEv
FNDA:0,_ZNKSt12_Vector_baseIN4core5GroupESaIS1_EE19_M_get_Tp_allocatorEv
FNDA:0,_ZNKSt12_Vector_baseIN4core4ByteESaIS1_EE19_M_get_Tp_allocatorEv
FNDA:0,_ZNKSt12_Vector_baseINSt7__cxx1112basic_stringIcSt11char_traitsIcESaIcEEESaIS5_EE19_M_get_Tp_allocatorEv
FNDA:0,_ZNSt12_Vector_baseINSt7__cxx1112basic_stringIcSt11char_traitsIcESaIcEEESaIS5_EEC2Ev
FNDA:36,_ZNSt12_Vector_baseIN4core4ByteESaIS1_EEC2Ev
FNDA:7,_ZNSt12_Vector_baseIN4core5GroupESaIS1_EEC2Ev
FNDA:0,_ZNSt12_Vector_baseIN4core5GroupESaIS1_EEC2EmRKS2_
FNDA:0,_ZNSt12_Vector_baseIN4core4ByteESaIS1_EEC2EmRKS2_
FNDA:0,_ZNSt12_Vector_baseINSt7__cxx1112basic_stringIcSt11char_traitsIcESaIcEEESaIS5_EEC2EmRKS6_
FNDA:0,_ZNSt12_Vector_baseINSt7__cxx1112basic_stringIcSt11char_traitsIcESaIcEEESaIS5_EED2Ev
FNDA:0,_ZNSt12_Vector_baseIN4core4ByteESaIS1_EED2Ev
FNDA:0,_ZNSt12_Vector_baseIN4core5GroupESaIS1_EED2Ev
FNDA:0,_ZNSt12_Vector_baseINSt7__cxx1112basic_stringIcSt11char_traitsIcESaIcEEESaIS5_EE11_M_allocateEm
FNDA:4,_ZNSt12_Vector_baseIN4core5BlockESaIS1_EE11_M_allocateEm
FNDA:0,_ZNSt12_Vector_baseIN4core5GroupESaIS1_EE11_M_allocateEm
FNDA:0,_ZNSt12_Vector_baseIN4core4ByteESaIS1_EE11_M_allocateEm
FNDA:0,_ZNSt12_Vector_baseIN4core5BlockESaIS1_EE13_M_deallocateEPS1_m
FNDA:0,_ZNSt12_Vector_baseINSt7__cxx1112basic_stringIcSt11char_traitsIcESaIcEEESaIS5_EE13_M_deallocateEPS5_m
FNDA:0,_ZNSt12_Vector_baseIN4core4ByteESaIS1_EE13_M_deallocateEPS1_m
FNDA:0,_ZNSt12_Vector_baseIN4core5GroupESaIS1_EE13_M_deallocateEPS1_m
FNDA:0,_ZNSt12_Vector_baseIN4core5GroupESaIS1_EE17_M_create_storageEm
FNDA:0,_ZNSt12_Vector_baseIN4core4ByteESaIS1_EE17_M_create_storageEm
FNDA:0,_ZNSt12_Vector_baseINSt7__cxx1112basic_stringIcSt11char_traitsIcESaIcEEESaIS5_EE17_M_create_storageEm
FNDA:0,_ZNSt6vectorINSt7__cxx1112basic_stringIcSt11char_traitsIcESaIcEEESaIS5_EEC2Ev
FNDA:36,_ZNSt6vectorIN4core4ByteESaIS1_EEC2Ev
FNDA:7,_ZNSt6vectorIN4core5GroupESaIS1_EEC2Ev
FNDA:0,_ZNSt6vectorIN4core5GroupESaIS1_EEC2ERKS3_
FNDA:0,_ZNSt6vectorIN4core4ByteESaIS1_EEC2ERKS3_
FNDA:0,_ZNSt6vectorINSt7__cxx1112basic_stringIcSt11char_traitsIcESaIcEEESaIS5_EEC2ERKS7_
FNDA:0,_ZNSt6vectorINSt7__cxx1112basic_stringIcSt11char_traitsIcESaIcEEESaIS5_EED2Ev
FNDA:0,_ZNSt6vectorIN4core4ByteESaIS1_EED2Ev
FNDA:0,_ZNSt6vectorIN4core5GroupESaIS1_EED2Ev
FNDA:0,_ZNSt6vectorINSt7__cxx1112basic_stringIcSt11char_traitsIcESaIcEEESaIS5_EE5beginEv
FNDA:0,_ZNSt6vectorIN4core5BlockESaIS1_EE5beginEv
FNDA:0,_ZNSt6vectorIN4core5GroupESaIS1_EE5beginEv
FNDA:0,_ZNSt6vectorIN4core4ByteESaIS1_EE5beginEv
FNDA:0,_ZNKSt6vectorIN4core5GroupESaIS1_EE5beginEv
FNDA:0,_ZNKSt6vectorIN4core4ByteESaIS1_EE5beginEv
FNDA:0,_ZNKSt6vectorINSt7__cxx1112basic_stringIcSt11char_traitsIcESaIcEEESaIS5_EE5beginEv
FNDA:0,_ZNSt6vectorINSt7__cxx1112basic_stringIcSt11char_traitsIcESaIcEEESaIS5_EE3endEv
FNDA:0,_ZNSt6vectorIN4core5BlockESaIS1_EE3endEv
FNDA:0,_ZNSt6vectorIN4core5GroupESaIS1_EE3endEv
FNDA:0,_ZNSt6vectorIN4core4ByteESaIS1_EE3endEv
FNDA:0,_ZNKSt6vectorIN4core5GroupESaIS1_EE3endEv
FNDA:0,_ZNKSt6vectorIN4core4ByteESaIS1_EE3endEv
FNDA:0,_ZNKSt6vectorINSt7__cxx1112basic_stringIcSt11char_traitsIcESaIcEEESaIS5_EE3endEv
FNDA:0,_ZNKSt6vectorINSt7__cxx1112basic_stringIcSt11char_traitsIcESaIcEEESaIS5_EE4sizeEv
FNDA:0,_ZNKSt6vectorIN4core5BlockESaIS1_EE4sizeEv
FNDA:0,_ZNKSt6vectorIN4core5GroupESaIS1_EE4sizeEv
FNDA:0,_ZNKSt6vectorIN4core4ByteESaIS1_EE4sizeEv
FNDA:320,_ZNKSt6vectorINSt7__cxx1112basic_stringIcSt11char_traitsIcESaIcEEESaIS5_EE8max_sizeEv
FNDA:8,_ZNKSt6vectorIN4core5BlockESaIS1_EE8max_sizeEv
FNDA:44,_ZNKSt6vectorIN4core5GroupESaIS1_EE8max_sizeEv
FNDA:186,_ZNKSt6vectorIN4core4ByteESaIS1_EE8max_sizeEv
FNDA:320,_ZNSt6vectorINSt7__cxx1112basic_stringIcSt11char_traitsIcESaIcEEESaIS5_EE4backEv
FNDA:7,_ZNSt6vectorIN4core5BlockESaIS1_EE9push_backERKS1_
FNDA:36,_ZNSt6vectorIN4core5GroupESaIS1_EE9push_backERKS1_
FNDA:108,_ZNSt6vectorIN4core4ByteESaIS1_EE9push_backERKS1_
FNDA:320,_ZNSt6vectorINSt7__cxx1112basic_stringIcSt11char_traitsIcESaIcEEESaIS5_EE9push_backEOS5_
FNDA:2,_ZNSt6vectorIN4core5BlockESaIS1_EE5clearEv
FNDA:160,_ZNKSt6vectorINSt7__cxx1112basic_stringIcSt11char_traitsIcESaIcEEESaIS5_EE12_M_check_lenEmPKc
FNDA:4,_ZNKSt6vectorIN4core5BlockESaIS1_EE12_M_check_lenEmPKc
FNDA:22,_ZNKSt6vectorIN4core5GroupESaIS1_EE12_M_check_lenEmPKc
FNDA:93,_ZNKSt6vectorIN4core4ByteESaIS1_EE12_M_check_lenEmPKc
FNDA:0,_ZNSt6vectorIN4core5BlockESaIS1_EE15_M_erase_at_endEPS1_
FNF:76
FNH:22
DA:95,43
DA:96,43
DA:97,43
DA:98,0
DA:99,0
DA:100,0
DA:101,36
DA:102,36
DA:103,36
DA:104,7
DA:105,7
DA:106,7
DA:108,0
DA:109,0
DA:110,0
DA:111,0
DA:112,0
DA:113,0
DA:114,0
DA:115,0
DA:116,0
DA:117,0
DA:118,0
DA:119,0
DA:255,0
DA:256,0
DA:257,0
DA:258,0
DA:259,0
DA:260,0
DA:261,0
DA:262,0
DA:263,0
DA:264,0
DA:267,8
DA:268,8
DA:269,8
DA:270,8
DA:271,0
DA:272,0
DA:273,0
DA:274,0
DA:275,0
DA:276,0
DA:282,43
DA:283,43
DA:284,0
DA:285,0
DA:286,36
DA:287,36
DA:288,7
DA:289,7
DA:298,0
DA:299,0
DA:300,0
DA:301,0
DA:302,0
DA:303,0
DA:304,0
DA:305,0
DA:306,0
DA:307,0
DA:308,0
DA:309,0
DA:332,0
DA:334,0
DA:335,0
DA:336,0
DA:337,0
DA:339,0
DA:340,0
DA:341,0
DA:342,0
DA:344,0
DA:345,0
DA:346,0
DA:347,0
DA:349,0
DA:350,0
DA:351,0
DA:357,4
DA:360,4
DA:362,0
DA:365,0
DA:367,4
DA:370,4
DA:372,0
DA:375,0
DA:377,0
DA:380,0
DA:384,0
DA:387,0
DA:388,0
DA:389,0
DA:390,0
DA:393,0
DA:394,0
DA:395,0
DA:396,0
DA:399,0
DA:400,0
DA:401,0
DA:402,0
DA:405,0
DA:406,0
DA:407,0
DA:408,0
DA:411,0
DA:412,0
DA:413,0
DA:417,0
DA:419,0
DA:420,0
DA:421,0
DA:422,0
DA:423,0
DA:425,0
DA:426,0
DA:427,0
DA:428,0
DA:429,0
DA:431,0
DA:432,0
DA:433,0
DA:434,0
DA:435,0
DA:437,0
DA:438,0
DA:439,0
DA:440,0
DA:517,43
DA:521,43
DA:522,0
DA:526,0
DA:527,36
DA:531,36
DA:532,7
DA:536,7
DA:599,0
DA:601,0
DA:603,0
DA:604,0
DA:606,0
DA:607,0
DA:608,0
DA:610,0
DA:612,0
DA:613,0
DA:615,0
DA:616,0
DA:617,0
DA:619,0
DA:621,0
DA:622,0
DA:624,0
DA:625,0
DA:626,0
DA:628,0
DA:630,0
DA:631,0
DA:633,0
DA:634,0
DA:733,0
DA:735,0
DA:736,0
DA:738,0
DA:739,0
DA:741,0
DA:742,0
DA:744,0
DA:745,0
DA:747,0
DA:748,0
DA:750,0
DA:751,0
DA:753,0
DA:754,0
DA:756,0
DA:884,0
DA:885,0
DA:886,0
DA:887,0
DA:888,0
DA:889,0
DA:890,0
DA:891,0
DA:892,0
DA:893,0
DA:901,0
DA:902,0
DA:903,0
DA:904,0
DA:905,0
DA:906,0
DA:907,0
DA:908,0
DA:916,0
DA:917,0
DA:918,0
DA:919,0
DA:920,0
DA:921,0
DA:922,0
DA:923,0
DA:924,0
DA:925,0
DA:933,0
DA:934,0
DA:935,0
DA:936,0
DA:937,0
DA:938,0
DA:939,0
DA:940,0
DA:1019,0
DA:1020,0
DA:1021,0
DA:1022,0
DA:1023,0
DA:1024,0
DA:1025,0
DA:1026,0
DA:1027,0
DA:1028,0
DA:1032,558
DA:1033,558
DA:1034,320
DA:1035,320
DA:1036,8
DA:1037,8
DA:1038,44
DA:1039,44
DA:1040,186
DA:1041,186
DA:1260,320
DA:1263,320
DA:1304,151
DA:1306,151
DA:1309,32
DA:1311,32
DA:1315,119
DA:1316,151
DA:1317,7
DA:1319,7
DA:1322,3
DA:1324,3
DA:1328,4
DA:1329,7
DA:1330,36
DA:1332,36
DA:1335,14
DA:1337,14
DA:1341,22
DA:1342,36
DA:1343,108
DA:1345,108
DA:1348,15
DA:1350,15
DA:1354,93
DA:1355,108
DA:1359,320
DA:1360,320
DA:1654,2
DA:1655,2
DA:1909,279
DA:1911,279
DA:1912,0
DA:1914,279
DA:1915,279
DA:1917,160
DA:1919,160
DA:1920,0
DA:1922,160
DA:1923,160
DA:1925,4
DA:1927,4
DA:1928,0
DA:1930,4
DA:1931,4
DA:1933,22
DA:1935,22
DA:1936,0
DA:1938,22
DA:1939,22
DA:1941,93
DA:1943,93
DA:1944,0
DA:1946,93
DA:1947,93
DA:1955,0
DA:1957,0
DA:1959,0
DA:1960,0
DA:1961,0
DA:1964,0
LF:295
LH:89
end_of_record
SF:/usr/include/c++/8/bits/vector.tcc
FN:97,_ZNSt6vectorINSt7__cxx1112basic_stringIcSt11char_traitsIcESaIcEEESaIS5_EE12emplace_backIJS5_EEERS5_DpOT_
FN:413,_ZNSt6vectorIN4core4ByteESaIS1_EE17_M_realloc_insertIJRKS1_EEEvN9__gnu_cxx17__normal_iteratorIPS1_S3_EEDpOT_
FN:413,_ZNSt6vectorINSt7__cxx1112basic_stringIcSt11char_traitsIcESaIcEEESaIS5_EE17_M_realloc_insertIJS5_EEEvN9__gnu_cxx17__normal_iteratorIPS5_S7_EEDpOT_
FN:413,_ZNSt6vectorIN4core5BlockESaIS1_EE17_M_realloc_insertIJRKS1_EEEvN9__gnu_cxx17__normal_iteratorIPS1_S3_EEDpOT_
FN:413,_ZNSt6vectorIN4core5GroupESaIS1_EE17_M_realloc_insertIJRKS1_EEEvN9__gnu_cxx17__normal_iteratorIPS1_S3_EEDpOT_
FN:841,_ZNSt6vectorIbSaIbEE13_M_insert_auxESt13_Bit_iteratorb
FNDA:320,_ZNSt6vectorINSt7__cxx1112basic_stringIcSt11char_traitsIcESaIcEEESaIS5_EE12emplace_backIJS5_EEERS5_DpOT_
FNDA:160,_ZNSt6vectorINSt7__cxx1112basic_stringIcSt11char_traitsIcESaIcEEESaIS5_EE17_M_realloc_insertIJS5_EEEvN9__gnu_cxx17__normal_iteratorIPS5_S7_EEDpOT_
FNDA:4,_ZNSt6vectorIN4core5BlockESaIS1_EE17_M_realloc_insertIJRKS1_EEEvN9__gnu_cxx17__normal_iteratorIPS1_S3_EEDpOT_
FNDA:22,_ZNSt6vectorIN4core5GroupESaIS1_EE17_M_realloc_insertIJRKS1_EEEvN9__gnu_cxx17__normal_iteratorIPS1_S3_EEDpOT_
FNDA:93,_ZNSt6vectorIN4core4ByteESaIS1_EE17_M_realloc_insertIJRKS1_EEEvN9__gnu_cxx17__normal_iteratorIPS1_S3_EEDpOT_
FNDA:108,_ZNSt6vectorIbSaIbEE13_M_insert_auxESt13_Bit_iteratorb
FNF:6
FNH:6
DA:97,320
DA:100,320
DA:103,160
DA:105,160
DA:109,160
DA:111,320
DA:413,279
DA:422,279
DA:424,279
DA:425,279
DA:426,279
DA:427,279
DA:428,279
DA:436,279
DA:437,279
DA:443,279
DA:447,279
DA:448,279
DA:450,279
DA:454,279
DA:455,279
DA:457,0
DA:459,0
DA:460,0
DA:461,0
DA:463,0
DA:464,0
DA:465,0
DA:468,279
DA:469,558
DA:470,279
DA:471,279
DA:472,279
DA:473,279
DA:474,279
DA:475,160
DA:484,160
DA:486,160
DA:487,160
DA:488,160
DA:489,160
DA:490,160
DA:498,160
DA:499,160
DA:505,160
DA:509,160
DA:510,160
DA:512,160
DA:516,160
DA:517,160
DA:519,0
DA:521,0
DA:522,0
DA:523,0
DA:525,0
DA:526,0
DA:527,0
DA:530,160
DA:531,320
DA:532,160
DA:533,160
DA:534,160
DA:535,160
DA:536,160
DA:537,4
DA:546,4
DA:548,4
DA:549,4
DA:550,4
DA:551,4
DA:552,4
DA:560,4
DA:561,4
DA:567,4
DA:571,4
DA:572,4
DA:574,4
DA:578,4
DA:579,4
DA:581,0
DA:583,0
DA:584,0
DA:585,0
DA:587,0
DA:588,0
DA:589,0
DA:592,4
DA:593,8
DA:594,4
DA:595,4
DA:596,4
DA:597,4
DA:598,4
DA:599,22
DA:608,22
DA:610,22
DA:611,22
DA:612,22
DA:613,22
DA:614,22
DA:622,22
DA:623,22
DA:629,22
DA:633,22
DA:634,22
DA:636,22
DA:640,22
DA:641,22
DA:643,0
DA:645,0
DA:646,0
DA:647,0
DA:649,0
DA:650,0
DA:651,0
DA:654,22
DA:655,44
DA:656,22
DA:657,22
DA:658,22
DA:659,22
DA:660,22
DA:661,93
DA:670,93
DA:672,93
DA:673,93
DA:674,93
DA:675,93
DA:676,93
DA:684,93
DA:685,93
DA:691,93
DA:695,93
DA:696,93
DA:698,93
DA:702,93
DA:703,93
DA:705,0
DA:707,0
DA:708,0
DA:709,0
DA:711,0
DA:712,0
DA:713,0
DA:716,93
DA:717,186
DA:718,93
DA:719,93
DA:720,93
DA:721,93
DA:722,93
DA:1089,108
DA:1092,108
DA:1094,0
DA:1096,0
DA:1097,0
DA:1101,108
DA:1103,108
DA:1104,108
DA:1105,108
DA:1106,108
DA:1107,108
DA:1108,108
DA:1109,108
DA:1110,108
DA:1111,108
DA:1113,108
LF:167
LH:129
end_of_record
SF:/usr/include/c++/8/ext/alloc_traits.h
FN:94,_ZN9__gnu_cxx14__alloc_traitsISaImEmE17_S_select_on_copyERKS1_
FN:94,_ZN9__gnu_cxx14__alloc_traitsISaIN4core4ByteEES2_E17_S_select_on_copyERKS3_
FN:94,_ZN9__gnu_cxx14__alloc_traitsISaINSt7__cxx1112basic_stringIcSt11char_traitsIcESaIcEEEES6_E17_S_select_on_copyERKS7_
FN:94,_ZN9__gnu_cxx14__alloc_traitsISaIcEcE17_S_select_on_copyERKS1_
FN:94,_ZN9__gnu_cxx14__alloc_traitsISaIN4core5GroupEES2_E17_S_select_on_copyERKS3_
FN:103,_ZN9__gnu_cxx14__alloc_traitsISaIcEcE27_S_propagate_on_move_assignEv
FN:109,_ZN9__gnu_cxx14__alloc_traitsISaIcEcE15_S_always_equalEv
FNDA:0,_ZN9__gnu_cxx14__alloc_traitsISaIN4core5GroupEES2_E17_S_select_on_copyERKS3_
FNDA:0,_ZN9__gnu_cxx14__alloc_traitsISaIN4core4ByteEES2_E17_S_select_on_copyERKS3_
FNDA:0,_ZN9__gnu_cxx14__alloc_traitsISaINSt7__cxx1112basic_stringIcSt11char_traitsIcESaIcEEEES6_E17_S_select_on_copyERKS7_
FNDA:0,_ZN9__gnu_cxx14__alloc_traitsISaImEmE17_S_select_on_copyERKS1_
FNDA:0,_ZN9__gnu_cxx14__alloc_traitsISaIcEcE17_S_select_on_copyERKS1_
FNDA:0,_ZN9__gnu_cxx14__alloc_traitsISaIcEcE27_S_propagate_on_move_assignEv
FNDA:0,_ZN9__gnu_cxx14__alloc_traitsISaIcEcE15_S_always_equalEv
FNF:7
FNH:0
DA:94,0
DA:95,0
DA:96,0
DA:97,0
DA:98,0
DA:99,0
DA:100,0
DA:101,0
DA:102,0
DA:103,0
DA:104,0
DA:105,0
DA:113,0
DA:114,0
DA:119,0
DA:120,0
LF:16
LH:0
end_of_record
SF:/usr/include/c++/8/ext/new_allocator.h
FN:79,_ZN9__gnu_cxx13new_allocatorIcEC2Ev
FN:79,_ZN9__gnu_cxx13new_allocatorIN4core5GroupEEC2Ev
FN:79,_ZN9__gnu_cxx13new_allocatorIN4core4ByteEEC2Ev
FN:79,_ZN9__gnu_cxx13new_allocatorINSt7__cxx1112basic_stringIcSt11char_traitsIcESaIcEEEEC2Ev
FN:79,_ZN9__gnu_cxx13new_allocatorImEC2Ev
FN:79,_ZN9__gnu_cxx13new_allocatorIbEC2Ev
FN:81,_ZN9__gnu_cxx13new_allocatorINSt7__cxx1112basic_stringIcSt11char_traitsIcESaIcEEEEC2ERKS7_
FN:81,_ZN9__gnu_cxx13new_allocatorIN4core5GroupEEC2ERKS3_
FN:81,_ZN9__gnu_cxx13new_allocatorImEC2ERKS1_
FN:81,_ZN9__gnu_cxx13new_allocatorIN4core4ByteEEC2ERKS3_
FN:81,_ZN9__gnu_cxx13new_allocatorIcEC2ERKS1_
FN:86,_ZN9__gnu_cxx13new_allocatorIN4core4ByteEED2Ev
FN:86,_ZN9__gnu_cxx13new_allocatorINSt7__cxx1112basic_stringIcSt11char_traitsIcESaIcEEEED2Ev
FN:86,_ZN9__gnu_cxx13new_allocatorImED2Ev
FN:86,_ZN9__gnu_cxx13new_allocatorIN4core5GroupEED2Ev
FN:86,_ZN9__gnu_cxx13new_allocatorIbED2Ev
FN:86,_ZN9__gnu_cxx13new_allocatorIcED2Ev
FN:99,_ZN9__gnu_cxx13new_allocatorIN4core5BlockEE8allocateEmPKv
FN:99,_ZN9__gnu_cxx13new_allocatorIN4core4ByteEE8allocateEmPKv
FN:99,_ZN9__gnu_cxx13new_allocatorINSt7__cxx1112basic_stringIcSt11char_traitsIcESaIcEEEE8allocateEmPKv
FN:99,_ZN9__gnu_cxx13new_allocatorImE8allocateEmPKv
FN:99,_ZN9__gnu_cxx13new_allocatorIN4core5GroupEE8allocateEmPKv
FN:99,_ZN9__gnu_cxx13new_allocatorIcE8allocateEmPKv
FN:116,_ZN9__gnu_cxx13new_allocatorImE10deallocateEPmm
FN:116,_ZN9__gnu_cxx13new_allocatorIN4core5GroupEE10deallocateEPS2_m
FN:116,_ZN9__gnu_cxx13new_allocatorIcE10deallocateEPcm
FN:116,_ZN9__gnu_cxx13new_allocatorIN4core5BlockEE10deallocateEPS2_m
FN:116,_ZN9__gnu_cxx13new_allocatorINSt7__cxx1112basic_stringIcSt11char_traitsIcESaIcEEEE10deallocateEPS6_m
FN:116,_ZN9__gnu_cxx13new_allocatorIN4core4ByteEE10deallocateEPS2_m
FN:129,_ZNK9__gnu_cxx13new_allocatorINSt7__cxx1112basic_stringIcSt11char_traitsIcESaIcEEEE8max_sizeEv
FN:129,_ZNK9__gnu_cxx13new_allocatorIN4core4ByteEE8max_sizeEv
FN:129,_ZNK9__gnu_cxx13new_allocatorIcE8max_sizeEv
FN:129,_ZNK9__gnu_cxx13new_allocatorIN4core5BlockEE8max_sizeEv
FN:129,_ZNK9__gnu_cxx13new_allocatorImE8max_sizeEv
FN:129,_ZNK9__gnu_cxx13new_allocatorIN4core5GroupEE8max_sizeEv
FN:135,_ZN9__gnu_cxx13new_allocatorINSt7__cxx1112basic_stringIcSt11char_traitsIcESaIcEEEE9constructIS6_JS6_EEEvPT_DpOT0_
FN:135,_ZN9__gnu_cxx13new_allocatorIN4core4ByteEE9constructIS2_JRKS2_EEEvPT_DpOT0_
FN:135,_ZN9__gnu_cxx13new_allocatorIN4core5GroupEE9constructIS2_JRKS2_EEEvPT_DpOT0_
FN:135,_ZN9__gnu_cxx13new_allocatorIN4core5BlockEE9constructIS2_JRKS2_EEEvPT_DpOT0_
FN:140,_ZN9__gnu_cxx13new_allocatorIN4core5BlockEE7destroyIS2_EEvPT_
FN:140,_ZN9__gnu_cxx13new_allocatorIN4core4ByteEE7destroyIS2_EEvPT_
FN:140,_ZN9__gnu_cxx13new_allocatorIN4core5GroupEE7destroyIS2_EEvPT_
FN:140,_ZN9__gnu_cxx13new_allocatorINSt7__cxx1112basic_stringIcSt11char_traitsIcESaIcEEEE7destroyIS6_EEvPT_
FNDA:0,_ZN9__gnu_cxx13new_allocatorIbEC2Ev
FNDA:0,_ZN9__gnu_cxx13new_allocatorINSt7__cxx1112basic_stringIcSt11char_traitsIcESaIcEEEEC2Ev
FNDA:0,_ZN9__gnu_cxx13new_allocatorIN4core4ByteEEC2Ev
FNDA:0,_ZN9__gnu_cxx13new_allocatorIN4core5GroupEEC2Ev
FNDA:0,_ZN9__gnu_cxx13new_allocatorImEC2Ev
FNDA:0,_ZN9__gnu_cxx13new_allocatorIcEC2Ev
FNDA:0,_ZN9__gnu_cxx13new_allocatorIN4core5GroupEEC2ERKS3_
FNDA:0,_ZN9__gnu_cxx13new_allocatorIN4core4ByteEEC2ERKS3_
FNDA:0,_ZN9__gnu_cxx13new_allocatorINSt7__cxx1112basic_stringIcSt11char_traitsIcESaIcEEEEC2ERKS7_
FNDA:0,_ZN9__gnu_cxx13new_allocatorImEC2ERKS1_
FNDA:0,_ZN9__gnu_cxx13new_allocatorIcEC2ERKS1_
FNDA:0,_ZN9__gnu_cxx13new_allocatorIbED2Ev
FNDA:0,_ZN9__gnu_cxx13new_allocatorINSt7__cxx1112basic_stringIcSt11char_traitsIcESaIcEEEED2Ev
FNDA:0,_ZN9__gnu_cxx13new_allocatorIN4core4ByteEED2Ev
FNDA:0,_ZN9__gnu_cxx13new_allocatorIN4core5GroupEED2Ev
FNDA:0,_ZN9__gnu_cxx13new_allocatorImED2Ev
FNDA:0,_ZN9__gnu_cxx13new_allocatorIcED2Ev
FNDA:0,_ZN9__gnu_cxx13new_allocatorIcE8allocateEmPKv
FNDA:0,_ZN9__gnu_cxx13new_allocatorINSt7__cxx1112basic_stringIcSt11char_traitsIcESaIcEEEE8allocateEmPKv
FNDA:4,_ZN9__gnu_cxx13new_allocatorIN4core5BlockEE8allocateEmPKv
FNDA:0,_ZN9__gnu_cxx13new_allocatorIN4core5GroupEE8allocateEmPKv
FNDA:0,_ZN9__gnu_cxx13new_allocatorIN4core4ByteEE8allocateEmPKv
FNDA:0,_ZN9__gnu_cxx13new_allocatorImE8allocateEmPKv
FNDA:0,_ZN9__gnu_cxx13new_allocatorIN4core5BlockEE10deallocateEPS2_m
FNDA:0,_ZN9__gnu_cxx13new_allocatorINSt7__cxx1112basic_stringIcSt11char_traitsIcESaIcEEEE10deallocateEPS6_m
FNDA:0,_ZN9__gnu_cxx13new_allocatorIN4core4ByteEE10deallocateEPS2_m
FNDA:0,_ZN9__gnu_cxx13new_allocatorIN4core5GroupEE10deallocateEPS2_m
FNDA:0,_ZN9__gnu_cxx13new_allocatorIcE10deallocateEPcm
FNDA:0,_ZN9__gnu_cxx13new_allocatorImE10deallocateEPmm
FNDA:0,_ZNK9__gnu_cxx13new_allocatorINSt7__cxx1112basic_stringIcSt11char_traitsIcESaIcEEEE8max_sizeEv
FNDA:12,_ZNK9__gnu_cxx13new_allocatorIN4core5BlockEE8max_sizeEv
FNDA:0,_ZNK9__gnu_cxx13new_allocatorIN4core5GroupEE8max_sizeEv
FNDA:0,_ZNK9__gnu_cxx13new_allocatorIN4core4ByteEE8max_sizeEv
FNDA:0,_ZNK9__gnu_cxx13new_allocatorImE8max_sizeEv
FNDA:0,_ZNK9__gnu_cxx13new_allocatorIcE8max_sizeEv
FNDA:320,_ZN9__gnu_cxx13new_allocatorINSt7__cxx1112basic_stringIcSt11char_traitsIcESaIcEEEE9constructIS6_JS6_EEEvPT_DpOT0_
FNDA:7,_ZN9__gnu_cxx13new_allocatorIN4core5BlockEE9constructIS2_JRKS2_EEEvPT_DpOT0_
FNDA:36,_ZN9__gnu_cxx13new_allocatorIN4core5GroupEE9constructIS2_JRKS2_EEEvPT_DpOT0_
FNDA:108,_ZN9__gnu_cxx13new_allocatorIN4core4ByteEE9constructIS2_JRKS2_EEEvPT_DpOT0_
FNDA:0,_ZN9__gnu_cxx13new_allocatorINSt7__cxx1112basic_stringIcSt11char_traitsIcESaIcEEEE7destroyIS6_EEvPT_
FNDA:0,_ZN9__gnu_cxx13new_allocatorIN4core5BlockEE7destroyIS2_EEvPT_
FNDA:0,_ZN9__gnu_cxx13new_allocatorIN4core5GroupEE7destroyIS2_EEvPT_
FNDA:0,_ZN9__gnu_cxx13new_allocatorIN4core4ByteEE7destroyIS2_EEvPT_
FNF:43
FNH:6
DA:79,0
DA:81,0
DA:86,0
DA:99,4
DA:101,4
DA:102,0
DA:111,4
DA:113,0
DA:115,0
DA:116,0
DA:125,0
DA:127,0
DA:129,0
DA:130,0
DA:139,0
DA:141,4
DA:143,4
DA:144,0
DA:153,4
DA:155,0
DA:157,0
DA:158,0
DA:167,0
DA:169,0
DA:171,0
DA:172,0
DA:181,0
DA:183,0
DA:185,0
DA:186,0
DA:195,0
DA:200,0
DA:209,0
DA:211,0
DA:220,0
DA:222,0
DA:231,0
DA:233,0
DA:242,0
DA:244,0
DA:253,0
DA:255,0
DA:264,0
DA:266,0
DA:275,0
DA:279,12
DA:280,12
DA:281,0
DA:282,0
DA:283,12
DA:284,12
DA:285,0
DA:286,0
DA:287,0
DA:288,0
DA:289,0
DA:290,0
DA:291,0
DA:292,0
DA:297,471
DA:298,471
DA:299,320
DA:300,320
DA:301,7
DA:302,7
DA:303,36
DA:304,36
DA:305,108
DA:306,108
DA:310,0
LF:70
LH:20
end_of_record
SF:/usr/include/c++/8/ext/string_conversions.h
FN:99,_ZN9__gnu_cxx12__to_xstringINSt7__cxx1112basic_stringIcSt11char_traitsIcESaIcEEEcEET_PFiPT0_mPKS8_P13__va_list_tagEmSB_z
FNDA:0,_ZN9__gnu_cxx12__to_xstringINSt7__cxx1112basic_stringIcSt11char_traitsIcESaIcEEEcEET_PFiPT0_mPKS8_P13__va_list_tagEmSB_z
FNF:1
FNH:0
DA:99,0
DA:105,0
DA:109,0
DA:111,0
DA:113,0
DA:115,0
LF:6
LH:0
end_of_record
SF:/usr/include/c++/8/ext/type_traits.h
FN:152,_ZN9__gnu_cxx17__is_null_pointerIcEEbPT_
FNDA:0,_ZN9__gnu_cxx17__is_null_pointerIcEEbPT_
FNF:1
FNH:0
DA:152,0
DA:153,0
LF:2
LH:0
end_of_record
SF:/usr/include/c++/8/istream
FN:980,_ZStrsISt14basic_ifstreamIcSt11char_traitsIcEERN4Json5ValueEENSt9enable_ifIXsrSt6__and_IJSt6__not_ISt19is_lvalue_referenceIT_EESt33__is_convertible_to_basic_istreamISB_ESt16__is_extractableINSF_14__istream_typeEOT0_vEEE5valueESH_E4typeEOSB_SJ_
FNDA:2,_ZStrsISt14basic_ifstreamIcSt11char_traitsIcEERN4Json5ValueEENSt9enable_ifIXsrSt6__and_IJSt6__not_ISt19is_lvalue_referenceIT_EESt33__is_convertible_to_basic_istreamISB_ESt16__is_extractableINSF_14__istream_typeEOT0_vEEE5valueESH_E4typeEOSB_SJ_
FNF:1
FNH:1
DA:980,2
DA:982,2
DA:983,2
DA:984,2
LF:4
LH:4
end_of_record
SF:/usr/include/c++/8/new
FN:168,_ZnwmPv
FN:174,_ZdlPvS_
FNDA:0,_ZnwmPv
FNDA:0,_ZdlPvS_
FNF:2
FNH:0
DA:168,0
DA:169,0
DA:174,0
LF:3
LH:0
end_of_record
SF:/home/fsl/prog/tino/src/core/Block.hpp
FN:16,_ZN4core5BlockD2Ev
FN:17,_ZN4core5BlockC2ERKS0_
FNDA:0,_ZN4core5BlockD2Ev
FNDA:14,_ZN4core5BlockC2ERKS0_
FNF:2
FNH:1
DA:16,0
DA:17,14
LF:2
LH:1
end_of_record
SF:/home/fsl/prog/tino/src/core/Byte.hpp
FN:19,_ZN4core4ByteD2Ev
FN:20,_ZN4core4ByteC2ERKS0_
FNDA:0,_ZN4core4ByteD2Ev
FNDA:0,_ZN4core4ByteC2ERKS0_
FNF:2
FNH:0
DA:19,0
DA:20,0
LF:2
LH:0
end_of_record
SF:/home/fsl/prog/tino/src/core/Group.hpp
FN:16,_ZN4core5GroupD2Ev
FN:17,_ZN4core5GroupC2ERKS0_
FNDA:0,_ZN4core5GroupD2Ev
FNDA:0,_ZN4core5GroupC2ERKS0_
FNF:2
FNH:0
DA:16,0
DA:17,0
LF:2
LH:0
end_of_record
SF:/home/fsl/prog/tino/src/core/Parser.cpp
FN:7,_ZN4core6Parser7getRootERKNSt7__cxx1112basic_stringIcSt11char_traitsIcESaIcEEE
FN:16,_ZN4core6Parser5parseENSt7__cxx1112basic_stringIcSt11char_traitsIcESaIcEEERSt6vectorINS_5BlockESaIS8_EE
FN:26,_ZZN4core6Parser5parseENSt7__cxx1112basic_stringIcSt11char_traitsIcESaIcEEERSt6vectorINS_5BlockESaIS8_EEENKUlRKN4Json5ValueEE_clESF_
FN:45,_ZZZN4core6Parser5parseENSt7__cxx1112basic_stringIcSt11char_traitsIcESaIcEEERSt6vectorINS_5BlockESaIS8_EEENKUlRKN4Json5ValueEE_clESF_ENKUlSF_E_clESF_
FN:70,_ZZZZN4core6Parser5parseENSt7__cxx1112basic_stringIcSt11char_traitsIcESaIcEEERSt6vectorINS_5BlockESaIS8_EEENKUlRKN4Json5ValueEE_clESF_ENKUlSF_E_clESF_ENKUlSF_E_clESF_
FN:118,_ZN4core6Parser11getSettingsENSt7__cxx1112basic_stringIcSt11char_traitsIcESaIcEEERNS_8SettingsE
FNDA:2,_ZN4core6Parser7getRootERKNSt7__cxx1112basic_stringIcSt11char_traitsIcESaIcEEE
FNDA:2,_ZN4core6Parser5parseENSt7__cxx1112basic_stringIcSt11char_traitsIcESaIcEEERSt6vectorINS_5BlockESaIS8_EE
FNDA:7,_ZZN4core6Parser5parseENSt7__cxx1112basic_stringIcSt11char_traitsIcESaIcEEERSt6vectorINS_5BlockESaIS8_EEENKUlRKN4Json5ValueEE_clESF_
FNDA:36,_ZZZN4core6Parser5parseENSt7__cxx1112basic_stringIcSt11char_traitsIcESaIcEEERSt6vectorINS_5BlockESaIS8_EEENKUlRKN4Json5ValueEE_clESF_ENKUlSF_E_clESF_
FNDA:108,_ZZZZN4core6Parser5parseENSt7__cxx1112basic_stringIcSt11char_traitsIcESaIcEEERSt6vectorINS_5BlockESaIS8_EEENKUlRKN4Json5ValueEE_clESF_ENKUlSF_E_clESF_ENKUlSF_E_clESF_
FNDA:0,_ZN4core6Parser11getSettingsENSt7__cxx1112basic_stringIcSt11char_traitsIcESaIcEEERNS_8SettingsE
FNF:6
FNH:5
DA:7,2
DA:10,2
DA:11,2
DA:12,2
DA:13,2
DA:16,2
DA:18,4
DA:19,2
DA:21,4
DA:22,2
DA:23,2
DA:26,7
DA:27,14
DA:28,7
DA:31,7
DA:32,0
DA:33,14
DA:36,7
DA:37,0
DA:40,7
DA:41,0
DA:43,7
DA:44,7
DA:45,36
DA:46,72
DA:49,36
DA:51,0
DA:52,36
DA:53,36
DA:55,0
DA:58,36
DA:60,0
DA:63,36
DA:65,0
DA:69,36
DA:70,108
DA:71,216
DA:72,216
DA:76,108
DA:77,0
DA:78,216
DA:79,324
DA:82,108
DA:83,0
DA:84,0
DA:85,216
DA:86,108
DA:87,108
DA:88,0
DA:89,0
DA:90,428
DA:91,320
DA:94,108
DA:95,0
DA:96,216
DA:97,108
DA:98,108
DA:99,0
DA:100,0
DA:101,972
DA:102,864
DA:105,216
DA:106,108
DA:107,180
DA:109,72
DA:110,36
DA:111,50
DA:113,14
DA:114,7
DA:115,9
DA:116,2
DA:118,0
DA:120,0
DA:121,0
DA:122,0
DA:124,0
DA:125,0
DA:126,0
DA:127,0
DA:128,0
DA:129,0
DA:130,0
DA:131,0
LF:83
LH:56
end_of_record
SF:/home/fsl/prog/tino/src/json/dist/json/json.h
FN:1266,_ZNK4Json17ValueIteratorBaseneERKS0_
FN:1363,_ZN4Json18ValueConstIteratorppEv
FN:1368,_ZNK4Json18ValueConstIteratordeEv
FNDA:196,_ZNK4Json17ValueIteratorBaseneERKS0_
FNDA:151,_ZN4Json18ValueConstIteratorppEv
FNDA:151,_ZNK4Json18ValueConstIteratordeEv
FNF:3
FNH:3
DA:1266,196
DA:1363,151
DA:1364,151
DA:1365,151
DA:1368,151
LF:5
LH:5
end_of_record
TN:
SF:/usr/include/c++/8/bits/alloc_traits.h
FN:435,_ZNSt16allocator_traitsISaIcEE8allocateERS0_m
FN:435,_ZNSt16allocator_traitsISaImEE8allocateERS0_m
FN:435,_ZNSt16allocator_traitsISaIN4core4ByteEEE8allocateERS2_m
FN:435,_ZNSt16allocator_traitsISaINSt7__cxx1112basic_stringIcSt11char_traitsIcESaIcEEEEE8allocateERS6_m
FN:461,_ZNSt16allocator_traitsISaIN4core4ByteEEE10deallocateERS2_PS1_m
FN:461,_ZNSt16allocator_traitsISaImEE10deallocateERS0_Pmm
FN:461,_ZNSt16allocator_traitsISaINSt7__cxx1112basic_stringIcSt11char_traitsIcESaIcEEEEE10deallocateERS6_PS5_m
FN:461,_ZNSt16allocator_traitsISaIcEE10deallocateERS0_Pcm
FN:495,_ZNSt16allocator_traitsISaIcEE8max_sizeERKS0_
FN:504,_ZNSt16allocator_traitsISaIN4core4ByteEEE37select_on_container_copy_constructionERKS2_
FN:504,_ZNSt16allocator_traitsISaINSt7__cxx1112basic_stringIcSt11char_traitsIcESaIcEEEEE37select_on_container_copy_constructionERKS6_
FN:504,_ZNSt16allocator_traitsISaIcEE37select_on_container_copy_constructionERKS0_
FN:504,_ZNSt16allocator_traitsISaImEE37select_on_container_copy_constructionERKS0_
FN:516,_ZSt18__do_alloc_on_copyISaIN4core4ByteEEEvRT_RKS3_St17integral_constantIbLb0EE
FN:520,_ZSt15__alloc_on_copyISaIN4core4ByteEEEvRT_RKS3_
FNDA:0,_ZNSt16allocator_traitsISaINSt7__cxx1112basic_stringIcSt11char_traitsIcESaIcEEEEE8allocateERS6_m
FNDA:0,_ZNSt16allocator_traitsISaImEE8allocateERS0_m
FNDA:0,_ZNSt16allocator_traitsISaIcEE8allocateERS0_m
FNDA:0,_ZNSt16allocator_traitsISaIN4core4ByteEEE8allocateERS2_m
FNDA:0,_ZNSt16allocator_traitsISaINSt7__cxx1112basic_stringIcSt11char_traitsIcESaIcEEEEE10deallocateERS6_PS5_m
FNDA:0,_ZNSt16allocator_traitsISaImEE10deallocateERS0_Pmm
FNDA:0,_ZNSt16allocator_traitsISaIcEE10deallocateERS0_Pcm
FNDA:0,_ZNSt16allocator_traitsISaIN4core4ByteEEE10deallocateERS2_PS1_m
FNDA:0,_ZNSt16allocator_traitsISaIcEE8max_sizeERKS0_
FNDA:0,_ZNSt16allocator_traitsISaINSt7__cxx1112basic_stringIcSt11char_traitsIcESaIcEEEEE37select_on_container_copy_constructionERKS6_
FNDA:0,_ZNSt16allocator_traitsISaImEE37select_on_container_copy_constructionERKS0_
FNDA:0,_ZNSt16allocator_traitsISaIcEE37select_on_container_copy_constructionERKS0_
FNDA:0,_ZNSt16allocator_traitsISaIN4core4ByteEEE37select_on_container_copy_constructionERKS2_
FNDA:0,_ZSt18__do_alloc_on_copyISaIN4core4ByteEEEvRT_RKS3_St17integral_constantIbLb0EE
FNDA:0,_ZSt15__alloc_on_copyISaIN4core4ByteEEEvRT_RKS3_
FNF:15
FNH:0
DA:435,0
DA:436,0
DA:437,0
DA:438,0
DA:439,0
DA:440,0
DA:441,0
DA:442,0
DA:443,0
DA:444,0
DA:469,0
DA:470,0
DA:471,0
DA:472,0
DA:473,0
DA:474,0
DA:475,0
DA:476,0
DA:477,0
DA:478,0
DA:511,0
DA:512,0
DA:520,0
DA:521,0
DA:522,0
DA:523,0
DA:524,0
DA:525,0
DA:526,0
DA:527,0
DA:528,0
DA:529,0
DA:540,0
DA:541,0
DA:544,0
DA:548,0
DA:549,0
LF:37
LH:0
end_of_record
SF:/usr/include/c++/8/bits/allocator.h
FN:133,_ZNSaINSt7__cxx1112basic_stringIcSt11char_traitsIcESaIcEEEEC2ERKS5_
FN:133,_ZNSaImEC2ERKS_
FN:133,_ZNSaIN4core4ByteEEC2ERKS1_
FN:137,_ZNSaIbEC2ImEERKSaIT_E
FN:137,_ZNSaImEC2IbEERKSaIT_E
FN:139,_ZNSaIN4core4ByteEED2Ev
FN:139,_ZNSaImED2Ev
FN:139,_ZNSaIbED2Ev
FN:139,_ZNSaINSt7__cxx1112basic_stringIcSt11char_traitsIcESaIcEEEED2Ev
FN:164,_ZStneIN4core4ByteEEbRKSaIT_ES5_
FNDA:0,_ZNSaINSt7__cxx1112basic_stringIcSt11char_traitsIcESaIcEEEEC2ERKS5_
FNDA:0,_ZNSaImEC2ERKS_
FNDA:0,_ZNSaIN4core4ByteEEC2ERKS1_
FNDA:0,_ZNSaImEC2IbEERKSaIT_E
FNDA:0,_ZNSaIbEC2ImEERKSaIT_E
FNDA:0,_ZNSaINSt7__cxx1112basic_stringIcSt11char_traitsIcESaIcEEEED2Ev
FNDA:0,_ZNSaIbED2Ev
FNDA:0,_ZNSaImED2Ev
FNDA:0,_ZNSaIN4core4ByteEED2Ev
FNDA:0,_ZStneIN4core4ByteEEbRKSaIT_ES5_
FNF:10
FNH:0
DA:133,0
DA:134,0
DA:135,0
DA:136,0
DA:137,0
DA:138,0
DA:139,0
DA:140,0
DA:143,0
DA:145,0
DA:170,0
DA:172,0
LF:12
LH:0
end_of_record
SF:/usr/include/c++/8/bits/basic_string.h
FN:148,_ZNSt7__cxx1112basic_stringIcSt11char_traitsIcESaIcEE12_Alloc_hiderC2EPcOS3_
FN:167,_ZNSt7__cxx1112basic_stringIcSt11char_traitsIcESaIcEE7_M_dataEPc
FN:171,_ZNSt7__cxx1112basic_stringIcSt11char_traitsIcESaIcEE9_M_lengthEm
FN:175,_ZNKSt7__cxx1112basic_stringIcSt11char_traitsIcESaIcEE7_M_dataEv
FN:179,_ZNSt7__cxx1112basic_stringIcSt11char_traitsIcESaIcEE13_M_local_dataEv
FN:189,_ZNKSt7__cxx1112basic_stringIcSt11char_traitsIcESaIcEE13_M_local_dataEv
FN:199,_ZNSt7__cxx1112basic_stringIcSt11char_traitsIcESaIcEE11_M_capacityEm
FN:203,_ZNSt7__cxx1112basic_stringIcSt11char_traitsIcESaIcEE13_M_set_lengthEm
FN:210,_ZNKSt7__cxx1112basic_stringIcSt11char_traitsIcESaIcEE11_M_is_localEv
FN:218,_ZNSt7__cxx1112basic_stringIcSt11char_traitsIcESaIcEE10_M_disposeEv
FN:225,_ZNSt7__cxx1112basic_stringIcSt11char_traitsIcESaIcEE10_M_destroyEm
FN:232,_ZNSt7__cxx1112basic_stringIcSt11char_traitsIcESaIcEE16_M_construct_auxIPcEEvT_S7_St12__false_type
FN:252,_ZNSt7__cxx1112basic_stringIcSt11char_traitsIcESaIcEE12_M_constructIPcEEvT_S7_
FN:275,_ZNSt7__cxx1112basic_stringIcSt11char_traitsIcESaIcEE16_M_get_allocatorEv
FN:279,_ZNKSt7__cxx1112basic_stringIcSt11char_traitsIcESaIcEE16_M_get_allocatorEv
FN:335,_ZNSt7__cxx1112basic_stringIcSt11char_traitsIcESaIcEE7_S_copyEPcPKcm
FN:381,_ZNSt7__cxx1112basic_stringIcSt11char_traitsIcESaIcEE13_S_copy_charsEPcS5_S5_
FN:437,_ZNSt7__cxx1112basic_stringIcSt11char_traitsIcESaIcEEC2ERKS4_
FN:656,_ZNSt7__cxx1112basic_stringIcSt11char_traitsIcESaIcEED2Ev
FN:936,_ZNKSt7__cxx1112basic_stringIcSt11char_traitsIcESaIcEE6lengthEv
FN:941,_ZNKSt7__cxx1112basic_stringIcSt11char_traitsIcESaIcEE8max_sizeEv
FNDA:0,_ZNSt7__cxx1112basic_stringIcSt11char_traitsIcESaIcEE12_Alloc_hiderC2EPcOS3_
FNDA:0,_ZNSt7__cxx1112basic_stringIcSt11char_traitsIcESaIcEE7_M_dataEPc
FNDA:0,_ZNSt7__cxx1112basic_stringIcSt11char_traitsIcESaIcEE9_M_lengthEm
FNDA:0,_ZNKSt7__cxx1112basic_stringIcSt11char_traitsIcESaIcEE7_M_dataEv
FNDA:0,_ZNSt7__cxx1112basic_stringIcSt11char_traitsIcESaIcEE13_M_local_dataEv
FNDA:0,_ZNKSt7__cxx1112basic_stringIcSt11char_traitsIcESaIcEE13_M_local_dataEv
FNDA:0,_ZNSt7__cxx1112basic_stringIcSt11char_traitsIcESaIcEE11_M_capacityEm
FNDA:0,_ZNSt7__cxx1112basic_stringIcSt11char_traitsIcESaIcEE13_M_set_lengthEm
FNDA:0,_ZNKSt7__cxx1112basic_stringIcSt11char_traitsIcESaIcEE11_M_is_localEv
FNDA:0,_ZNSt7__cxx1112basic_stringIcSt11char_traitsIcESaIcEE10_M_disposeEv
FNDA:0,_ZNSt7__cxx1112basic_stringIcSt11char_traitsIcESaIcEE10_M_destroyEm
FNDA:0,_ZNSt7__cxx1112basic_stringIcSt11char_traitsIcESaIcEE16_M_construct_auxIPcEEvT_S7_St12__false_type
FNDA:0,_ZNSt7__cxx1112basic_stringIcSt11char_traitsIcESaIcEE12_M_constructIPcEEvT_S7_
FNDA:0,_ZNSt7__cxx1112basic_stringIcSt11char_traitsIcESaIcEE16_M_get_allocatorEv
FNDA:0,_ZNKSt7__cxx1112basic_stringIcSt11char_traitsIcESaIcEE16_M_get_allocatorEv
FNDA:0,_ZNSt7__cxx1112basic_stringIcSt11char_traitsIcESaIcEE7_S_copyEPcPKcm
FNDA:0,_ZNSt7__cxx1112basic_stringIcSt11char_traitsIcESaIcEE13_S_copy_charsEPcS5_S5_
FNDA:0,_ZNSt7__cxx1112basic_stringIcSt11char_traitsIcESaIcEEC2ERKS4_
FNDA:0,_ZNSt7__cxx1112basic_stringIcSt11char_traitsIcESaIcEED2Ev
FNDA:0,_ZNKSt7__cxx1112basic_stringIcSt11char_traitsIcESaIcEE6lengthEv
FNDA:0,_ZNKSt7__cxx1112basic_stringIcSt11char_traitsIcESaIcEE8max_sizeEv
FNF:21
FNH:0
DA:148,0
DA:149,0
DA:167,0
DA:168,0
DA:171,0
DA:172,0
DA:175,0
DA:176,0
DA:179,0
DA:182,0
DA:189,0
DA:192,0
DA:199,0
DA:200,0
DA:203,0
DA:205,0
DA:206,0
DA:207,0
DA:210,0
DA:211,0
DA:218,0
DA:220,0
DA:221,0
DA:222,0
DA:225,0
DA:226,0
DA:232,0
DA:236,0
DA:237,0
DA:252,0
DA:255,0
DA:256,0
DA:275,0
DA:276,0
DA:279,0
DA:280,0
DA:335,0
DA:337,0
DA:338,0
DA:340,0
DA:341,0
DA:381,0
DA:382,0
DA:437,0
DA:439,0
DA:440,0
DA:656,0
DA:657,0
DA:936,0
DA:937,0
DA:941,0
DA:942,0
LF:52
LH:0
end_of_record
SF:/usr/include/c++/8/bits/basic_string.tcc
FN:132,_ZNSt7__cxx1112basic_stringIcSt11char_traitsIcESaIcEE9_M_createERmm
FN:206,_ZNSt7__cxx1112basic_stringIcSt11char_traitsIcESaIcEE12_M_constructIPcEEvT_S7_St20forward_iterator_tag
FNDA:0,_ZNSt7__cxx1112basic_stringIcSt11char_traitsIcESaIcEE9_M_createERmm
FNDA:0,_ZNSt7__cxx1112basic_stringIcSt11char_traitsIcESaIcEE12_M_constructIPcEEvT_S7_St20forward_iterator_tag
FNF:2
FNH:0
DA:132,0
DA:137,0
DA:138,0
DA:143,0
DA:145,0
DA:147,0
DA:148,0
DA:153,0
DA:206,0
DA:211,0
DA:212,0
DA:215,0
DA:217,0
DA:219,0
DA:220,0
DA:225,0
DA:232,0
DA:233,0
LF:18
LH:0
end_of_record
SF:/usr/include/c++/8/bits/char_traits.h
FN:286,_ZNSt11char_traitsIcE6assignERcRKc
FN:348,_ZNSt11char_traitsIcE4copyEPcPKcm
FNDA:0,_ZNSt11char_traitsIcE6assignERcRKc
FNDA:0,_ZNSt11char_traitsIcE4copyEPcPKcm
FNF:2
FNH:0
DA:286,0
DA:287,0
DA:348,0
DA:350,0
DA:351,0
DA:352,0
LF:6
LH:0
end_of_record
SF:/usr/include/c++/8/bits/cpp_type_traits.h
FN:419,_ZSt12__miter_baseIPmET_S1_
FN:419,_ZSt12__miter_baseISt19_Bit_const_iteratorET_S1_
FN:419,_ZSt12__miter_baseIN9__gnu_cxx17__normal_iteratorIPKN4core4ByteESt6vectorIS3_SaIS3_EEEEET_SA_
FN:419,_ZSt12__miter_baseIPN4core4ByteEET_S3_
FNDA:0,_ZSt12__miter_baseISt19_Bit_const_iteratorET_S1_
FNDA:0,_ZSt12__miter_baseIPmET_S1_
FNDA:0,_ZSt12__miter_baseIPN4core4ByteEET_S3_
FNDA:0,_ZSt12__miter_baseIN9__gnu_cxx17__normal_iteratorIPKN4core4ByteESt6vectorIS3_SaIS3_EEEEET_SA_
FNF:4
FNH:0
DA:419,0
DA:420,0
DA:421,0
DA:422,0
DA:423,0
DA:424,0
DA:425,0
DA:426,0
DA:427,0
DA:428,0
LF:10
LH:0
end_of_record
SF:/usr/include/c++/8/bits/move.h
FN:47,_ZSt11__addressofIKcEPT_RS1_
FN:47,_ZSt11__addressofImEPT_RS0_
FN:47,_ZSt11__addressofIN4core4ByteEEPT_RS2_
FN:47,_ZSt11__addressofINSt7__cxx1112basic_stringIcSt11char_traitsIcESaIcEEEEPT_RS6_
FN:47,_ZSt11__addressofIcEPT_RS0_
FN:74,_ZSt7forwardIRKNSt7__cxx1112basic_stringIcSt11char_traitsIcESaIcEEEEOT_RNSt16remove_referenceIS8_E4typeE
FN:74,_ZSt7forwardIRN4core4ByteEEOT_RNSt16remove_referenceIS3_E4typeE
FN:74,_ZSt7forwardIRKN4core4ByteEEOT_RNSt16remove_referenceIS4_E4typeE
FN:99,_ZSt4moveIRSaIcEEONSt16remove_referenceIT_E4typeEOS3_
FN:138,_ZSt9addressofIKcEPT_RS1_
FN:138,_ZSt9addressofIcEPT_RS0_
FNDA:0,_ZSt11__addressofINSt7__cxx1112basic_stringIcSt11char_traitsIcESaIcEEEEPT_RS6_
FNDA:0,_ZSt11__addressofImEPT_RS0_
FNDA:0,_ZSt11__addressofIKcEPT_RS1_
FNDA:0,_ZSt11__addressofIcEPT_RS0_
FNDA:0,_ZSt11__addressofIN4core4ByteEEPT_RS2_
