TN:
SF:/home/fsl/prog/tino/src/connector/Connector.cpp
FN:10,_ZN9ConnectorC2EPSt6vectorIN4core5BlockESaIS2_EEP7QObject
FN:27,_ZZN9ConnectorC4EPSt6vectorIN4core5BlockESaIS2_EEP7QObjectENKUlN15QModbusDataUnit12RegisterTypeEiiE_clES9_ii
FN:54,_ZN9ConnectorD2Ev
FN:54,_ZN9ConnectorD0Ev
FN:62,_ZN9Connector15startConnectionERKN4core8SettingsE
FN:91,_ZN9Connector13endConnectionEv
FN:97,_ZN9Connector10writeBlockEm
FN:121,_ZN9Connector11isConnectedEv
FN:126,_ZN9Connector8openPortB5cxx11Ev
FN:138,_ZZN9Connector8openPortB5cxx11EvENKUlvE_clEv
FN:197,_ZN9Connector9closePortEv
FNDA:3,_ZN9Connector13endConnectionEv
FNDA:0,_ZN9Connector10writeBlockEm
FNDA:0,_ZZN9Connector8openPortB5cxx11EvENKUlvE_clEv
FNDA:2,_ZN9ConnectorC2EPSt6vectorIN4core5BlockESaIS2_EEP7QObject
FNDA:0,_ZN9Connector15startConnectionERKN4core8SettingsE
FNDA:0,_ZN9Connector11isConnectedEv
FNDA:2,_ZN9ConnectorD2Ev
FNDA:0,_ZN9Connector9closePortEv
FNDA:0,_ZZN9ConnectorC4EPSt6vectorIN4core5BlockESaIS2_EEP7QObjectENKUlN15QModbusDataUnit12RegisterTypeEiiE_clES9_ii
FNDA:2,_ZN9ConnectorD0Ev
FNDA:0,_ZN9Connector8openPortB5cxx11Ev
FNF:11
FNH:4
DA:10,2
DA:11,2
DA:13,2
DA:14,2
DA:16,2
DA:17,9
DA:18,7
DA:20,2
DA:21,0
DA:22,2
DA:24,2
DA:26,2
DA:27,0
DA:29,0
DA:32,0
DA:33,0
DA:35,0
DA:37,0
DA:38,0
DA:39,0
DA:41,0
DA:42,0
DA:43,0
DA:44,0
DA:46,0
DA:47,0
DA:48,0
DA:49,0
DA:50,0
DA:51,0
DA:52,2
DA:54,4
DA:56,2
DA:58,2
DA:59,2
DA:60,4
DA:61,2
DA:67,2
DA:68,2
DA:70,2
DA:72,2
DA:73,2
DA:74,2
DA:76,0
DA:78,0
DA:81,0
DA:82,0
DA:83,0
DA:84,0
DA:85,0
DA:86,0
DA:87,0
DA:88,0
DA:89,0
DA:90,0
DA:91,0
DA:94,0
DA:95,0
DA:97,0
DA:98,0
DA:100,0
DA:102,0
DA:105,3
DA:107,3
DA:108,3
DA:109,3
DA:111,0
DA:113,0
DA:115,0
DA:116,0
DA:117,0
DA:118,0
DA:119,0
DA:120,0
DA:122,0
DA:124,0
DA:125,0
DA:126,0
DA:128,0
DA:132,0
DA:135,0
DA:137,0
DA:140,0
DA:142,0
DA:145,0
DA:146,0
DA:147,0
DA:148,0
DA:149,0
DA:152,0
DA:153,0
DA:154,0
DA:155,0
DA:157,0
DA:158,0
DA:159,0
DA:160,0
DA:161,0
DA:162,0
DA:163,0
DA:165,0
DA:166,0
DA:167,0
DA:168,0
DA:170,0
DA:171,0
DA:172,0
DA:174,0
DA:175,0
DA:177,0
DA:179,0
DA:180,0
DA:182,0
DA:185,0
DA:186,0
DA:187,0
DA:188,0
DA:189,0
DA:191,0
DA:192,0
DA:199,0
DA:200,0
DA:201,0
DA:202,0
DA:203,0
DA:204,0
DA:205,0
DA:208,0
DA:211,0
DA:213,0
DA:214,0
LF:131
LH:28
end_of_record
TN:
SF:/home/fsl/prog/tino/src/core/Block.cpp
FN:5,_ZN4core5BlockC2ERKSt6vectorINS_5GroupESaIS2_EEiRKNSt7__cxx1112basic_stringIcSt11char_traitsIcESaIcEEE
FN:12,_ZNK4core5Block7getNameB5cxx11Ev
FN:16,_ZN4core5BlockixEm
FN:21,_ZNK4core5Block6getDimEv
FN:26,_ZNK4core5BlockeqERKS0_
FN:40,_ZN4core5BlockaSERKS0_
FN:49,_ZNK4core5Block8getStartEv
FN:54,_ZN4core5Block8getNbyteEv
FN:59,_ZZN4core5Block8getNbyteEvENKUlRKNS_5GroupEE_clES3_
FN:64,_ZN4core5Block15setIntAtAddressEii
FNDA:7,_ZN4core5Block8getNbyteEv
FNDA:0,_ZNK4core5BlockeqERKS0_
FNDA:7,_ZNK4core5Block7getNameB5cxx11Ev
FNDA:72,_ZN4core5BlockixEm
FNDA:0,_ZN4core5Block15setIntAtAddressEii
FNDA:7,_ZN4core5BlockC2ERKSt6vectorINS_5GroupESaIS2_EEiRKNSt7__cxx1112basic_stringIcSt11char_traitsIcESaIcEEE
FNDA:0,_ZN4core5BlockaSERKS0_
FNDA:2,_ZNK4core5Block8getStartEv
FNDA:36,_ZZN4core5Block8getNbyteEvENKUlRKNS_5GroupEE_clES3_
FNDA:86,_ZNK4core5Block6getDimEv
FNF:10
FNH:7
DA:5,7
DA:6,7
DA:8,7
DA:10,7
DA:12,7
DA:14,7
DA:16,72
DA:18,72
DA:21,86
DA:23,86
DA:26,0
DA:28,0
DA:29,0
DA:30,0
DA:32,0
DA:34,0
DA:35,0
DA:37,0
DA:40,0
DA:42,0
DA:44,0
DA:45,0
DA:46,0
DA:49,2
DA:51,2
DA:54,7
DA:56,7
DA:59,43
DA:61,7
DA:64,0
DA:66,0
DA:68,0
DA:70,0
DA:72,0
DA:73,0
DA:74,0
DA:75,0
DA:76,0
DA:77,0
DA:79,0
DA:80,0
DA:83,0
DA:85,0
LF:43
LH:16
end_of_record
TN:
SF:/home/fsl/prog/tino/src/core/Block.hpp
FN:16,_ZN4core5BlockD2Ev
FN:17,_ZN4core5BlockC2ERKS0_
FNDA:21,_ZN4core5BlockD2Ev
FNDA:14,_ZN4core5BlockC2ERKS0_
FNF:2
FNH:2
DA:16,21
DA:17,14
LF:2
LH:2
end_of_record
TN:
SF:/home/fsl/prog/tino/src/core/Byte.cpp
FN:7,_ZN4core4ByteC2ERKSt6vectorIbSaIbEERKS1_INSt7__cxx1112basic_stringIcSt11char_traitsIcESaIcEEESaISB_EERKSB_
FN:15,_ZNK4core4Byte7getDescB5cxx11Em
FN:20,_ZNK4core4ByteixEm
FN:25,_ZN4core4Byte3setEm
FN:30,_ZNK4core4Byte7getNameB5cxx11Ev
FN:35,_ZN4core4ByteaSERKS0_
FN:44,_ZNK4core4ByteeqERKS0_
FN:64,_ZNK4core4Byte6getIntEv
FN:75,_ZN4core4Byte6setIntEi
FNDA:640,_ZNK4core4ByteixEm
FNDA:0,_ZN4core4Byte3setEm
FNDA:640,_ZNK4core4Byte7getDescB5cxx11Em
FNDA:0,_ZNK4core4ByteeqERKS0_
FNDA:216,_ZNK4core4Byte7getNameB5cxx11Ev
FNDA:136,_ZNK4core4Byte6getIntEv
FNDA:108,_ZN4core4ByteC2ERKSt6vectorIbSaIbEERKS1_INSt7__cxx1112basic_stringIcSt11char_traitsIcESaIcEEESaISB_EERKSB_
FNDA:0,_ZN4core4ByteaSERKS0_
FNDA:0,_ZN4core4Byte6setIntEi
FNF:9
FNH:5
DA:7,108
DA:9,108
DA:11,108
DA:13,108
DA:15,640
DA:17,640
DA:20,640
DA:22,640
DA:25,0
DA:27,0
DA:28,0
DA:30,216
DA:32,216
DA:35,0
DA:37,0
DA:38,0
DA:39,0
DA:41,0
DA:44,0
DA:46,0
DA:47,0
DA:49,0
DA:50,0
DA:51,0
DA:53,0
DA:54,0
DA:56,0
DA:58,0
DA:59,0
DA:61,0
DA:64,136
DA:66,136
DA:67,136
DA:69,1224
DA:70,1088
DA:72,136
DA:75,0
DA:77,0
DA:78,0
DA:79,0
DA:81,0
LF:41
LH:16
end_of_record
TN:
SF:/home/fsl/prog/tino/src/core/Byte.hpp
FN:19,_ZN4core4ByteD2Ev
FN:20,_ZN4core4ByteC2ERKS0_
FNDA:952,_ZN4core4ByteD2Ev
FNDA:844,_ZN4core4ByteC2ERKS0_
FNF:2
FNH:2
DA:19,952
DA:20,844
LF:2
LH:2
end_of_record
TN:
SF:/home/fsl/prog/tino/src/core/Generator.cpp
FN:5,_ZN4core9Generator8getByte1Ei
FN:19,_ZN4core9Generator8getByte2Ei
FN:30,_ZN4core9Generator9getGroup1Eb
FN:37,_ZN4core9Generator9getGroup2Eb
FN:43,_ZN4core9Generator9getGroup3Eb
FN:50,_ZN4core9Generator8getBlockEiSt6vectorIbSaIbEE
FN:63,_ZN4core9Generator8getBlockEv
FNDA:0,_ZN4core9Generator8getBlockEiSt6vectorIbSaIbEE
FNDA:0,_ZN4core9Generator8getByte1Ei
FNDA:0,_ZN4core9Generator9getGroup1Eb
FNDA:0,_ZN4core9Generator8getByte2Ei
FNDA:0,_ZN4core9Generator9getGroup2Eb
FNDA:0,_ZN4core9Generator9getGroup3Eb
FNDA:0,_ZN4core9Generator8getBlockEv
FNF:7
FNH:0
DA:5,0
DA:9,0
DA:13,0
DA:15,0
DA:16,0
DA:19,0
DA:23,0
DA:24,0
DA:26,0
DA:27,0
DA:30,0
DA:32,0
DA:33,0
DA:34,0
DA:37,0
DA:39,0
DA:40,0
DA:41,0
DA:43,0
DA:45,0
DA:46,0
DA:47,0
DA:50,0
DA:52,0
DA:53,0
DA:55,0
DA:56,0
DA:58,0
DA:59,0
DA:60,0
DA:63,0
DA:66,0
DA:68,0
DA:69,0
DA:71,0
DA:72,0
LF:36
LH:0
end_of_record
TN:
SF:/home/fsl/prog/tino/src/core/Group.cpp
FN:9,_ZN4core5GroupC2ERKSt6vectorINS_4ByteESaIS2_EEcb
FN:14,_ZNK4core5Group7getTypeEv
FN:19,_ZN4core5GroupixEm
FN:24,_ZNK4core5Group6getDimEv
FN:29,_ZN4core5GroupaSERKS0_
FN:37,_ZNK4core5GroupeqERKS0_
FN:51,_ZNK4core5Group8getWriteEv
FNDA:0,_ZN4core5GroupaSERKS0_
FNDA:36,_ZN4core5GroupC2ERKSt6vectorINS_4ByteESaIS2_EEcb
FNDA:0,_ZNK4core5GroupeqERKS0_
FNDA:72,_ZNK4core5Group7getTypeEv
FNDA:368,_ZNK4core5Group6getDimEv
FNDA:314,_ZN4core5GroupixEm
FNDA:162,_ZNK4core5Group8getWriteEv
FNF:7
FNH:5
DA:9,36
DA:10,36
DA:12,36
DA:14,72
DA:16,72
DA:19,314
DA:21,314
DA:24,368
DA:26,368
DA:29,0
DA:31,0
DA:32,0
DA:33,0
DA:34,0
DA:37,0
DA:39,0
DA:40,0
DA:41,0
DA:43,0
DA:45,0
DA:46,0
DA:48,0
DA:51,162
DA:53,162
LF:24
LH:11
end_of_record
TN:
SF:/home/fsl/prog/tino/src/core/Group.hpp
FN:16,_ZN4core5GroupD2Ev
FN:17,_ZN4core5GroupC2ERKS0_
FNDA:211,_ZN4core5GroupD2Ev
FNDA:175,_ZN4core5GroupC2ERKS0_
FNF:2
FNH:2
DA:16,211
DA:17,175
LF:2
LH:2
end_of_record
TN:
SF:/home/fsl/prog/tino/src/core/Parser.cpp
FN:7,_ZN4core6Parser7getRootERKNSt7__cxx1112basic_stringIcSt11char_traitsIcESaIcEEE
FN:16,_ZN4core6Parser5parseENSt7__cxx1112basic_stringIcSt11char_traitsIcESaIcEEERSt6vectorINS_5BlockESaIS8_EE
FN:26,_ZZN4core6Parser5parseENSt7__cxx1112basic_stringIcSt11char_traitsIcESaIcEEERSt6vectorINS_5BlockESaIS8_EEENKUlRKN4Json5ValueEE_clESF_
FN:45,_ZZZN4core6Parser5parseENSt7__cxx1112basic_stringIcSt11char_traitsIcESaIcEEERSt6vectorINS_5BlockESaIS8_EEENKUlRKN4Json5ValueEE_clESF_ENKUlSF_E_clESF_
FN:70,_ZZZZN4core6Parser5parseENSt7__cxx1112basic_stringIcSt11char_traitsIcESaIcEEERSt6vectorINS_5BlockESaIS8_EEENKUlRKN4Json5ValueEE_clESF_ENKUlSF_E_clESF_ENKUlSF_E_clESF_
FN:118,_ZN4core6Parser11getSettingsENSt7__cxx1112basic_stringIcSt11char_traitsIcESaIcEEERNS_8SettingsE
FNDA:36,_ZZZN4core6Parser5parseENSt7__cxx1112basic_stringIcSt11char_traitsIcESaIcEEERSt6vectorINS_5BlockESaIS8_EEENKUlRKN4Json5ValueEE_clESF_ENKUlSF_E_clESF_
FNDA:2,_ZN4core6Parser5parseENSt7__cxx1112basic_stringIcSt11char_traitsIcESaIcEEERSt6vectorINS_5BlockESaIS8_EE
FNDA:7,_ZZN4core6Parser5parseENSt7__cxx1112basic_stringIcSt11char_traitsIcESaIcEEERSt6vectorINS_5BlockESaIS8_EEENKUlRKN4Json5ValueEE_clESF_
FNDA:108,_ZZZZN4core6Parser5parseENSt7__cxx1112basic_stringIcSt11char_traitsIcESaIcEEERSt6vectorINS_5BlockESaIS8_EEENKUlRKN4Json5ValueEE_clESF_ENKUlSF_E_clESF_ENKUlSF_E_clESF_
FNDA:0,_ZN4core6Parser11getSettingsENSt7__cxx1112basic_stringIcSt11char_traitsIcESaIcEEERNS_8SettingsE
FNDA:2,_ZN4core6Parser7getRootERKNSt7__cxx1112basic_stringIcSt11char_traitsIcESaIcEEE
FNF:6
FNH:5
DA:7,2
DA:10,2
DA:11,2
DA:12,2
DA:13,2
DA:16,2
DA:18,4
DA:19,2
DA:21,4
DA:22,2
DA:23,2
DA:26,7
DA:27,14
DA:28,7
DA:31,7
DA:32,0
DA:33,14
DA:36,7
DA:37,0
DA:40,7
DA:41,0
DA:43,7
DA:44,7
DA:45,36
DA:46,72
DA:49,36
DA:51,0
DA:52,36
DA:53,36
DA:55,0
DA:58,36
DA:60,0
DA:63,36
DA:65,0
DA:69,36
DA:70,108
DA:71,216
DA:72,216
DA:76,108
DA:77,0
DA:78,216
DA:79,324
DA:82,108
DA:83,0
DA:84,0
DA:85,216
DA:86,108
DA:87,108
DA:88,0
DA:89,0
DA:90,428
DA:91,320
DA:94,108
DA:95,0
DA:96,216
DA:97,108
DA:98,108
DA:99,0
DA:100,0
DA:101,972
DA:102,864
DA:105,216
DA:106,108
DA:107,180
DA:109,72
DA:110,36
DA:111,50
DA:113,14
DA:114,7
DA:115,9
DA:116,2
DA:118,0
DA:120,0
DA:121,0
DA:122,0
DA:124,0
DA:125,0
DA:126,0
DA:127,0
DA:128,0
DA:129,0
DA:130,0
DA:131,0
LF:83
LH:56
end_of_record
TN:
SF:/home/fsl/prog/tino/src/core/Settings.cpp
FN:3,_ZNK4core8SettingseqERKS0_
FNDA:0,_ZNK4core8SettingseqERKS0_
FNF:1
FNH:0
DA:3,0
DA:5,0
DA:6,0
DA:7,0
DA:8,0
DA:9,0
LF:6
LH:0
end_of_record
TN:
SF:/home/fsl/prog/tino/src/core/Settings.hpp
FN:8,_ZN4core8SettingsC2Ev
FN:9,_ZN4core8SettingsD2Ev
FNDA:1,_ZN4core8SettingsC2Ev
FNDA:1,_ZN4core8SettingsD2Ev
FNF:2
FNH:2
DA:8,1
DA:9,1
LF:2
LH:2
end_of_record
TN:
SF:/home/fsl/prog/tino/src/gui/CentralWidget.cpp
FN:6,_ZN13CentralWidgetC2EP7QWidget
FN:35,_ZZN13CentralWidgetC4EP7QWidgetENKUlvE_clEv
FN:75,_ZZN13CentralWidgetC4EP7QWidgetENKUlvE0_clEv
FN:79,_ZZZN13CentralWidgetC4EP7QWidgetENKUlvE0_clEvENKUlvE_clEv
FN:101,_ZZN13CentralWidgetC4EP7QWidgetENKUlvE1_clEv
FN:122,_ZZZN13CentralWidgetC4EP7QWidgetENKUlvE1_clEvENKUlmE_clEm
FN:135,_ZN13CentralWidget5cleanEv
FN:150,_ZN13CentralWidget14stopWriteTimerEv
FN:161,_ZN13CentralWidgetD0Ev
FN:161,_ZN13CentralWidgetD2Ev
FNDA:1,_ZN13CentralWidgetD2Ev
FNDA:1,_ZN13CentralWidgetC2EP7QWidget
FNDA:0,_ZZZN13CentralWidgetC4EP7QWidgetENKUlvE1_clEvENKUlmE_clEm
FNDA:0,_ZZN13CentralWidgetC4EP7QWidgetENKUlvE0_clEv
FNDA:3,_ZN13CentralWidget5cleanEv
FNDA:1,_ZN13CentralWidgetD0Ev
FNDA:0,_ZZN13CentralWidgetC4EP7QWidgetENKUlvE_clEv
FNDA:3,_ZN13CentralWidget14stopWriteTimerEv
FNDA:0,_ZZZN13CentralWidgetC4EP7QWidgetENKUlvE0_clEvENKUlvE_clEv
FNDA:2,_ZZN13CentralWidgetC4EP7QWidgetENKUlvE1_clEv
FNF:10
FNH:6
DA:6,1
DA:8,1
DA:9,1
DA:10,1
DA:11,1
DA:12,1
DA:15,1
DA:16,1
DA:17,1
DA:18,1
DA:21,1
DA:22,1
DA:23,1
DA:26,1
DA:27,1
DA:28,1
DA:29,1
DA:31,1
DA:35,1
DA:36,0
DA:37,0
DA:38,0
DA:40,0
DA:41,0
DA:43,0
DA:44,0
DA:45,0
DA:47,0
DA:49,0
DA:50,0
DA:51,0
DA:52,0
DA:55,0
DA:56,0
DA:58,0
DA:59,0
DA:60,0
DA:62,0
DA:64,0
DA:65,0
DA:67,0
DA:70,1
DA:71,1
DA:72,1
DA:73,1
DA:75,1
DA:76,0
DA:77,0
DA:78,0
DA:79,0
DA:80,0
DA:82,0
DA:83,0
DA:85,0
DA:86,0
DA:87,0
DA:88,0
DA:89,0
DA:91,0
DA:93,0
DA:96,1
DA:97,1
DA:98,1
DA:99,1
DA:101,1
DA:102,4
DA:103,4
DA:104,2
DA:106,2
DA:107,0
DA:109,2
DA:110,2
DA:112,2
DA:113,2
DA:115,2
DA:116,2
DA:117,2
DA:119,2
DA:121,2
DA:122,0
DA:123,0
DA:124,0
DA:125,0
DA:129,1
DA:130,1
DA:131,1
DA:132,1
DA:133,1
DA:135,3
DA:137,3
DA:139,3
DA:140,1
DA:141,1
DA:142,1
DA:144,3
DA:145,2
DA:146,2
DA:148,3
DA:150,3
DA:152,3
DA:153,0
DA:154,0
DA:155,0
DA:157,3
DA:158,3
DA:159,3
DA:161,2
DA:163,1
DA:164,2
DA:165,1
DA:168,1
DA:169,1
DA:171,1
DA:172,1
LF:114
LH:70
end_of_record
TN:
SF:/home/fsl/prog/tino/src/gui/MainSplitter.cpp
FN:3,_ZN12MainSplitterC2EPSt6vectorIN4core5BlockESaIS2_EEP7QWidget
FN:28,_ZN12MainSplitter11updateBlockEm
FNDA:0,_ZN12MainSplitter11updateBlockEm
FNDA:2,_ZN12MainSplitterC2EPSt6vectorIN4core5BlockESaIS2_EEP7QWidget
FNF:2
FNH:1
DA:3,2
DA:4,2
DA:6,2
DA:7,2
DA:10,2
DA:12,9
DA:13,7
DA:14,3
DA:16,14
DA:17,14
DA:18,7
DA:20,7
DA:21,3
DA:22,3
DA:24,7
DA:26,2
DA:28,0
DA:30,0
DA:31,0
LF:19
LH:16
end_of_record
TN:
SF:/home/fsl/prog/tino/src/gui/MainSplitter.hpp
FN:13,_ZN12MainSplitterD0Ev
FN:13,_ZN12MainSplitterD2Ev
FNDA:2,_ZN12MainSplitterD0Ev
FNDA:2,_ZN12MainSplitterD2Ev
FNF:2
FNH:2
DA:13,4
LF:1
LH:1
end_of_record
TN:
SF:/home/fsl/prog/tino/src/gui/MainWindow.cpp
FN:7,_ZN10MainWindowC2EP7QWidget
FN:17,_ZZN10MainWindowC4EP7QWidgetENKUlvE_clEv
FN:37,_ZN10MainWindowD2Ev
FN:37,_ZN10MainWindowD0Ev
FNDA:0,_ZZN10MainWindowC4EP7QWidgetENKUlvE_clEv
FNDA:1,_ZN10MainWindowC2EP7QWidget
FNDA:1,_ZN10MainWindowD2Ev
FNDA:0,_ZN10MainWindowD0Ev
FNF:4
FNH:2
DA:7,1
DA:8,1
DA:11,1
DA:12,1
DA:15,1
DA:16,1
DA:17,1
DA:18,1
DA:19,1
DA:21,1
DA:22,1
DA:23,1
DA:24,1
DA:26,1
DA:29,1
DA:31,1
DA:32,1
DA:34,1
DA:35,1
DA:37,1
DA:39,1
DA:40,1
DA:41,0
DA:44,0
DA:45,1
DA:47,1
DA:48,1
LF:27
LH:25
end_of_record
TN:
SF:/home/fsl/prog/tino/src/json/dist/jsoncpp.cpp
FN:115,_ZN4JsonL15getDecimalPointEv
FN:125,_ZN4JsonL15codePointToUTF8Ej
FN:167,_ZN4JsonL12uintToStringEmRPc
FN:180,_ZN4Json16fixNumericLocaleIN9__gnu_cxx17__normal_iteratorIPcNSt7__cxx1112basic_stringIcSt11char_traitsIcESaIcEEEEEEET_SB_SB_
FN:189,_ZN4Json21fixNumericLocaleInputIPcEEvT_S2_
FN:205,_ZN4Json16fixZerosInTheEndIN9__gnu_cxx17__normal_iteratorIPcNSt7__cxx1112basic_stringIcSt11char_traitsIcESaIcEEEEEEET_SB_SB_
FN:298,_ZN4Json8Features3allEv
FN:300,_ZN4Json8Features10strictModeEv
FN:312,_ZN4Json6Reader15containsNewLineEPKcS2_
FN:322,_ZN4Json6ReaderC2Ev
FN:325,_ZN4Json6ReaderC2ERKNS_8FeaturesE
FN:330,_ZN4Json6Reader5parseERKNSt7__cxx1112basic_stringIcSt11char_traitsIcESaIcEEERNS_5ValueEb
FN:339,_ZN4Json6Reader5parseERSiRNS_5ValueEb
FN:352,_ZN4Json6Reader5parseEPKcS2_RNS_5ValueEb
FN:393,_ZN4Json6Reader9readValueEv
FN:470,_ZN4Json6Reader17skipCommentTokensERNS0_5TokenE
FN:480,_ZN4Json6Reader9readTokenERNS0_5TokenE
FN:551,_ZN4Json6Reader10skipSpacesEv
FN:561,_ZN4Json6Reader5matchEPKci
FN:572,_ZN4Json6Reader11readCommentEv
FN:595,_ZN4Json6Reader12normalizeEOLB5cxx11EPKcS2_
FN:614,_ZN4Json6Reader10addCommentEPKcS2_NS_16CommentPlacementE
FN:627,_ZN4Json6Reader17readCStyleCommentEv
FN:636,_ZN4Json6Reader19readCppStyleCommentEv
FN:652,_ZN4Json6Reader10readNumberEv
FN:674,_ZN4Json6Reader10readStringEv
FN:686,_ZN4Json6Reader10readObjectERNS0_5TokenE
FN:742,_ZN4Json6Reader9readArrayERNS0_5TokenE
FN:780,_ZN4Json6Reader12decodeNumberERNS0_5TokenE
FN:790,_ZN4Json6Reader12decodeNumberERNS0_5TokenERNS_5ValueE
FN:833,_ZN4Json6Reader12decodeDoubleERNS0_5TokenE
FN:843,_ZN4Json6Reader12decodeDoubleERNS0_5TokenERNS_5ValueE
FN:854,_ZN4Json6Reader12decodeStringERNS0_5TokenE
FN:865,_ZN4Json6Reader12decodeStringERNS0_5TokenERNSt7__cxx1112basic_stringIcSt11char_traitsIcESaIcEEE
FN:918,_ZN4Json6Reader22decodeUnicodeCodePointERNS0_5TokenERPKcS4_Rj
FN:945,_ZN4Json6Reader27decodeUnicodeEscapeSequenceERNS0_5TokenERPKcS4_Rj
FN:972,_ZN4Json6Reader8addErrorERKNSt7__cxx1112basic_stringIcSt11char_traitsIcESaIcEEERNS0_5TokenEPKc
FN:981,_ZN4Json6Reader16recoverFromErrorENS0_9TokenTypeE
FN:994,_ZN4Json6Reader18addErrorAndRecoverERKNSt7__cxx1112basic_stringIcSt11char_traitsIcESaIcEEERNS0_5TokenENS0_9TokenTypeE
FN:1001,_ZN4Json6Reader12currentValueEv
FN:1003,_ZN4Json6Reader11getNextCharEv
FN:1009,_ZNK4Json6Reader24getLocationLineAndColumnEPKcRiS3_
FN:1032,_ZNK4Json6Reader24getLocationLineAndColumnB5cxx11EPKc
FN:1041,_ZNK4Json6Reader24getFormatedErrorMessagesB5cxx11Ev
FN:1045,_ZNK4Json6Reader25getFormattedErrorMessagesB5cxx11Ev
FN:1058,_ZNK4Json6Reader19getStructuredErrorsEv
FN:1070,_ZN4Json6Reader9pushErrorERKNS_5ValueERKNSt7__cxx1112basic_stringIcSt11char_traitsIcESaIcEEE
FN:1086,_ZN4Json6Reader9pushErrorERKNS_5ValueERKNSt7__cxx1112basic_stringIcSt11char_traitsIcESaIcEEES3_
FN:1105,_ZNK4Json6Reader4goodEv
FN:1123,_ZN4Json11OurFeatures3allEv
FN:1251,_ZN4Json9OurReader15containsNewLineEPKcS2_
FN:1259,_ZN4Json9OurReaderC2ERKNS_11OurFeaturesE
FN:1264,_ZN4Json9OurReader5parseEPKcS2_RNS_5ValueEb
FN:1313,_ZN4Json9OurReader9readValueEv
FN:1404,_ZN4Json9OurReader17skipCommentTokensERNS0_5TokenE
FN:1414,_ZN4Json9OurReader9readTokenERNS0_5TokenE
FN:1514,_ZN4Json9OurReader10skipSpacesEv
FN:1524,_ZN4Json9OurReader5matchEPKci
FN:1535,_ZN4Json9OurReader11readCommentEv
FN:1558,_ZN4Json9OurReader12normalizeEOLB5cxx11EPKcS2_
FN:1578,_ZN4Json9OurReader10addCommentEPKcS2_NS_16CommentPlacementE
FN:1591,_ZN4Json9OurReader17readCStyleCommentEv
FN:1600,_ZN4Json9OurReader19readCppStyleCommentEv
FN:1616,_ZN4Json9OurReader10readNumberEb
FN:1642,_ZN4Json9OurReader10readStringEv
FN:1654,_ZN4Json9OurReader21readStringSingleQuoteEv
FN:1666,_ZN4Json9OurReader10readObjectERNS0_5TokenE
FN:1728,_ZN4Json9OurReader9readArrayERNS0_5TokenE
FN:1766,_ZN4Json9OurReader12decodeNumberERNS0_5TokenE
FN:1776,_ZN4Json9OurReader12decodeNumberERNS0_5TokenERNS_5ValueE
FN:1827,_ZN4Json9OurReader12decodeDoubleERNS0_5TokenE
FN:1837,_ZN4Json9OurReader12decodeDoubleERNS0_5TokenERNS_5ValueE
FN:1874,_ZN4Json9OurReader12decodeStringERNS0_5TokenE
FN:1885,_ZN4Json9OurReader12decodeStringERNS0_5TokenERNSt7__cxx1112basic_stringIcSt11char_traitsIcESaIcEEE
FN:1938,_ZN4Json9OurReader22decodeUnicodeCodePointERNS0_5TokenERPKcS4_Rj
FN:1965,_ZN4Json9OurReader27decodeUnicodeEscapeSequenceERNS0_5TokenERPKcS4_Rj
FN:1992,_ZN4Json9OurReader8addErrorERKNSt7__cxx1112basic_stringIcSt11char_traitsIcESaIcEEERNS0_5TokenEPKc
FN:2001,_ZN4Json9OurReader16recoverFromErrorENS0_9TokenTypeE
FN:2014,_ZN4Json9OurReader18addErrorAndRecoverERKNSt7__cxx1112basic_stringIcSt11char_traitsIcESaIcEEERNS0_5TokenENS0_9TokenTypeE
FN:2021,_ZN4Json9OurReader12currentValueEv
FN:2023,_ZN4Json9OurReader11getNextCharEv
FN:2029,_ZNK4Json9OurReader24getLocationLineAndColumnEPKcRiS3_
FN:2052,_ZNK4Json9OurReader24getLocationLineAndColumnB5cxx11EPKc
FN:2060,_ZNK4Json9OurReader25getFormattedErrorMessagesB5cxx11Ev
FN:2073,_ZNK4Json9OurReader19getStructuredErrorsEv
FN:2085,_ZN4Json9OurReader9pushErrorERKNS_5ValueERKNSt7__cxx1112basic_stringIcSt11char_traitsIcESaIcEEE
FN:2101,_ZN4Json9OurReader9pushErrorERKNS_5ValueERKNSt7__cxx1112basic_stringIcSt11char_traitsIcESaIcEEES3_
FN:2120,_ZNK4Json9OurReader4goodEv
FN:2127,_ZN4Json13OurCharReaderC2EbRKNS_11OurFeaturesE
FN:2129,_ZN4Json13OurCharReader5parseEPKcS2_PNS_5ValueEPNSt7__cxx1112basic_stringIcSt11char_traitsIcESaIcEEE
FN:2141,_ZN4Json17CharReaderBuilderC2Ev
FN:2143,_ZNK4Json17CharReaderBuilder13newCharReaderEv
FN:2161,_ZN4JsonL18getValidReaderKeysEPSt3setINSt7__cxx1112basic_stringIcSt11char_traitsIcESaIcEEESt4lessIS6_ESaIS6_EE
FN:2174,_ZNK4Json17CharReaderBuilder8validateEPNS_5ValueE
FN:2191,_ZN4Json17CharReaderBuilderixERKNSt7__cxx1112basic_stringIcSt11char_traitsIcESaIcEEE
FN:2195,_ZN4Json17CharReaderBuilder10strictModeEPNS_5ValueE
FN:2209,_ZN4Json17CharReaderBuilder11setDefaultsEPNS_5ValueE
FN:2227,_ZN4Json15parseFromStreamERKNS_10CharReader7FactoryERSiPNS_5ValueEPNSt7__cxx1112basic_stringIcSt11char_traitsIcESaIcEEE
FN:2241,_ZN4JsonrsERSiRNS_5ValueE
FN:2283,_ZN4Json17ValueIteratorBaseC2Ev
FN:2285,_ZN4Json17ValueIteratorBaseC2ERKSt17_Rb_tree_iteratorISt4pairIKNS_5Value8CZStringES3_EE
FN:2289,_ZNK4Json17ValueIteratorBase5derefEv
FN:2291,_ZN4Json17ValueIteratorBase9incrementEv
FN:2293,_ZN4Json17ValueIteratorBase9decrementEv
FN:2296,_ZNK4Json17ValueIteratorBase15computeDistanceERKS0_
FN:2323,_ZNK4Json17ValueIteratorBase7isEqualERKS0_
FN:2330,_ZN4Json17ValueIteratorBase4copyERKS0_
FN:2335,_ZNK4Json17ValueIteratorBase3keyEv
FN:2345,_ZNK4Json17ValueIteratorBase5indexEv
FN:2352,_ZNK4Json17ValueIteratorBase4nameB5cxx11Ev
FN:2361,_ZNK4Json17ValueIteratorBase10memberNameEv
FN:2366,_ZNK4Json17ValueIteratorBase10memberNameEPPKc
FN:2386,_ZN4Json18ValueConstIteratorC2ERKSt17_Rb_tree_iteratorISt4pairIKNS_5Value8CZStringES3_EE
FN:2390,_ZN4Json18ValueConstIteratorC2ERKNS_13ValueIteratorE
FN:2393,_ZN4Json18ValueConstIteratoraSERKNS_17ValueIteratorBaseE
FN:2409,_ZN4Json13ValueIteratorC2ERKSt17_Rb_tree_iteratorISt4pairIKNS_5Value8CZStringES3_EE
FN:2412,_ZN4Json13ValueIteratorC2ERKNS_18ValueConstIteratorE
FN:2419,_ZN4Json13ValueIteratoraSERKS0_
FN:2496,_ZN4JsonL11cloneUniqueISt5arrayINSt7__cxx1112basic_stringIcSt11char_traitsIcESaIcEEELm3EEEESt10unique_ptrIT_St14default_deleteISA_EERKSD_
FN:2514,_ZN4Json5Value13nullSingletonEv
FN:2556,_ZN4JsonL15integerToDoubleEm
FN:2561,_ZN4JsonL15integerToDoubleIiEEdT_
FN:2561,_ZN4JsonL15integerToDoubleIlEEdT_
FN:2561,_ZN4JsonL15integerToDoubleIjEEdT_
FN:2566,_ZN4JsonL7InRangeIiiEEbdT_T0_
FN:2566,_ZN4JsonL7InRangeIijEEbdT_T0_
FN:2566,_ZN4JsonL7InRangeIimEEbdT_T0_
FN:2566,_ZN4JsonL7InRangeIllEEbdT_T0_
FN:2578,_ZN4JsonL20duplicateStringValueEPKcm
FN:2596,_ZN4JsonL29duplicateAndPrefixStringValueEPKcj
FN:2616,_ZN4JsonL20decodePrefixedStringEbPKcPjPS1_
FN:2647,_ZN4JsonL26releasePrefixedStringValueEPc
FN:2648,_ZN4JsonL18releaseStringValueEPcj
FN:2668,_ZN4Json9ExceptionC2ENSt7__cxx1112basic_stringIcSt11char_traitsIcESaIcEEE
FN:2669,_ZN4Json9ExceptionD0Ev
FN:2669,_ZN4Json9ExceptionD2Ev
FN:2670,_ZNK4Json9Exception4whatEv
FN:2671,_ZN4Json12RuntimeErrorC2ERKNSt7__cxx1112basic_stringIcSt11char_traitsIcESaIcEEE
FN:2672,_ZN4Json10LogicErrorC2ERKNSt7__cxx1112basic_stringIcSt11char_traitsIcESaIcEEE
FN:2673,_ZN4Json17throwRuntimeErrorERKNSt7__cxx1112basic_stringIcSt11char_traitsIcESaIcEEE
FN:2676,_ZN4Json15throwLogicErrorERKNSt7__cxx1112basic_stringIcSt11char_traitsIcESaIcEEE
FN:2693,_ZN4Json5Value8CZStringC2Ej
FN:2695,_ZN4Json5Value8CZStringC2EPKcjNS1_17DuplicationPolicyE
FN:2704,_ZN4Json5Value8CZStringC2ERKS1_
FN:2720,_ZN4Json5Value8CZStringC2EOS1_
FN:2725,_ZN4Json5Value8CZStringD2Ev
FN:2735,_ZN4Json5Value8CZString4swapERS1_
FN:2740,_ZN4Json5Value8CZStringaSERKS1_
FN:2746,_ZN4Json5Value8CZStringaSEOS1_
FN:2753,_ZNK4Json5Value8CZStringltERKS1_
FN:2770,_ZNK4Json5Value8CZStringeqERKS1_
FN:2784,_ZNK4Json5Value8CZString5indexEv
FN:2787,_ZNK4Json5Value8CZString4dataEv
FN:2788,_ZNK4Json5Value8CZString6lengthEv
FN:2789,_ZNK4Json5Value8CZString14isStaticStringEv
FN:2805,_ZN4Json5ValueC2ENS_9ValueTypeE
FN:2834,_ZN4Json5ValueC2Ei
FN:2839,_ZN4Json5ValueC2Ej
FN:2844,_ZN4Json5ValueC2El
FN:2848,_ZN4Json5ValueC2Em
FN:2854,_ZN4Json5ValueC2Ed
FN:2859,_ZN4Json5ValueC2EPKc
FN:2867,_ZN4Json5ValueC2EPKcS2_
FN:2873,_ZN4Json5ValueC2ERKNSt7__cxx1112basic_stringIcSt11char_traitsIcESaIcEEE
FN:2879,_ZN4Json5ValueC2ERKNS_12StaticStringE
FN:2892,_ZN4Json5ValueC2Eb
FN:2897,_ZN4Json5ValueC2ERKS0_
FN:2902,_ZN4Json5ValueC2EOS0_
FN:2907,_ZN4Json5ValueD2Ev
FN:2912,_ZN4Json5ValueaSERKS0_
FN:2917,_ZN4Json5ValueaSEOS0_
FN:2922,_ZN4Json5Value11swapPayloadERS0_
FN:2927,_ZN4Json5Value11copyPayloadERKS0_
FN:2932,_ZN4Json5Value4swapERS0_
FN:2939,_ZN4Json5Value4copyERKS0_
FN:2944,_ZNK4Json5Value4typeEv
FN:2948,_ZNK4Json5Value7compareERKS0_
FN:2956,_ZNK4Json5ValueltERKS0_
FN:3008,_ZNK4Json5ValueleERKS0_
FN:3010,_ZNK4Json5ValuegeERKS0_
FN:3012,_ZNK4Json5ValuegtERKS0_
FN:3014,_ZNK4Json5ValueeqERKS0_
FN:3056,_ZNK4Json5ValueneERKS0_
FN:3058,_ZNK4Json5Value9asCStringEv
FN:3084,_ZNK4Json5Value9getStringEPPKcS3_
FN:3096,_ZNK4Json5Value8asStringB5cxx11Ev
FN:3131,_ZNK4Json5Value5asIntEv
FN:3153,_ZNK4Json5Value6asUIntEv
FN:3177,_ZNK4Json5Value7asInt64Ev
FN:3198,_ZNK4Json5Value8asUInt64Ev
FN:3220,_ZNK4Json5Value12asLargestIntEv
FN:3228,_ZNK4Json5Value13asLargestUIntEv
FN:3236,_ZNK4Json5Value8asDoubleEv
FN:3258,_ZNK4Json5Value7asFloatEv
FN:3281,_ZNK4Json5Value6asBoolEv
FN:3302,_ZNK4Json5Value15isConvertibleToENS_9ValueTypeE
FN:3336,_ZNK4Json5Value4sizeEv
FN:3359,_ZNK4Json5Value5emptyEv
FN:3366,_ZNK4Json5ValuecvbEv
FN:3368,_ZN4Json5Value5clearEv
FN:3384,_ZN4Json5Value6resizeEj
FN:3402,_ZN4Json5ValueixEj
FN:3418,_ZN4Json5ValueixEi
FN:3425,_ZNK4Json5ValueixEj
FN:3438,_ZNK4Json5ValueixEi
FN:3445,_ZN4Json5Value9initBasicENS_9ValueTypeEb
FN:3453,_ZN4Json5Value10dupPayloadERKS0_
FN:3485,_ZN4Json5Value14releasePayloadEv
FN:3506,_ZN4Json5Value7dupMetaERKS0_
FN:3515,_ZN4Json5Value16resolveReferenceEPKc
FN:3534,_ZN4Json5Value16resolveReferenceEPKcS2_
FN:3552,_ZNK4Json5Value3getEjRKS0_
FN:3557,_ZNK4Json5Value12isValidIndexEj
FN:3559,_ZNK4Json5Value4findEPKcS2_
FN:3572,_ZN4Json5Value6demandEPKcS2_
FN:3578,_ZNK4Json5ValueixEPKc
FN:3584,_ZNK4Json5ValueixERKNSt7__cxx1112basic_stringIcSt11char_traitsIcESaIcEEE
FN:3591,_ZN4Json5ValueixEPKc
FN:3595,_ZN4Json5ValueixERKNSt7__cxx1112basic_stringIcSt11char_traitsIcESaIcEEE
FN:3599,_ZN4Json5ValueixERKNS_12StaticStringE
FN:3615,_ZN4Json5Value6appendERKS0_
FN:3617,_ZN4Json5Value6appendEOS0_
FN:3621,_ZNK4Json5Value3getEPKcS2_RKS0_
FN:3627,_ZNK4Json5Value3getEPKcRKS0_
FN:3630,_ZNK4Json5Value3getERKNSt7__cxx1112basic_stringIcSt11char_traitsIcESaIcEEERKS0_
FN:3634,_ZN4Json5Value12removeMemberEPKcS2_PS0_
FN:3648,_ZN4Json5Value12removeMemberEPKcPS0_
FN:3651,_ZN4Json5Value12removeMemberERKNSt7__cxx1112basic_stringIcSt11char_traitsIcESaIcEEEPS0_
FN:3654,_ZN4Json5Value12removeMemberEPKc
FN:3663,_ZN4Json5Value12removeMemberERKNSt7__cxx1112basic_stringIcSt11char_traitsIcESaIcEEE
FN:3665,_ZN4Json5Value11removeIndexEjPS0_
FN:3696,_ZNK4Json5Value8isMemberEPKcS2_
FN:3700,_ZNK4Json5Value8isMemberEPKc
FN:3703,_ZNK4Json5Value8isMemberERKNSt7__cxx1112basic_stringIcSt11char_traitsIcESaIcEEE
FN:3713,_ZNK4Json5Value14getMemberNamesB5cxx11Ev
FN:3754,_ZN4JsonL10IsIntegralEd
FN:3759,_ZNK4Json5Value6isNullEv
FN:3761,_ZNK4Json5Value6isBoolEv
FN:3763,_ZNK4Json5Value5isIntEv
FN:3782,_ZNK4Json5Value6isUIntEv
FN:3805,_ZNK4Json5Value7isInt64Ev
FN:3825,_ZNK4Json5Value8isUInt64Ev
FN:3845,_ZNK4Json5Value10isIntegralEv
FN:3867,_ZNK4Json5Value8isDoubleEv
FN:3871,_ZNK4Json5Value9isNumericEv
FN:3873,_ZNK4Json5Value8isStringEv
FN:3875,_ZNK4Json5Value7isArrayEv
FN:3877,_ZNK4Json5Value8isObjectEv
FN:3879,_ZN4Json5Value8CommentsC2ERKS1_
FN:3882,_ZN4Json5Value8CommentsC2EOS1_
FN:3884,_ZN4Json5Value8CommentsaSERKS1_
FN:3889,_ZN4Json5Value8CommentsaSEOS1_
FN:3894,_ZNK4Json5Value8Comments3hasENS_16CommentPlacementE
FN:3898,_ZNK4Json5Value8Comments3getB5cxx11ENS_16CommentPlacementE
FN:3904,_ZN4Json5Value8Comments3setENS_16CommentPlacementENSt7__cxx1112basic_stringIcSt11char_traitsIcESaIcEEE
FN:3911,_ZN4Json5Value10setCommentENSt7__cxx1112basic_stringIcSt11char_traitsIcESaIcEEENS_16CommentPlacementE
FN:3923,_ZNK4Json5Value10hasCommentENS_16CommentPlacementE
FN:3927,_ZNK4Json5Value10getCommentB5cxx11ENS_16CommentPlacementE
FN:3931,_ZN4Json5Value14setOffsetStartEl
FN:3933,_ZN4Json5Value14setOffsetLimitEl
FN:3935,_ZNK4Json5Value14getOffsetStartEv
FN:3937,_ZNK4Json5Value14getOffsetLimitEv
FN:3939,_ZNK4Json5Value14toStyledStringB5cxx11Ev
FN:3949,_ZNK4Json5Value5beginEv
FN:3962,_ZNK4Json5Value3endEv
FN:3975,_ZN4Json5Value5beginEv
FN:3988,_ZN4Json5Value3endEv
FN:4004,_ZN4Json12PathArgumentC2Ev
FN:4006,_ZN4Json12PathArgumentC2Ej
FN:4009,_ZN4Json12PathArgumentC2EPKc
FN:4012,_ZN4Json12PathArgumentC2ERKNSt7__cxx1112basic_stringIcSt11char_traitsIcESaIcEEE
FN:4018,_ZN4Json4PathC2ERKNSt7__cxx1112basic_stringIcSt11char_traitsIcESaIcEEERKNS_12PathArgumentESB_SB_SB_SB_
FN:4034,_ZN4Json4Path8makePathERKNSt7__cxx1112basic_stringIcSt11char_traitsIcESaIcEEERKSt6vectorIPKNS_12PathArgumentESaISC_EE
FN:4065,_ZN4Json4Path12addPathInArgERKNSt7__cxx1112basic_stringIcSt11char_traitsIcESaIcEEERKSt6vectorIPKNS_12PathArgumentESaISC_EERN9__gnu_cxx17__normal_iteratorIPKSC_SE_EENSA_4KindE
FN:4078,_ZN4Json4Path11invalidPathERKNSt7__cxx1112basic_stringIcSt11char_traitsIcESaIcEEEi
FN:4082,_ZNK4Json4Path7resolveERKNS_5ValueE
FN:4107,_ZNK4Json4Path7resolveERKNS_5ValueES3_
FN:4125,_ZNK4Json4Path4makeERNS_5ValueE
FN:4249,_ZN4Json13valueToStringB5cxx11El
FN:4265,_ZN4Json13valueToStringB5cxx11Em
FN:4275,_ZN4Json13valueToStringB5cxx11Ei
FN:4277,_ZN4Json13valueToStringB5cxx11Ej
FN:4282,_ZN4Json12_GLOBAL__N_113valueToStringEdbjNS_13PrecisionTypeE
FN:4328,_ZN4Json13valueToStringB5cxx11EdjNS_13PrecisionTypeE
FN:4334,_ZN4Json13valueToStringB5cxx11Eb
FN:4336,_ZN4JsonL24isAnyCharRequiredQuotingEPKcm
FN:4348,_ZN4JsonL15utf8ToCodepointERPKcS1_
FN:4416,_ZN4JsonL10toHex16BitEj
FN:4427,_ZN4JsonL20valueToQuotedStringNEPKcj
FN:4496,_ZN4Json19valueToQuotedStringB5cxx11EPKc
FN:4511,_ZN4Json10FastWriter23enableYAMLCompatibilityEv
FN:4513,_ZN4Json10FastWriter20dropNullPlaceholdersEv
FN:4515,_ZN4Json10FastWriter18omitEndingLineFeedEv
FN:4517,_ZN4Json10FastWriter5writeB5cxx11ERKNS_5ValueE
FN:4525,_ZN4Json10FastWriter10writeValueERKNS_5ValueE
FN:4584,_ZN4Json12StyledWriter5writeB5cxx11ERKNS_5ValueE
FN:4595,_ZN4Json12StyledWriter10writeValueERKNS_5ValueE
FN:4655,_ZN4Json12StyledWriter15writeArrayValueERKNS_5ValueE
FN:4698,_ZN4Json12StyledWriter16isMultilineArrayERKNS_5ValueE
FN:4725,_ZN4Json12StyledWriter9pushValueERKNSt7__cxx1112basic_stringIcSt11char_traitsIcESaIcEEE
FN:4732,_ZN4Json12StyledWriter11writeIndentEv
FN:4743,_ZN4Json12StyledWriter15writeWithIndentERKNSt7__cxx1112basic_stringIcSt11char_traitsIcESaIcEEE
FN:4748,_ZN4Json12StyledWriter6indentEv
FN:4750,_ZN4Json12StyledWriter8unindentEv
FN:4755,_ZN4Json12StyledWriter23writeCommentBeforeValueERKNS_5ValueE
FN:4774,_ZN4Json12StyledWriter32writeCommentAfterValueOnSameLineERKNS_5ValueE
FN:4785,_ZN4Json12StyledWriter18hasCommentForValueERKNS_5ValueE
FN:4794,_ZN4Json18StyledStreamWriterC2ENSt7__cxx1112basic_stringIcSt11char_traitsIcESaIcEEE
FN:4798,_ZN4Json18StyledStreamWriter5writeERSoRKNS_5ValueE
FN:4813,_ZN4Json18StyledStreamWriter10writeValueERKNS_5ValueE
FN:4873,_ZN4Json18StyledStreamWriter15writeArrayValueERKNS_5ValueE
FN:4919,_ZN4Json18StyledStreamWriter16isMultilineArrayERKNS_5ValueE
FN:4946,_ZN4Json18StyledStreamWriter9pushValueERKNSt7__cxx1112basic_stringIcSt11char_traitsIcESaIcEEE
FN:4953,_ZN4Json18StyledStreamWriter11writeIndentEv
FN:4961,_ZN4Json18StyledStreamWriter15writeWithIndentERKNSt7__cxx1112basic_stringIcSt11char_traitsIcESaIcEEE
FN:4968,_ZN4Json18StyledStreamWriter6indentEv
FN:4970,_ZN4Json18StyledStreamWriter8unindentEv
FN:4975,_ZN4Json18StyledStreamWriter23writeCommentBeforeValueERKNS_5ValueE
FN:4993,_ZN4Json18StyledStreamWriter32writeCommentAfterValueOnSameLineERKNS_5ValueE
FN:5004,_ZN4Json18StyledStreamWriter18hasCommentForValueERKNS_5ValueE
FN:5063,_ZN4Json23BuiltStyledStreamWriterC2ENSt7__cxx1112basic_stringIcSt11char_traitsIcESaIcEEENS_12CommentStyle4EnumES6_S6_S6_bjNS_13PrecisionTypeE
FN:5077,_ZN4Json23BuiltStyledStreamWriter5writeERKNS_5ValueEPSo
FN:5092,_ZN4Json23BuiltStyledStreamWriter10writeValueERKNS_5ValueE
FN:5154,_ZN4Json23BuiltStyledStreamWriter15writeArrayValueERKNS_5ValueE
FN:5204,_ZN4Json23BuiltStyledStreamWriter16isMultilineArrayERKNS_5ValueE
FN:5231,_ZN4Json23BuiltStyledStreamWriter9pushValueERKNSt7__cxx1112basic_stringIcSt11char_traitsIcESaIcEEE
FN:5238,_ZN4Json23BuiltStyledStreamWriter11writeIndentEv
FN:5250,_ZN4Json23BuiltStyledStreamWriter15writeWithIndentERKNSt7__cxx1112basic_stringIcSt11char_traitsIcESaIcEEE
FN:5257,_ZN4Json23BuiltStyledStreamWriter6indentEv
FN:5259,_ZN4Json23BuiltStyledStreamWriter8unindentEv
FN:5264,_ZN4Json23BuiltStyledStreamWriter23writeCommentBeforeValueERKNS_5ValueE
FN:5284,_ZN4Json23BuiltStyledStreamWriter32writeCommentAfterValueOnSameLineERKNS_5ValueE
FN:5298,_ZN4Json23BuiltStyledStreamWriter18hasCommentForValueERKNS_5ValueE
FN:5307,_ZN4Json12StreamWriterC2Ev
FN:5310,_ZN4Json19StreamWriterBuilderC2Ev
FN:5312,_ZNK4Json19StreamWriterBuilder15newStreamWriterEv
FN:5353,_ZN4JsonL18getValidWriterKeysEPSt3setINSt7__cxx1112basic_stringIcSt11char_traitsIcESaIcEEESt4lessIS6_ESaIS6_EE
FN:5363,_ZNK4Json19StreamWriterBuilder8validateEPNS_5ValueE
FN:5380,_ZN4Json19StreamWriterBuilderixERKNSt7__cxx1112basic_stringIcSt11char_traitsIcESaIcEEE
FN:5384,_ZN4Json19StreamWriterBuilder11setDefaultsEPNS_5ValueE
FN:5396,_ZN4Json11writeStringB5cxx11ERKNS_12StreamWriter7FactoryERKNS_5ValueE
FN:5403,_ZN4JsonlsERSoRKNS_5ValueE
FNDA:0,_ZN4JsonL18getValidReaderKeysEPSt3setINSt7__cxx1112basic_stringIcSt11char_traitsIcESaIcEEESt4lessIS6_ESaIS6_EE
FNDA:0,_ZN4Json10FastWriter18omitEndingLineFeedEv
FNDA:0,_ZN4Json5Value11copyPayloadERKS0_
FNDA:0,_ZN4Json19StreamWriterBuilderixERKNSt7__cxx1112basic_stringIcSt11char_traitsIcESaIcEEE
FNDA:0,_ZN4Json12StyledWriter10writeValueERKNS_5ValueE
FNDA:0,_ZN4Json6Reader10skipSpacesEv
FNDA:0,_ZNK4Json5Value5emptyEv
FNDA:0,_ZNK4Json5Value9asCStringEv
FNDA:0,_ZN4Json23BuiltStyledStreamWriter11writeIndentEv
FNDA:0,_ZNK4Json5Value8CZString14isStaticStringEv
FNDA:0,_ZNK4Json5Value10getCommentB5cxx11ENS_16CommentPlacementE
FNDA:0,_ZN4Json23BuiltStyledStreamWriter5writeERKNS_5ValueEPSo
FNDA:0,_ZN4Json6Reader18addErrorAndRecoverERKNSt7__cxx1112basic_stringIcSt11char_traitsIcESaIcEEERNS0_5TokenENS0_9TokenTypeE
FNDA:0,_ZN4Json23BuiltStyledStreamWriter6indentEv
FNDA:0,_ZN4Json6Reader9readTokenERNS0_5TokenE
FNDA:19,_ZN4Json9OurReader12decodeNumberERNS0_5TokenE
FNDA:0,_ZN4Json6Reader10readObjectERNS0_5TokenE
FNDA:1849,_ZN4Json5Value11swapPayloadERS0_
FNDA:0,_ZN4Json18StyledStreamWriter32writeCommentAfterValueOnSameLineERKNS_5ValueE
FNDA:0,_ZN4Json23BuiltStyledStreamWriter8unindentEv
FNDA:969,_ZNK4Json5Value4findEPKcS2_
FNDA:900,_ZN4Json9OurReader5matchEPKci
FNDA:0,_ZN4Json18ValueConstIteratoraSERKNS_17ValueIteratorBaseE
FNDA:90,_ZN4Json17ValueIteratorBaseC2ERKSt17_Rb_tree_iteratorISt4pairIKNS_5Value8CZStringES3_EE
FNDA:19,_ZN4Json9OurReader10readNumberEb
FNDA:19,_ZN4Json5ValueC2El
FNDA:0,_ZNK4Json6Reader25getFormattedErrorMessagesB5cxx11Ev
FNDA:0,_ZNK4Json19StreamWriterBuilder15newStreamWriterEv
FNDA:0,_ZNK4Json9Exception4whatEv
FNDA:0,_ZN4JsonL7InRangeIimEEbdT_T0_
FNDA:0,_ZN4JsonL10IsIntegralEd
FNDA:0,_ZN4Json6Reader12decodeDoubleERNS0_5TokenE
FNDA:0,_ZN4Json9OurReader21readStringSingleQuoteEv
FNDA:0,_ZNK4Json5Value8isObjectEv
FNDA:0,_ZNK4Json5Value14getMemberNamesB5cxx11Ev
FNDA:442,_ZN4Json5ValueC2ENS_9ValueTypeE
FNDA:0,_ZN4Json9OurReader12normalizeEOLB5cxx11EPKcS2_
FNDA:0,_ZN4Json11writeStringB5cxx11ERKNS_12StreamWriter7FactoryERKNS_5ValueE
FNDA:155,_ZN4Json9OurReader10readObjectERNS0_5TokenE
FNDA:0,_ZN4Json6Reader16recoverFromErrorENS0_9TokenTypeE
FNDA:453,_ZNK4Json5Value8isMemberEPKc
FNDA:0,_ZN4Json12RuntimeErrorC2ERKNSt7__cxx1112basic_stringIcSt11char_traitsIcESaIcEEE
FNDA:0,_ZNK4Json5Value7asFloatEv
FNDA:944,_ZN4Json9OurReader10readStringEv
FNDA:0,_ZN4Json9ExceptionD2Ev
FNDA:0,_ZN4Json17CharReaderBuilderixERKNSt7__cxx1112basic_stringIcSt11char_traitsIcESaIcEEE
FNDA:0,_ZN4Json18StyledStreamWriter23writeCommentBeforeValueERKNS_5ValueE
FNDA:2,_ZN4Json9OurReaderC2ERKNS_11OurFeaturesE
FNDA:0,_ZNK4Json5Value8isStringEv
FNDA:0,_ZN4Json5Value8CZStringaSEOS1_
FNDA:2,_ZNK4Json17CharReaderBuilder13newCharReaderEv
FNDA:0,_ZN4Json18StyledStreamWriter6indentEv
FNDA:0,_ZNK4Json4Path7resolveERKNS_5ValueE
FNDA:0,_ZNK4Json5Value7compareERKS0_
FNDA:0,_ZN4Json13valueToStringB5cxx11Ej
FNDA:453,_ZNK4Json5Value8isMemberEPKcS2_
FNDA:0,_ZNK4Json6Reader4goodEv
FNDA:0,_ZN4Json17throwRuntimeErrorERKNSt7__cxx1112basic_stringIcSt11char_traitsIcESaIcEEE
FNDA:0,_ZN4Json23BuiltStyledStreamWriter10writeValueERKNS_5ValueE
FNDA:0,_ZN4Json9ExceptionC2ENSt7__cxx1112basic_stringIcSt11char_traitsIcESaIcEEE
FNDA:0,_ZNK4Json5Value10hasCommentENS_16CommentPlacementE
FNDA:2,_ZN4Json17CharReaderBuilder11setDefaultsEPNS_5ValueE
FNDA:6842,_ZN4JsonL11cloneUniqueISt5arrayINSt7__cxx1112basic_stringIcSt11char_traitsIcESaIcEEELm3EEEESt10unique_ptrIT_St14default_deleteISA_EERKSD_
FNDA:0,_ZN4JsonlsERSoRKNS_5ValueE
FNDA:0,_ZN4Json6Reader12normalizeEOLB5cxx11EPKcS2_
FNDA:0,_ZN4Json19StreamWriterBuilder11setDefaultsEPNS_5ValueE
FNDA:0,_ZN4JsonL7InRangeIijEEbdT_T0_
FNDA:0,_ZNK4Json5Value7isArrayEv
FNDA:0,_ZNK4Json5Value14getOffsetLimitEv
FNDA:0,_ZN4Json9OurReader22decodeUnicodeCodePointERNS0_5TokenERPKcS4_Rj
FNDA:12890,_ZNK4Json5Value8CZStringltERKS1_
FNDA:2,_ZN4Json13OurCharReader5parseEPKcS2_PNS_5ValueEPNSt7__cxx1112basic_stringIcSt11char_traitsIcESaIcEEE
FNDA:148,_ZNK4Json5Value8CZString5indexEv
FNDA:4887,_ZN4Json9OurReader10skipSpacesEv
FNDA:0,_ZN4JsonL18getValidWriterKeysEPSt3setINSt7__cxx1112basic_stringIcSt11char_traitsIcESaIcEEESt4lessIS6_ESaIS6_EE
FNDA:2,_ZNK4Json9OurReader25getFormattedErrorMessagesB5cxx11Ev
FNDA:1828,_ZN4Json5Value13nullSingletonEv
FNDA:0,_ZN4Json12_GLOBAL__N_113valueToStringEdbjNS_13PrecisionTypeE
FNDA:2519,_ZN4Json5ValueixEj
FNDA:0,_ZN4Json21fixNumericLocaleInputIPcEEvT_S2_
FNDA:0,_ZNK4Json5ValueixEi
FNDA:473,_ZN4Json5ValueC2ERKNSt7__cxx1112basic_stringIcSt11char_traitsIcESaIcEEE
FNDA:0,_ZN4Json4Path11invalidPathERKNSt7__cxx1112basic_stringIcSt11char_traitsIcESaIcEEEi
FNDA:0,_ZN4Json9ExceptionD0Ev
FNDA:7,_ZNK4Json5Value5isIntEv
FNDA:0,_ZN4Json23BuiltStyledStreamWriter15writeWithIndentERKNSt7__cxx1112basic_stringIcSt11char_traitsIcESaIcEEE
FNDA:0,_ZNK4Json5Value9isNumericEv
FNDA:0,_ZNK4Json5Value14toStyledStringB5cxx11Ev
FNDA:0,_ZNK4Json5Value8Comments3getB5cxx11ENS_16CommentPlacementE
FNDA:0,_ZNK4Json5Value8CZString6lengthEv
FNDA:0,_ZN4JsonL15codePointToUTF8Ej
FNDA:4626,_ZN4Json9OurReader9readTokenERNS0_5TokenE
FNDA:151,_ZNK4Json17ValueIteratorBase5derefEv
FNDA:0,_ZN4Json6Reader5matchEPKci
FNDA:0,_ZN4Json5ValueaSERKS0_
FNDA:0,_ZN4Json5Value12removeMemberEPKcS2_PS0_
FNDA:0,_ZN4Json9OurReader12decodeDoubleERNS0_5TokenERNS_5ValueE
FNDA:2,_ZN4JsonrsERSiRNS_5ValueE
FNDA:45,_ZNK4Json5Value5beginEv
FNDA:0,_ZNK4Json5Value8isDoubleEv
FNDA:0,_ZNK4Json17ValueIteratorBase10memberNameEv
FNDA:1264,_ZN4JsonL29duplicateAndPrefixStringValueEPKcj
FNDA:0,_ZN4Json10FastWriter23enableYAMLCompatibilityEv
FNDA:0,_ZN4Json12PathArgumentC2Ev
FNDA:0,_ZN4Json17ValueIteratorBaseC2Ev
FNDA:0,_ZN4Json18StyledStreamWriter10writeValueERKNS_5ValueE
FNDA:1365,_ZNK4Json5Value8CZStringeqERKS1_
FNDA:1435,_ZN4JsonL20duplicateStringValueEPKcm
FNDA:6842,_ZN4Json5Value10dupPayloadERKS0_
FNDA:0,_ZN4Json5Value8CZStringC2EOS1_
FNDA:0,_ZN4Json5Value12removeMemberERKNSt7__cxx1112basic_stringIcSt11char_traitsIcESaIcEEEPS0_
FNDA:0,_ZN4Json13valueToStringB5cxx11EdjNS_13PrecisionTypeE
FNDA:0,_ZN4Json12StyledWriter9pushValueERKNSt7__cxx1112basic_stringIcSt11char_traitsIcESaIcEEE
FNDA:0,_ZNK4Json5Value15isConvertibleToENS_9ValueTypeE
FNDA:9038,_ZN4Json9OurReader12currentValueEv
FNDA:0,_ZN4Json19valueToQuotedStringB5cxx11EPKc
FNDA:10999,_ZN4Json9OurReader11getNextCharEv
FNDA:0,_ZN4Json6Reader11getNextCharEv
FNDA:0,_ZNK4Json5Value3getEjRKS0_
FNDA:90,_ZN4Json18ValueConstIteratorC2ERKSt17_Rb_tree_iteratorISt4pairIKNS_5Value8CZStringES3_EE
FNDA:918,_ZN4Json5ValueC2Eb
FNDA:0,_ZNK4Json6Reader19getStructuredErrorsEv
FNDA:0,_ZNK4Json17ValueIteratorBase3keyEv
FNDA:41,_ZN4Json5Value4swapERS0_
FNDA:0,_ZN4Json5ValueC2Ej
FNDA:0,_ZN4Json6ReaderC2ERKNS_8FeaturesE
FNDA:0,_ZN4Json9OurReader11readCommentEv
FNDA:0,_ZN4Json5ValueC2EOS0_
FNDA:0,_ZN4Json6Reader9readValueEv
FNDA:261,_ZN4Json9OurReader9readArrayERNS0_5TokenE
FNDA:0,_ZN4Json15throwLogicErrorERKNSt7__cxx1112basic_stringIcSt11char_traitsIcESaIcEEE
FNDA:0,_ZN4Json6Reader12decodeStringERNS0_5TokenE
FNDA:0,_ZN4Json12StreamWriterC2Ev
FNDA:0,_ZN4Json9OurReader16recoverFromErrorENS0_9TokenTypeE
FNDA:0,_ZNK4Json17CharReaderBuilder8validateEPNS_5ValueE
FNDA:0,_ZNK4Json5ValueixEj
FNDA:0,_ZN4Json6Reader27decodeUnicodeEscapeSequenceERNS0_5TokenERPKcS4_Rj
FNDA:0,_ZNK4Json5ValueixERKNSt7__cxx1112basic_stringIcSt11char_traitsIcESaIcEEE
FNDA:0,_ZNK4Json5Value8asDoubleEv
FNDA:0,_ZNK4Json9OurReader4goodEv
FNDA:0,_ZN4Json9OurReader9pushErrorERKNS_5ValueERKNSt7__cxx1112basic_stringIcSt11char_traitsIcESaIcEEE
FNDA:1936,_ZN4Json5Value8CommentsaSEOS1_
FNDA:0,_ZN4JsonL7InRangeIiiEEbdT_T0_
FNDA:0,_ZN4Json5Value10setCommentENSt7__cxx1112basic_stringIcSt11char_traitsIcESaIcEEENS_16CommentPlacementE
FNDA:0,_ZN4Json23BuiltStyledStreamWriter32writeCommentAfterValueOnSameLineERKNS_5ValueE
FNDA:0,_ZN4Json8Features3allEv
FNDA:0,_ZN4Json9OurReader15containsNewLineEPKcS2_
FNDA:0,_ZN4Json9OurReader17readCStyleCommentEv
FNDA:0,_ZNK4Json5Value9getStringEPPKcS3_
FNDA:0,_ZNK4Json6Reader24getLocationLineAndColumnB5cxx11EPKc
FNDA:471,_ZNK4Json5Value8asStringB5cxx11Ev
FNDA:0,_ZN4Json12StyledWriter11writeIndentEv
FNDA:0,_ZNK4Json5ValuegeERKS0_
FNDA:0,_ZNK4Json5ValueltERKS0_
FNDA:0,_ZN4Json5Value6appendERKS0_
FNDA:0,_ZN4Json19StreamWriterBuilderC2Ev
FNDA:0,_ZNK4Json5Value6isBoolEv
FNDA:216,_ZNK4Json5Value4sizeEv
FNDA:0,_ZNK4Json4Path4makeERNS_5ValueE
FNDA:0,_ZNK4Json5ValuecvbEv
FNDA:0,_ZNK4Json5Value8CZString4dataEv
FNDA:0,_ZN4Json9OurReader12decodeDoubleERNS0_5TokenE
FNDA:0,_ZN4Json4Path12addPathInArgERKNSt7__cxx1112basic_stringIcSt11char_traitsIcESaIcEEERKSt6vectorIPKNS_12PathArgumentESaISC_EERN9__gnu_cxx17__normal_iteratorIPKSC_SE_EENSA_4KindE
FNDA:0,_ZN4Json6Reader12decodeDoubleERNS0_5TokenERNS_5ValueE
FNDA:0,_ZN4Json9OurReader10addCommentEPKcS2_NS_16CommentPlacementE
FNDA:0,_ZNK4Json6Reader24getFormatedErrorMessagesB5cxx11Ev
FNDA:0,_ZN4Json10FastWriter5writeB5cxx11ERKNS_5ValueE
FNDA:1810,_ZN4Json9OurReader17skipCommentTokensERNS0_5TokenE
FNDA:0,_ZN4Json13valueToStringB5cxx11Em
FNDA:516,_ZNK4Json5ValueixEPKc
FNDA:6842,_ZN4Json5Value7dupMetaERKS0_
FNDA:0,_ZN4Json6Reader12decodeNumberERNS0_5TokenERNS_5ValueE
FNDA:2,_ZNK4Json5Value6isUIntEv
FNDA:0,_ZN4Json12StyledWriter5writeB5cxx11ERKNS_5ValueE
FNDA:0,_ZNK4Json17ValueIteratorBase10memberNameEPPKc
FNDA:471,_ZN4Json5ValueixERKNSt7__cxx1112basic_stringIcSt11char_traitsIcESaIcEEE
FNDA:0,_ZN4Json18StyledStreamWriter11writeIndentEv
FNDA:0,_ZNK4Json5Value8asUInt64Ev
FNDA:1854,_ZN4Json5Value9initBasicENS_9ValueTypeEb
FNDA:0,_ZNK4Json9OurReader24getLocationLineAndColumnB5cxx11EPKc
FNDA:8696,_ZN4Json5ValueD2Ev
FNDA:2,_ZN4Json13OurCharReaderC2EbRKNS_11OurFeaturesE
FNDA:2,_ZN4Json15parseFromStreamERKNS_10CharReader7FactoryERSiPNS_5ValueEPNSt7__cxx1112basic_stringIcSt11char_traitsIcESaIcEEE
FNDA:0,_ZN4Json6Reader8addErrorERKNSt7__cxx1112basic_stringIcSt11char_traitsIcESaIcEEERNS0_5TokenEPKc
FNDA:0,_ZN4Json12StyledWriter8unindentEv
FNDA:36034,_ZNK4Json5Value4typeEv
FNDA:0,_ZNK4Json5Value6isNullEv
FNDA:0,_ZN4Json18StyledStreamWriter16isMultilineArrayERKNS_5ValueE
FNDA:0,_ZN4Json6Reader12currentValueEv
FNDA:0,_ZN4Json5ValueC2EPKcS2_
FNDA:0,_ZN4Json6Reader19readCppStyleCommentEv
FNDA:0,_ZN4Json18ValueConstIteratorC2ERKNS_13ValueIteratorE
FNDA:0,_ZN4Json18StyledStreamWriter15writeArrayValueERKNS_5ValueE
FNDA:0,_ZNK4Json5Value3getERKNSt7__cxx1112basic_stringIcSt11char_traitsIcESaIcEEERKS0_
FNDA:6624,_ZN4Json5Value8CZStringC2ERKS1_
FNDA:2,_ZN4Json9OurReader5parseEPKcS2_RNS_5ValueEb
FNDA:0,_ZN4Json6Reader17readCStyleCommentEv
FNDA:0,_ZN4Json23BuiltStyledStreamWriter15writeArrayValueERKNS_5ValueE
FNDA:0,_ZN4Json10LogicErrorC2ERKNSt7__cxx1112basic_stringIcSt11char_traitsIcESaIcEEE
FNDA:151,_ZN4Json17ValueIteratorBase9incrementEv
FNDA:0,_ZN4Json18StyledStreamWriter8unindentEv
FNDA:0,_ZN4Json5Value8CommentsC2ERKS1_
FNDA:1808,_ZN4Json5Value14setOffsetLimitEl
FNDA:0,_ZN4JsonL15integerToDoubleIjEEdT_
FNDA:0,_ZN4Json6Reader5parseEPKcS2_RNS_5ValueEb
FNDA:0,_ZN4Json13ValueIteratorC2ERKNS_18ValueConstIteratorE
FNDA:0,_ZN4Json4Path8makePathERKNSt7__cxx1112basic_stringIcSt11char_traitsIcESaIcEEERKSt6vectorIPKNS_12PathArgumentESaISC_EE
FNDA:0,_ZN4Json6Reader9readArrayERNS0_5TokenE
FNDA:0,_ZN4JsonL20valueToQuotedStringNEPKcj
FNDA:0,_ZNK4Json5ValueeqERKS0_
FNDA:0,_ZN4Json18StyledStreamWriterC2ENSt7__cxx1112basic_stringIcSt11char_traitsIcESaIcEEE
FNDA:0,_ZN4Json5Value12removeMemberERKNSt7__cxx1112basic_stringIcSt11char_traitsIcESaIcEEE
FNDA:0,_ZN4Json5Value5clearEv
FNDA:0,_ZN4Json17ValueIteratorBase9decrementEv
FNDA:0,_ZNK4Json5Value12asLargestIntEv
FNDA:2519,_ZN4Json5Value8CZStringC2Ej
FNDA:0,_ZN4Json5Value12removeMemberEPKc
FNDA:0,_ZN4Json6Reader5parseERSiRNS_5ValueEb
FNDA:7,_ZNK4Json5Value5asIntEv
FNDA:0,_ZN4Json18StyledStreamWriter9pushValueERKNSt7__cxx1112basic_stringIcSt11char_traitsIcESaIcEEE
FNDA:0,_ZN4JsonL7InRangeIllEEbdT_T0_
FNDA:0,_ZN4Json6Reader12decodeNumberERNS0_5TokenE
FNDA:0,_ZN4JsonL15integerToDoubleIiEEdT_
FNDA:0,_ZN4Json13valueToStringB5cxx11El
FNDA:1808,_ZN4Json9OurReader9readValueEv
FNDA:0,_ZN4JsonL15integerToDoubleIlEEdT_
FNDA:0,_ZN4Json18StyledStreamWriter5writeERSoRKNS_5ValueE
FNDA:0,_ZN4Json6Reader11readCommentEv
FNDA:0,_ZN4Json5Value3endEv
FNDA:0,_ZN4Json23BuiltStyledStreamWriterC2ENSt7__cxx1112basic_stringIcSt11char_traitsIcESaIcEEENS_12CommentStyle4EnumES6_S6_S6_bjNS_13PrecisionTypeE
FNDA:0,_ZN4Json6Reader10addCommentEPKcS2_NS_16CommentPlacementE
FNDA:0,_ZN4Json8Features10strictModeEv
FNDA:19,_ZN4Json9OurReader12decodeNumberERNS0_5TokenERNS_5ValueE
FNDA:493,_ZN4Json5Value16resolveReferenceEPKcS2_
FNDA:0,_ZN4Json5Value12removeMemberEPKcPS0_
FNDA:0,_ZN4Json12PathArgumentC2Ej
FNDA:2,_ZN4Json17CharReaderBuilderC2Ev
FNDA:0,_ZNK4Json5Value3getEPKcRKS0_
FNDA:0,_ZN4Json13valueToStringB5cxx11Eb
FNDA:0,_ZNK4Json17ValueIteratorBase15computeDistanceERKS0_
FNDA:0,_ZN4Json16fixNumericLocaleIN9__gnu_cxx17__normal_iteratorIPcNSt7__cxx1112basic_stringIcSt11char_traitsIcESaIcEEEEEEET_SB_SB_
FNDA:0,_ZNK4Json5Value7asInt64Ev
FNDA:0,_ZN4Json6Reader10readNumberEv
FNDA:0,_ZN4Json5ValueC2EPKc
FNDA:2,_ZN4Json5ValueC2Ei
FNDA:0,_ZN4Json6Reader17skipCommentTokensERNS0_5TokenE
FNDA:0,_ZN4Json12StyledWriter18hasCommentForValueERKNS_5ValueE
FNDA:0,_ZN4Json12PathArgumentC2EPKc
FNDA:0,_ZN4Json9OurReader8addErrorERKNSt7__cxx1112basic_stringIcSt11char_traitsIcESaIcEEERNS0_5TokenEPKc
FNDA:0,_ZNK4Json5Value12isValidIndexEj
FNDA:0,_ZN4Json6ReaderC2Ev
FNDA:0,_ZN4Json12StyledWriter16isMultilineArrayERKNS_5ValueE
FNDA:0,_ZN4Json4PathC2ERKNSt7__cxx1112basic_stringIcSt11char_traitsIcESaIcEEERKNS_12PathArgumentESB_SB_SB_SB_
FNDA:0,_ZNK4Json5Value7isInt64Ev
FNDA:0,_ZN4Json23BuiltStyledStreamWriter9pushValueERKNSt7__cxx1112basic_stringIcSt11char_traitsIcESaIcEEE
FNDA:2,_ZN4Json11OurFeatures3allEv
FNDA:0,_ZN4JsonL15getDecimalPointEv
FNDA:0,_ZN4Json18StyledStreamWriter15writeWithIndentERKNSt7__cxx1112basic_stringIcSt11char_traitsIcESaIcEEE
FNDA:45,_ZNK4Json5Value3endEv
FNDA:0,_ZN4Json6Reader12decodeStringERNS0_5TokenERNSt7__cxx1112basic_stringIcSt11char_traitsIcESaIcEEE
FNDA:0,_ZN4Json12PathArgumentC2ERKNSt7__cxx1112basic_stringIcSt11char_traitsIcESaIcEEE
FNDA:0,_ZNK4Json6Reader24getLocationLineAndColumnEPKcRiS3_
FNDA:0,_ZN4JsonL12uintToStringEmRPc
FNDA:0,_ZN4Json6Reader15containsNewLineEPKcS2_
FNDA:0,_ZN4Json5Value4copyERKS0_
FNDA:0,_ZNK4Json5Value8isMemberERKNSt7__cxx1112basic_stringIcSt11char_traitsIcESaIcEEE
FNDA:10605,_ZN4Json5Value8CZStringD2Ev
FNDA:1262,_ZN4JsonL20decodePrefixedStringEbPKcPjPS1_
FNDA:0,_ZN4Json5Value6demandEPKcS2_
FNDA:0,_ZNK4Json19StreamWriterBuilder8validateEPNS_5ValueE
FNDA:0,_ZN4Json12StyledWriter32writeCommentAfterValueOnSameLineERKNS_5ValueE
FNDA:1808,_ZN4Json5Value14setOffsetStartEl
FNDA:0,_ZN4Json12StyledWriter15writeWithIndentERKNSt7__cxx1112basic_stringIcSt11char_traitsIcESaIcEEE
FNDA:0,_ZN4JsonL24isAnyCharRequiredQuotingEPKcm
FNDA:0,_ZN4Json5Value8Comments3setENS_16CommentPlacementENSt7__cxx1112basic_stringIcSt11char_traitsIcESaIcEEE
FNDA:0,_ZNK4Json17ValueIteratorBase5indexEv
FNDA:0,_ZN4Json12StyledWriter23writeCommentBeforeValueERKNS_5ValueE
FNDA:196,_ZNK4Json17ValueIteratorBase7isEqualERKS0_
FNDA:0,_ZN4Json23BuiltStyledStreamWriter16isMultilineArrayERKNS_5ValueE
FNDA:0,_ZN4Json13valueToStringB5cxx11Ei
FNDA:0,_ZN4Json5Value16resolveReferenceEPKc
FNDA:0,_ZN4Json9OurReader9pushErrorERKNS_5ValueERKNSt7__cxx1112basic_stringIcSt11char_traitsIcESaIcEEES3_
FNDA:0,_ZN4JsonL15integerToDoubleEm
FNDA:1462,_ZN4Json5Value8CZStringC2EPKcjNS1_17DuplicationPolicyE
FNDA:0,_ZN4Json12StyledWriter15writeArrayValueERKNS_5ValueE
FNDA:0,_ZN4Json17CharReaderBuilder10strictModeEPNS_5ValueE
FNDA:0,_ZN4Json5ValueC2ERKNS_12StaticStringE
FNDA:1435,_ZN4JsonL18releaseStringValueEPcj
FNDA:0,_ZN4Json9OurReader27decodeUnicodeEscapeSequenceERNS0_5TokenERPKcS4_Rj
FNDA:41,_ZN4Json5ValueaSEOS0_
FNDA:6842,_ZN4Json5Value8CommentsaSERKS1_
FNDA:0,_ZN4Json5ValueixERKNS_12StaticStringE
FNDA:0,_ZN4Json23BuiltStyledStreamWriter18hasCommentForValueERKNS_5ValueE
FNDA:0,_ZNK4Json5Value3getEPKcS2_RKS0_
FNDA:0,_ZN4Json9OurReader18addErrorAndRecoverERKNSt7__cxx1112basic_stringIcSt11char_traitsIcESaIcEEERNS0_5TokenENS0_9TokenTypeE
FNDA:0,_ZNK4Json5Value14getOffsetStartEv
FNDA:0,_ZN4JsonL10toHex16BitEj
FNDA:0,_ZNK4Json5Value8isUInt64Ev
FNDA:2,_ZNK4Json5Value6asUIntEv
FNDA:0,_ZN4Json6Reader5parseERKNSt7__cxx1112basic_stringIcSt11char_traitsIcESaIcEEERNS_5ValueEb
FNDA:0,_ZN4Json5Value8CZString4swapERS1_
FNDA:0,_ZN4Json10FastWriter20dropNullPlaceholdersEv
FNDA:0,_ZNK4Json5ValueneERKS0_
FNDA:0,_ZN4Json13ValueIteratoraSERKS0_
FNDA:0,_ZN4JsonL15utf8ToCodepointERPKcS1_
FNDA:0,_ZN4Json18StyledStreamWriter18hasCommentForValueERKNS_5ValueE
FNDA:22,_ZN4Json5ValueixEPKc
FNDA:2519,_ZN4Json5ValueixEi
FNDA:0,_ZNK4Json9OurReader19getStructuredErrorsEv
FNDA:0,_ZN4Json16fixZerosInTheEndIN9__gnu_cxx17__normal_iteratorIPcNSt7__cxx1112basic_stringIcSt11char_traitsIcESaIcEEEEEEET_SB_SB_
FNDA:0,_ZN4Json6Reader10readStringEv
FNDA:0,_ZN4Json5ValueC2Ed
FNDA:0,_ZN4Json6Reader22decodeUnicodeCodePointERNS0_5TokenERPKcS4_Rj
FNDA:8696,_ZN4Json5Value14releasePayloadEv
FNDA:0,_ZN4Json23BuiltStyledStreamWriter23writeCommentBeforeValueERKNS_5ValueE
FNDA:0,_ZN4Json12StyledWriter6indentEv
FNDA:0,_ZNK4Json17ValueIteratorBase4nameB5cxx11Ev
FNDA:0,_ZNK4Json5Value10isIntegralEv
FNDA:0,_ZNK4Json5Value13asLargestUIntEv
FNDA:918,_ZNK4Json5Value6asBoolEv
FNDA:0,_ZN4Json5Value5beginEv
FNDA:0,_ZN4Json9OurReader19readCppStyleCommentEv
FNDA:944,_ZN4Json9OurReader12decodeStringERNS0_5TokenERNSt7__cxx1112basic_stringIcSt11char_traitsIcESaIcEEE
FNDA:0,_ZN4Json13ValueIteratorC2ERKSt17_Rb_tree_iteratorISt4pairIKNS_5Value8CZStringES3_EE
FNDA:0,_ZNK4Json4Path7resolveERKNS_5ValueES3_
FNDA:0,_ZN4Json6Reader9pushErrorERKNS_5ValueERKNSt7__cxx1112basic_stringIcSt11char_traitsIcESaIcEEE
FNDA:0,_ZN4Json5Value8CZStringaSERKS1_
FNDA:0,_ZN4Json17ValueIteratorBase4copyERKS0_
FNDA:0,_ZN4Json6Reader9pushErrorERKNS_5ValueERKNSt7__cxx1112basic_stringIcSt11char_traitsIcESaIcEEES3_
FNDA:0,_ZN4Json5Value6appendEOS0_
FNDA:0,_ZNK4Json5Value8Comments3hasENS_16CommentPlacementE
FNDA:0,_ZNK4Json5ValuegtERKS0_
FNDA:0,_ZNK4Json5ValueleERKS0_
FNDA:0,_ZN4Json5Value11removeIndexEjPS0_
FNDA:0,_ZN4Json5ValueC2Em
FNDA:41,_ZN4Json5Value8CommentsC2EOS1_
FNDA:6842,_ZN4Json5ValueC2ERKS0_
FNDA:1264,_ZN4JsonL26releasePrefixedStringValueEPc
FNDA:0,_ZNK4Json9OurReader24getLocationLineAndColumnEPKcRiS3_
FNDA:473,_ZN4Json9OurReader12decodeStringERNS0_5TokenE
FNDA:0,_ZN4Json5Value6resizeEj
FNDA:0,_ZN4Json10FastWriter10writeValueERKNS_5ValueE
FNF:342
FNH:83
DA:115,0
DA:119,0
DA:120,0
DA:125,0
DA:126,0
DA:130,0
DA:131,0
DA:132,0
DA:133,0
DA:134,0
DA:135,0
DA:136,0
DA:137,0
DA:138,0
DA:139,0
DA:140,0
DA:141,0
DA:142,0
DA:143,0
DA:144,0
DA:145,0
DA:146,0
DA:147,0
DA:150,0
DA:167,0
DA:168,0
DA:169,0
DA:170,0
DA:171,0
DA:172,0
DA:173,0
DA:180,0
DA:181,0
DA:182,0
DA:183,0
DA:186,0
DA:189,0
DA:190,0
DA:191,0
DA:192,0
DA:194,0
DA:195,0
DA:196,0
DA:205,0
DA:206,0
DA:207,0
DA:208,0
DA:211,0
DA:212,0
DA:215,0
DA:298,0
DA:300,0
DA:301,0
DA:302,0
DA:303,0
DA:304,0
DA:305,0
DA:306,0
DA:312,0
DA:313,0
DA:314,0
DA:315,0
DA:316,0
DA:322,0
DA:323,0
DA:325,0
DA:327,0
DA:328,0
DA:330,0
DA:333,0
DA:334,0
DA:335,0
DA:336,0
DA:339,0
DA:347,0
DA:348,0
DA:349,0
DA:352,0
DA:356,0
DA:357,0
DA:360,0
DA:361,0
DA:362,0
DA:363,0
DA:364,0
DA:365,0
DA:366,0
DA:367,0
DA:368,0
DA:369,0
DA:370,0
DA:372,0
DA:374,0
DA:375,0
DA:376,0
DA:377,0
DA:378,0
DA:381,0
DA:382,0
DA:383,0
DA:384,0
DA:387,0
DA:390,0
DA:393,0
DA:398,0
DA:399,0
DA:402,0
DA:403,0
DA:405,0
DA:406,0
DA:407,0
DA:410,0
DA:411,0
DA:412,0
DA:413,0
DA:414,0
DA:415,0
DA:416,0
DA:417,0
DA:418,0
DA:419,0
DA:420,0
DA:421,0
DA:422,0
DA:423,0
DA:424,0
DA:425,0
DA:426,0
DA:427,0
DA:428,0
DA:429,0
DA:430,0
DA:431,0
DA:432,0
DA:433,0
DA:434,0
DA:435,0
DA:436,0
DA:437,0
DA:438,0
DA:439,0
DA:440,0
DA:441,0
DA:442,0
DA:443,0
DA:446,0
DA:449,0
DA:450,0
DA:451,0
DA:452,0
DA:453,0
DA:454,0
DA:455,0
DA:457,0
DA:458,0
DA:459,0
DA:462,0
DA:463,0
DA:464,0
DA:467,0
DA:470,0
DA:471,0
DA:472,0
DA:473,0
DA:474,0
DA:476,0
DA:478,0
DA:480,0
DA:481,0
DA:482,0
DA:483,0
DA:484,0
DA:485,0
DA:486,0
DA:487,0
DA:488,0
DA:489,0
DA:490,0
DA:491,0
DA:492,0
DA:493,0
DA:494,0
DA:495,0
DA:496,0
DA:497,0
DA:498,0
DA:499,0
DA:500,0
DA:501,0
DA:502,0
DA:503,0
DA:504,0
DA:505,0
DA:506,0
DA:517,0
DA:518,0
DA:519,0
DA:520,0
DA:521,0
DA:522,0
DA:523,0
DA:524,0
DA:525,0
DA:526,0
DA:527,0
DA:528,0
DA:529,0
DA:530,0
DA:531,0
DA:532,0
DA:533,0
DA:534,0
DA:535,0
DA:536,0
DA:537,0
DA:538,0
DA:539,0
DA:540,0
DA:541,0
DA:542,0
DA:543,0
DA:545,0
DA:546,0
DA:547,0
DA:548,0
DA:551,0
DA:552,0
DA:553,0
DA:554,0
DA:555,0
DA:559,0
DA:561,0
DA:562,0
DA:563,0
DA:564,0
DA:565,0
DA:566,0
DA:567,0
DA:568,0
DA:569,0
DA:572,0
DA:573,0
DA:574,0
DA:575,0
DA:576,0
DA:577,0
DA:578,0
DA:579,0
DA:580,0
DA:581,0
DA:583,0
DA:584,0
DA:585,0
DA:586,0
DA:587,0
DA:590,0
DA:592,0
DA:595,0
DA:596,0
DA:597,0
DA:598,0
DA:599,0
DA:600,0
DA:601,0
DA:602,0
DA:604,0
DA:606,0
DA:608,0
DA:611,0
DA:614,0
DA:617,0
DA:618,0
DA:619,0
DA:620,0
DA:621,0
DA:623,0
DA:625,0
DA:627,0
DA:628,0
DA:629,0
DA:630,0
DA:631,0
DA:633,0
DA:636,0
DA:637,0
DA:638,0
DA:639,0
DA:640,0
DA:641,0
DA:643,0
DA:644,0
DA:646,0
DA:649,0
DA:652,0
DA:653,0
DA:654,0
DA:656,0
DA:657,0
DA:659,0
DA:660,0
DA:661,0
DA:662,0
DA:665,0
DA:666,0
DA:667,0
DA:668,0
DA:669,0
DA:670,0
DA:672,0
DA:674,0
DA:675,0
DA:676,0
DA:677,0
DA:678,0
DA:679,0
DA:680,0
DA:681,0
DA:683,0
DA:686,0
DA:688,0
DA:689,0
DA:690,0
DA:691,0
DA:692,0
DA:693,0
DA:694,0
DA:695,0
DA:696,0
DA:697,0
DA:698,0
DA:699,0
DA:700,0
DA:701,0
DA:702,0
DA:703,0
DA:704,0
DA:705,0
DA:706,0
DA:707,0
DA:708,0
DA:714,0
DA:715,0
DA:716,0
DA:718,0
DA:719,0
DA:720,0
DA:721,0
DA:722,0
DA:723,0
DA:726,0
DA:727,0
DA:728,0
DA:729,0
DA:730,0
DA:732,0
DA:733,0
DA:734,0
DA:735,0
DA:736,0
DA:738,0
DA:739,0
DA:742,0
DA:743,0
DA:744,0
DA:745,0
DA:746,0
DA:747,0
DA:750,0
DA:751,0
DA:753,0
DA:755,0
DA:756,0
DA:757,0
DA:758,0
DA:759,0
DA:760,0
DA:764,0
DA:765,0
DA:766,0
DA:768,0
DA:769,0
DA:770,0
DA:771,0
DA:772,0
DA:774,0
DA:775,0
DA:776,0
DA:777,0
DA:780,0
DA:781,0
DA:782,0
DA:783,0
DA:784,0
DA:785,0
DA:786,0
DA:787,0
DA:790,0
DA:794,0
DA:795,0
DA:796,0
DA:797,0
DA:800,0
DA:801,0
DA:803,0
DA:804,0
DA:805,0
DA:806,0
DA:807,0
DA:808,0
DA:809,0
DA:810,0
DA:815,0
DA:816,0
DA:817,0
DA:820,0
DA:822,0
DA:823,0
DA:824,0
DA:825,0
DA:826,0
DA:827,0
DA:829,0
DA:830,0
DA:833,0
DA:834,0
DA:835,0
DA:836,0
DA:837,0
DA:838,0
DA:839,0
DA:840,0
DA:843,0
DA:844,0
DA:845,0
DA:846,0
DA:847,0
DA:848,0
DA:849,0
DA:850,0
DA:851,0
DA:854,0
DA:855,0
DA:856,0
DA:857,0
DA:858,0
DA:859,0
DA:860,0
DA:861,0
DA:862,0
DA:865,0
DA:866,0
DA:867,0
DA:868,0
DA:869,0
DA:870,0
DA:871,0
DA:872,0
DA:873,0
DA:874,0
DA:875,0
DA:876,0
DA:877,0
DA:878,0
DA:879,0
DA:880,0
DA:881,0
DA:882,0
DA:883,0
DA:884,0
DA:885,0
DA:886,0
DA:887,0
DA:888,0
DA:889,0
DA:890,0
DA:891,0
DA:892,0
DA:893,0
DA:894,0
DA:895,0
DA:896,0
DA:897,0
DA:898,0
DA:899,0
DA:900,0
DA:901,0
DA:902,0
DA:904,0
DA:905,0
DA:906,0
DA:907,0
DA:908,0
DA:909,0
DA:912,0
DA:915,0
DA:918,0
DA:923,0
DA:924,0
DA:925,0
DA:927,0
DA:928,0
DA:930,0
DA:931,0
DA:933,0
DA:934,0
DA:936,0
DA:938,0
DA:940,0
DA:942,0
DA:945,0
DA:949,0
DA:950,0
DA:952,0
DA:953,0
DA:954,0
DA:955,0
DA:956,0
DA:957,0
DA:958,0
DA:959,0
DA:960,0
DA:961,0
DA:962,0
DA:964,0
DA:966,0
DA:968,0
DA:969,0
DA:972,0
DA:973,0
DA:974,0
DA:975,0
DA:976,0
DA:977,0
DA:978,0
DA:981,0
DA:982,0
DA:985,0
DA:986,0
DA:987,0
DA:990,0
DA:991,0
DA:994,0
DA:997,0
DA:998,0
DA:1001,0
DA:1003,0
DA:1004,0
DA:1005,0
DA:1006,0
DA:1009,0
DA:1012,0
DA:1013,0
DA:1014,0
DA:1015,0
DA:1016,0
DA:1017,0
DA:1018,0
DA:1019,0
DA:1020,0
DA:1021,0
DA:1022,0
DA:1023,0
DA:1024,0
DA:1028,0
DA:1029,0
DA:1030,0
DA:1032,0
DA:1034,0
DA:1036,0
DA:1037,0
DA:1041,0
DA:1042,0
DA:1045,0
DA:1046,0
DA:1047,0
DA:1049,0
DA:1050,0
DA:1051,0
DA:1053,0
DA:1055,0
DA:1058,0
DA:1059,0
DA:1060,0
DA:1061,0
DA:1062,0
DA:1063,0
DA:1064,0
DA:1065,0
DA:1067,0
DA:1070,0
DA:1071,0
DA:1072,0
DA:1073,0
DA:1075,0
DA:1076,0
DA:1077,0
DA:1078,0
DA:1079,0
DA:1080,0
DA:1081,0
DA:1082,0
DA:1083,0
DA:1086,0
DA:1089,0
DA:1090,0
DA:1091,0
DA:1092,0
DA:1094,0
DA:1095,0
DA:1096,0
DA:1097,0
DA:1098,0
DA:1099,0
DA:1100,0
DA:1101,0
DA:1102,0
DA:1105,0
DA:1123,2
DA:1251,0
DA:1253,0
DA:1254,0
DA:1255,0
DA:1256,0
DA:1259,2
DA:1261,2
DA:1262,2
DA:1264,2
DA:1268,2
DA:1269,0
DA:1272,2
DA:1273,2
DA:1274,2
DA:1275,2
DA:1276,2
DA:1277,2
DA:1278,2
DA:1279,2
DA:1280,2
DA:1281,0
DA:1282,2
DA:1284,2
DA:1285,2
DA:1287,2
DA:1288,2
DA:1289,0
DA:1290,0
DA:1291,0
DA:1292,0
DA:1295,2
DA:1296,0
DA:1297,2
DA:1298,0
DA:1301,0
DA:1302,0
DA:1303,0
DA:1304,0
DA:1307,0
DA:1310,2
DA:1313,1808
DA:1315,1808
DA:1316,0
DA:1318,1808
DA:1319,1808
DA:1321,1808
DA:1322,0
DA:1323,0
DA:1326,1808
DA:1327,155
DA:1328,155
DA:1329,155
DA:1330,155
DA:1331,261
DA:1332,261
DA:1333,261
DA:1334,261
DA:1335,19
DA:1336,19
DA:1337,19
DA:1338,473
DA:1339,473
DA:1340,473
DA:1341,229
DA:1342,458
DA:1343,229
DA:1344,229
DA:1345,229
DA:1346,229
DA:1347,671
DA:1348,1342
DA:1349,671
DA:1350,671
DA:1351,671
DA:1352,671
DA:1353,0
DA:1354,0
DA:1355,0
DA:1356,0
DA:1357,0
DA:1358,0
DA:1359,0
DA:1360,0
DA:1361,0
DA:1362,0
DA:1363,0
DA:1364,0
DA:1365,0
DA:1366,0
DA:1367,0
DA:1368,0
DA:1369,0
DA:1370,0
DA:1371,0
DA:1372,0
DA:1373,0
DA:1374,0
DA:1375,0
DA:1376,0
DA:1377,0
DA:1380,0
DA:1383,0
DA:1384,0
DA:1385,0
DA:1386,0
DA:1387,0
DA:1388,0
DA:1389,0
DA:1391,0
DA:1392,0
DA:1393,0
DA:1396,1808
DA:1397,1808
DA:1398,1808
DA:1401,1808
DA:1404,1810
DA:1405,1810
DA:1406,0
DA:1407,1810
DA:1408,1810
DA:1410,0
DA:1412,1810
DA:1414,4626
DA:1415,4626
DA:1416,4626
DA:1417,4626
DA:1418,4626
DA:1419,4626
DA:1420,155
DA:1421,155
DA:1422,155
DA:1423,155
DA:1424,155
DA:1425,155
DA:1426,261
DA:1427,261
DA:1428,261
DA:1429,261
DA:1430,261
DA:1431,261
DA:1432,944
DA:1433,944
DA:1434,944
DA:1435,944
DA:1436,0
DA:1437,0
DA:1438,0
DA:1439,0
DA:1440,0
DA:1443,0
DA:1444,0
DA:1445,0
DA:1446,19
DA:1456,19
DA:1457,19
DA:1458,19
DA:1459,0
DA:1460,0
DA:1461,0
DA:1463,0
DA:1464,0
DA:1466,0
DA:1467,229
DA:1468,229
DA:1469,229
DA:1470,229
DA:1471,671
DA:1472,671
DA:1473,671
DA:1474,671
DA:1475,0
DA:1476,0
DA:1477,0
DA:1478,0
DA:1479,0
DA:1480,0
DA:1481,0
DA:1482,0
DA:1484,0
DA:1486,0
DA:1487,0
DA:1488,0
DA:1489,0
DA:1490,0
DA:1492,0
DA:1494,0
DA:1495,1458
DA:1496,1458
DA:1497,1458
DA:1498,471
DA:1499,471
DA:1500,471
DA:1501,2
DA:1502,2
DA:1503,2
DA:1504,0
DA:1505,0
DA:1506,0
DA:1508,4626
DA:1509,0
DA:1510,4626
DA:1511,4626
DA:1514,22910
DA:1515,22910
DA:1516,22908
DA:1517,22908
DA:1518,18023
DA:1522,4887
DA:1524,900
DA:1525,900
DA:1526,0
DA:1527,900
DA:1528,4271
DA:1529,3371
DA:1530,0
DA:1531,900
DA:1532,900
DA:1535,0
DA:1536,0
DA:1537,0
DA:1538,0
DA:1539,0
DA:1540,0
DA:1541,0
DA:1542,0
DA:1543,0
DA:1544,0
DA:1546,0
DA:1547,0
DA:1548,0
DA:1549,0
DA:1550,0
DA:1553,0
DA:1555,0
DA:1558,0
DA:1560,0
DA:1561,0
DA:1562,0
DA:1563,0
DA:1564,0
DA:1565,0
DA:1566,0
DA:1568,0
DA:1570,0
DA:1572,0
DA:1575,0
DA:1578,0
DA:1581,0
DA:1582,0
DA:1583,0
DA:1584,0
DA:1585,0
DA:1587,0
DA:1589,0
DA:1591,0
DA:1592,0
DA:1593,0
DA:1594,0
DA:1595,0
DA:1597,0
DA:1600,0
DA:1601,0
DA:1602,0
DA:1603,0
DA:1604,0
DA:1605,0
DA:1607,0
DA:1608,0
DA:1610,0
DA:1613,0
DA:1616,19
DA:1617,19
DA:1618,19
DA:1619,0
DA:1620,0
DA:1622,19
DA:1624,60
DA:1625,41
DA:1627,19
DA:1628,0
DA:1629,0
DA:1630,0
DA:1633,19
DA:1634,0
DA:1635,0
DA:1636,0
DA:1637,0
DA:1638,0
DA:1640,19
DA:1642,944
DA:1643,944
DA:1644,6373
DA:1645,6373
DA:1646,6373
DA:1647,0
DA:1648,6373
DA:1649,944
DA:1651,944
DA:1654,0
DA:1655,0
DA:1656,0
DA:1657,0
DA:1658,0
DA:1659,0
DA:1660,0
DA:1661,0
DA:1663,0
DA:1666,155
DA:1668,310
DA:1669,310
DA:1670,155
DA:1671,155
DA:1672,471
DA:1673,471
DA:1674,471
DA:1675,0
DA:1676,471
DA:1677,0
DA:1678,471
DA:1679,155
DA:1680,471
DA:1681,471
DA:1682,471
DA:1683,0
DA:1684,0
DA:1685,0
DA:1686,0
DA:1687,0
DA:1688,0
DA:1692,471
DA:1693,0
DA:1694,471
DA:1695,0
DA:1696,0
DA:1700,471
DA:1701,0
DA:1702,0
DA:1704,471
DA:1705,471
DA:1706,471
DA:1707,471
DA:1708,471
DA:1709,0
DA:1712,942
DA:1713,471
DA:1714,0
DA:1715,0
DA:1716,0
DA:1718,471
DA:1719,471
DA:1720,0
DA:1721,471
DA:1722,155
DA:1724,0
DA:1725,0
DA:1728,261
DA:1729,522
DA:1730,261
DA:1731,261
DA:1732,261
DA:1733,261
DA:1736,68
DA:1737,68
DA:1739,193
DA:1741,1335
DA:1742,1335
DA:1743,1335
DA:1744,1335
DA:1745,1335
DA:1746,0
DA:1750,1335
DA:1751,1335
DA:1752,0
DA:1754,1528
DA:1755,193
DA:1756,1335
DA:1757,0
DA:1758,0
DA:1760,1335
DA:1761,193
DA:1762,1142
DA:1763,193
DA:1766,19
DA:1767,38
DA:1768,19
DA:1769,0
DA:1770,19
DA:1771,19
DA:1772,19
DA:1773,19
DA:1776,19
DA:1780,19
DA:1781,19
DA:1782,19
DA:1783,0
DA:1786,19
DA:1787,19
DA:1789,19
DA:1791,19
DA:1793,19
DA:1794,19
DA:1795,19
DA:1797,19
DA:1798,60
DA:1799,41
DA:1800,41
DA:1801,0
DA:1803,41
DA:1804,41
DA:1810,0
DA:1811,0
DA:1814,41
DA:1817,19
DA:1818,0
DA:1819,19
DA:1820,19
DA:1822,0
DA:1824,19
DA:1827,0
DA:1828,0
DA:1829,0
DA:1830,0
DA:1831,0
DA:1832,0
DA:1833,0
DA:1834,0
DA:1837,0
DA:1838,0
DA:1839,0
DA:1841,0
DA:1844,0
DA:1845,0
DA:1847,0
DA:1854,0
DA:1856,0
DA:1858,0
DA:1859,0
DA:1860,0
DA:1861,0
DA:1863,0
DA:1864,0
DA:1867,0
DA:1868,0
DA:1869,0
DA:1870,0
DA:1871,0
DA:1874,473
DA:1875,946
DA:1876,473
DA:1877,0
DA:1878,473
DA:1879,473
DA:1880,473
DA:1881,473
DA:1882,473
DA:1885,944
DA:1886,944
DA:1887,944
DA:1888,944
DA:1889,6373
DA:1890,5429
DA:1891,5429
DA:1892,0
DA:1893,5429
DA:1894,0
DA:1895,0
DA:1896,0
DA:1897,0
DA:1898,0
DA:1899,0
DA:1900,0
DA:1901,0
DA:1902,0
DA:1903,0
DA:1904,0
DA:1905,0
DA:1906,0
DA:1907,0
DA:1908,0
DA:1909,0
DA:1910,0
DA:1911,0
DA:1912,0
DA:1913,0
DA:1914,0
DA:1915,0
DA:1916,0
DA:1917,0
DA:1918,0
DA:1919,0
DA:1920,0
DA:1921,0
DA:1922,0
DA:1924,0
DA:1925,0
DA:1926,0
DA:1927,0
DA:1928,0
DA:1929,0
DA:1932,5429
DA:1935,944
DA:1938,0
DA:1943,0
DA:1944,0
DA:1945,0
DA:1947,0
DA:1948,0
DA:1950,0
DA:1951,0
DA:1953,0
DA:1954,0
DA:1956,0
DA:1958,0
DA:1960,0
DA:1962,0
DA:1965,0
DA:1969,0
DA:1970,0
DA:1972,0
DA:1973,0
DA:1974,0
DA:1975,0
DA:1976,0
DA:1977,0
DA:1978,0
DA:1979,0
DA:1980,0
DA:1981,0
DA:1982,0
DA:1984,0
DA:1986,0
DA:1988,0
DA:1989,0
DA:1992,0
DA:1993,0
DA:1994,0
DA:1995,0
DA:1996,0
DA:1997,0
DA:1998,0
DA:2001,0
DA:2002,0
DA:2005,0
DA:2006,0
DA:2007,0
DA:2010,0
DA:2011,0
DA:2014,0
DA:2017,0
DA:2018,0
DA:2021,9038
DA:2023,10999
DA:2024,10999
DA:2025,2
DA:2026,10997
DA:2029,0
DA:2032,0
DA:2033,0
DA:2034,0
DA:2035,0
DA:2036,0
DA:2037,0
DA:2038,0
DA:2039,0
DA:2040,0
DA:2041,0
DA:2042,0
DA:2043,0
DA:2044,0
DA:2048,0
DA:2049,0
DA:2050,0
DA:2052,0
DA:2054,0
DA:2056,0
DA:2057,0
DA:2060,2
DA:2061,2
DA:2062,2
DA:2064,0
DA:2065,0
DA:2066,0
DA:2068,0
DA:2070,2
DA:2073,0
DA:2074,0
DA:2075,0
DA:2076,0
DA:2077,0
DA:2078,0
DA:2079,0
DA:2080,0
DA:2082,0
DA:2085,0
DA:2086,0
DA:2087,0
DA:2088,0
DA:2090,0
DA:2091,0
DA:2092,0
DA:2093,0
DA:2094,0
DA:2095,0
DA:2096,0
DA:2097,0
DA:2098,0
DA:2101,0
DA:2104,0
DA:2105,0
DA:2106,0
DA:2107,0
DA:2109,0
DA:2110,0
DA:2111,0
DA:2112,0
DA:2113,0
DA:2114,0
DA:2115,0
DA:2116,0
DA:2117,0
DA:2120,0
DA:2127,2
DA:2128,2
DA:2129,2
DA:2133,2
DA:2134,2
DA:2135,2
DA:2137,2
DA:2141,2
DA:2143,2
DA:2144,2
DA:2145,2
DA:2146,2
DA:2147,2
DA:2148,2
DA:2149,2
DA:2150,2
DA:2151,2
DA:2155,2
DA:2156,2
DA:2157,2
DA:2158,2
DA:2159,2
DA:2161,0
DA:2162,0
DA:2163,0
DA:2164,0
DA:2165,0
DA:2166,0
DA:2167,0
DA:2168,0
DA:2169,0
DA:2170,0
DA:2171,0
DA:2172,0
DA:2173,0
DA:2174,0
DA:2175,0
DA:2176,0
DA:2177,0
DA:2178,0
DA:2179,0
DA:2180,0
DA:2181,0
DA:2182,0
DA:2183,0
DA:2184,0
DA:2185,0
DA:2186,0
DA:2189,0
DA:2191,0
DA:2192,0
DA:2195,0
DA:2197,0
DA:2198,0
DA:2199,0
DA:2200,0
DA:2201,0
DA:2202,0
DA:2203,0
DA:2204,0
DA:2205,0
DA:2207,0
DA:2209,2
DA:2211,2
DA:2212,2
DA:2213,2
DA:2214,2
DA:2215,2
DA:2216,2
DA:2217,2
DA:2218,2
DA:2219,2
DA:2220,2
DA:2222,2
DA:2227,2
DA:2231,4
DA:2232,2
DA:2233,4
DA:2234,2
DA:2235,2
DA:2237,4
DA:2238,4
DA:2241,2
DA:2242,4
DA:2243,2
DA:2244,2
DA:2245,2
DA:2246,0
DA:2248,4
DA:2283,0
DA:2285,90
DA:2286,90
DA:2287,90
DA:2289,151
DA:2291,151
DA:2293,0
DA:2296,0
DA:2305,0
DA:2306,0
DA:2314,0
DA:2315,0
DA:2316,0
DA:2317,0
DA:2319,0
DA:2323,196
DA:2324,196
DA:2325,0
DA:2327,196
DA:2330,0
DA:2331,0
DA:2332,0
DA:2333,0
DA:2335,0
DA:2336,0
DA:2337,0
DA:2338,0
DA:2339,0
DA:2340,0
DA:2342,0
DA:2345,0
DA:2346,0
DA:2347,0
DA:2348,0
DA:2349,0
DA:2352,0
DA:2355,0
DA:2356,0
DA:2357,0
DA:2358,0
DA:2361,0
DA:2362,0
DA:2363,0
DA:2366,0
DA:2367,0
DA:2368,0
DA:2369,0
DA:2370,0
DA:2372,0
DA:2373,0
DA:2386,90
DA:2387,90
DA:2388,90
DA:2390,0
DA:2391,0
DA:2393,0
DA:2395,0
DA:2396,0
DA:2409,0
DA:2410,0
DA:2412,0
DA:2413,0
DA:2414,0
DA:2419,0
DA:2420,0
DA:2421,0
DA:2496,6842
DA:2497,6842
DA:2498,6842
DA:2499,0
DA:2501,6842
DA:2514,1828
DA:2515,1828
DA:2516,1828
DA:2556,0
DA:2557,0
DA:2558,0
DA:2561,0
DA:2562,0
DA:2564,0
DA:2565,0
DA:2567,0
DA:2568,0
DA:2570,0
DA:2571,0
DA:2575,0
DA:2576,0
DA:2578,0
DA:2579,0
DA:2581,0
DA:2582,0
DA:2584,0
DA:2585,0
DA:2587,0
DA:2588,0
DA:2599,1435
DA:2602,1435
DA:2603,0
DA:2605,1435
DA:2606,1435
DA:2607,0
DA:2610,1435
DA:2611,1435
DA:2612,1435
DA:2617,1264
DA:2621,1264
DA:2625,1264
DA:2626,1264
DA:2627,1264
DA:2628,0
DA:2631,1264
DA:2632,1264
DA:2633,1264
DA:2635,1264
DA:2637,1262
DA:2641,1262
DA:2642,0
DA:2643,0
DA:2645,1262
DA:2646,1262
DA:2648,1262
DA:2668,1264
DA:2669,1435
DA:2689,0
DA:2690,0
DA:2691,0
DA:2692,0
DA:2693,0
DA:2694,0
DA:2695,0
DA:2697,0
DA:2714,2519
DA:2716,1462
DA:2718,1462
DA:2719,1462
DA:2721,1462
DA:2722,1462
DA:2723,1462
DA:2725,6624
DA:2726,5275
DA:2727,11899
DA:2729,6624
DA:2731,6624
DA:2732,1435
DA:2736,6624
DA:2738,6624
DA:2739,6624
DA:2741,0
DA:2742,0
DA:2743,0
DA:2744,0
DA:2746,21210
DA:2747,10605
DA:2748,1435
DA:2749,1435
DA:2754,10605
DA:2756,0
DA:2757,0
DA:2758,0
DA:2759,0
DA:2761,0
DA:2762,0
DA:2763,0
DA:2764,0
DA:2767,0
DA:2768,0
DA:2769,0
DA:2770,0
DA:2771,0
DA:2774,12890
DA:2775,12890
DA:2776,9052
DA:2779,3838
DA:2780,3838
DA:2781,3838
DA:2782,3838
DA:2783,3838
DA:2784,3838
DA:2785,1181
DA:2786,2657
DA:2787,717
DA:2788,1940
DA:2791,1365
DA:2792,1365
DA:2793,1184
DA:2796,181
DA:2797,181
DA:2798,181
DA:2799,67
DA:2800,114
DA:2801,114
DA:2802,114
DA:2805,148
DA:2808,0
DA:2809,0
DA:2810,0
DA:2811,0
DA:2826,442
DA:2828,442
DA:2829,442
DA:2830,24
DA:2831,24
DA:2832,0
DA:2834,0
DA:2835,0
DA:2836,0
DA:2837,0
DA:2838,0
DA:2839,0
DA:2841,0
DA:2842,0
DA:2843,418
DA:2845,418
DA:2846,418
DA:2847,0
DA:2848,0
DA:2849,0
DA:2850,0
DA:2851,0
DA:2853,442
DA:2855,2
DA:2856,2
DA:2857,2
DA:2858,2
DA:2860,0
DA:2861,0
DA:2862,0
DA:2863,0
DA:2865,19
DA:2866,19
DA:2867,19
DA:2868,19
DA:2869,0
DA:2870,0
DA:2871,0
DA:2872,0
DA:2875,0
DA:2876,0
DA:2877,0
DA:2878,0
DA:2880,0
DA:2881,0
DA:2882,0
DA:2884,0
DA:2885,0
DA:2886,0
DA:2888,0
DA:2889,0
DA:2890,0
DA:2891,0
DA:2892,0
DA:2894,473
DA:2895,473
DA:2896,473
DA:2897,473
DA:2898,473
DA:2900,0
DA:2901,0
DA:2902,0
DA:2903,0
DA:2913,918
DA:2914,918
DA:2915,918
DA:2916,918
DA:2918,6842
DA:2919,6842
DA:2920,6842
DA:2921,6842
DA:2923,0
DA:2924,0
DA:2925,0
DA:2926,0
DA:2928,26088
DA:2929,8696
DA:2930,8696
DA:2931,8696
DA:2933,0
DA:2934,0
DA:2935,0
DA:2938,41
DA:2939,41
DA:2940,41
DA:2943,1849
DA:2944,1849
DA:2945,1849
DA:2946,1849
DA:2948,0
DA:2949,0
DA:2950,0
DA:2951,0
DA:2953,41
DA:2954,41
DA:2955,41
DA:2956,41
DA:2957,41
DA:2958,41
DA:2960,0
DA:2961,0
DA:2962,0
DA:2963,0
DA:2965,36034
DA:2966,36034
DA:2969,0
DA:2970,0
DA:2971,0
DA:2972,0
DA:2973,0
DA:2974,0
DA:2977,0
DA:2978,0
DA:2979,0
DA:2980,0
DA:2981,0
DA:2982,0
DA:2983,0
DA:2984,0
DA:2985,0
DA:2986,0
DA:2987,0
DA:2988,0
DA:2989,0
DA:2990,0
DA:2991,0
DA:2992,0
DA:2993,0
DA:2994,0
DA:2995,0
DA:2997,0
DA:3003,0
DA:3005,0
DA:3007,0
DA:3008,0
DA:3009,0
DA:3010,0
DA:3011,0
DA:3012,0
DA:3013,0
DA:3014,0
DA:3016,0
DA:3018,0
DA:3019,0
DA:3020,0
DA:3021,0
DA:3023,0
DA:3024,0
DA:3029,0
DA:3031,0
DA:3033,0
DA:3035,0
DA:3036,0
DA:3037,0
DA:3038,0
DA:3039,0
DA:3040,0
DA:3041,0
DA:3042,0
DA:3043,0
DA:3044,0
DA:3045,0
DA:3046,0
DA:3047,0
DA:3048,0
DA:3049,0
DA:3050,0
DA:3051,0
DA:3057,0
DA:3059,0
DA:3061,0
DA:3062,0
DA:3063,0
DA:3064,0
DA:3065,0
DA:3067,0
DA:3069,0
DA:3070,0
DA:3071,0
DA:3072,0
DA:3077,0
DA:3079,0
DA:3080,0
DA:3082,0
DA:3083,0
DA:3086,0
DA:3088,0
DA:3105,0
DA:3106,0
DA:3107,0
DA:3108,0
DA:3109,0
DA:3111,0
DA:3113,0
DA:3114,0
DA:3117,471
DA:3118,471
DA:3119,0
DA:3120,0
DA:3121,471
DA:3122,471
DA:3123,0
DA:3126,471
DA:3128,471
DA:3130,0
DA:3131,0
DA:3132,0
DA:3133,0
DA:3134,0
DA:3135,0
DA:3136,0
DA:3137,0
DA:3138,0
DA:3139,0
DA:3152,7
DA:3153,7
DA:3154,7
DA:3155,7
DA:3156,7
DA:3157,0
DA:3158,0
DA:3159,0
DA:3160,0
DA:3161,0
DA:3163,0
DA:3164,0
DA:3165,0
DA:3166,0
DA:3167,0
DA:3168,0
DA:3169,0
DA:3171,0
DA:3174,2
DA:3175,2
DA:3176,2
DA:3177,2
DA:3178,2
DA:3179,0
DA:3180,0
DA:3181,0
DA:3182,0
DA:3183,0
DA:3185,0
DA:3186,0
DA:3187,0
DA:3188,0
DA:3189,0
DA:3190,0
DA:3191,0
DA:3193,0
DA:3198,0
DA:3199,0
DA:3200,0
DA:3201,0
DA:3202,0
DA:3203,0
DA:3204,0
DA:3205,0
DA:3206,0
DA:3208,0
DA:3209,0
DA:3210,0
DA:3211,0
DA:3212,0
DA:3213,0
DA:3214,0
DA:3216,0
DA:3219,0
DA:3220,0
DA:3221,0
DA:3222,0
DA:3223,0
DA:3224,0
DA:3225,0
DA:3226,0
DA:3227,0
DA:3229,0
DA:3230,0
DA:3231,0
DA:3232,0
DA:3233,0
DA:3234,0
DA:3235,0
DA:3237,0
DA:3241,0
DA:3245,0
DA:3249,0
DA:3253,0
DA:3257,0
DA:3258,0
DA:3259,0
DA:3260,0
DA:3261,0
DA:3265,0
DA:3267,0
DA:3268,0
DA:3269,0
DA:3270,0
DA:3271,0
DA:3272,0
DA:3273,0
DA:3274,0
DA:3276,0
DA:3279,0
DA:3280,0
DA:3281,0
DA:3282,0
DA:3283,0
DA:3288,0
DA:3290,0
DA:3291,0
DA:3292,0
DA:3293,0
DA:3294,0
DA:3295,0
DA:3296,0
DA:3297,0
DA:3299,0
DA:3302,918
DA:3303,918
DA:3304,918
DA:3305,918
DA:3306,0
DA:3307,0
DA:3308,0
DA:3309,0
DA:3310,0
DA:3311,0
DA:3312,0
DA:3314,0
DA:3315,0
DA:3317,0
DA:3318,0
DA:3320,0
DA:3323,0
DA:3324,0
DA:3325,0
DA:3326,0
DA:3327,0
DA:3328,0
DA:3329,0
DA:3330,0
DA:3331,0
DA:3332,0
DA:3333,0
DA:3334,0
DA:3335,0
DA:3336,0
DA:3337,0
DA:3338,0
DA:3339,0
DA:3340,0
DA:3341,0
DA:3342,0
DA:3343,0
DA:3344,0
DA:3345,0
DA:3346,0
DA:3347,0
DA:3348,0
DA:3349,0
DA:3350,0
DA:3352,0
DA:3357,216
DA:3358,216
DA:3359,0
DA:3365,0
DA:3366,216
DA:3367,216
DA:3368,148
DA:3369,148
DA:3370,148
DA:3371,68
DA:3372,68
DA:3373,0
DA:3374,0
DA:3376,0
DA:3380,0
DA:3381,0
DA:3382,0
DA:3384,0
DA:3387,0
DA:3389,0
DA:3390,0
DA:3393,0
DA:3394,0
DA:3395,0
DA:3396,0
DA:3398,0
DA:3399,0
DA:3400,0
DA:3401,0
DA:3403,0
DA:3405,0
DA:3406,0
DA:3408,0
DA:3409,0
DA:3410,0
DA:3411,0
DA:3412,0
DA:3413,0
DA:3414,0
DA:3416,0
DA:3417,0
DA:3419,0
DA:3421,0
DA:3423,2519
DA:3424,2519
DA:3427,2519
DA:3428,0
DA:3429,5038
DA:3430,2519
DA:3431,2519
DA:3432,1184
DA:3434,1335
DA:3435,1335
DA:3436,1335
DA:3439,2519
DA:3440,2519
DA:3443,2519
DA:3446,0
DA:3447,0
DA:3450,0
DA:3451,0
DA:3452,0
DA:3453,0
DA:3454,0
DA:3455,0
DA:3456,0
DA:3459,0
DA:3460,0
DA:3463,0
DA:3466,1854
DA:3467,1854
DA:3468,1854
DA:3469,1854
DA:3470,1854
DA:3471,1854
DA:3472,1854
DA:3474,6842
DA:3475,6842
DA:3476,6842
DA:3477,6842
DA:3478,5423
DA:3483,5423
DA:3484,5423
DA:3485,791
DA:3486,791
DA:3489,791
DA:3491,791
DA:3492,791
DA:3494,0
DA:3496,791
DA:3497,628
DA:3499,628
DA:3500,628
DA:3501,0
DA:3502,0
DA:3504,6842
DA:3506,8696
DA:3507,8696
DA:3508,6386
DA:3513,6386
DA:3514,1264
DA:3515,1264
DA:3516,1264
DA:3517,1264
DA:3518,1046
DA:3520,1046
DA:3521,1046
DA:3522,0
DA:3523,0
DA:3525,8696
DA:3527,6842
DA:3528,6842
DA:3529,6842
DA:3530,6842
DA:3531,6842
DA:3536,0
DA:3537,0
DA:3540,0
DA:3541,0
DA:3542,0
DA:3543,0
DA:3544,0
DA:3545,0
DA:3546,0
DA:3548,0
DA:3549,0
DA:3550,0
DA:3551,0
DA:3555,493
DA:3556,493
DA:3559,493
DA:3560,2
DA:3561,493
DA:3562,986
DA:3563,493
DA:3564,493
DA:3565,2
DA:3567,491
DA:3568,491
DA:3569,491
DA:3570,491
DA:3573,0
DA:3574,0
DA:3575,0
DA:3578,0
DA:3580,969
DA:3581,969
DA:3584,969
DA:3585,0
DA:3586,969
DA:3587,1938
DA:3588,969
DA:3589,969
DA:3590,0
DA:3591,969
DA:3593,0
DA:3594,0
DA:3597,0
DA:3599,516
DA:3600,516
DA:3601,516
DA:3602,0
DA:3603,516
DA:3605,0
DA:3606,0
DA:3607,0
DA:3608,0
DA:3609,0
DA:3612,22
DA:3613,22
DA:3616,471
DA:3617,471
DA:3620,0
DA:3621,0
DA:3636,0
DA:3638,0
DA:3639,0
DA:3642,0
DA:3645,0
DA:3646,0
DA:3648,0
DA:3649,0
DA:3651,0
DA:3652,0
DA:3655,0
DA:3656,0
DA:3657,0
DA:3659,0
DA:3660,0
DA:3661,0
DA:3662,0
DA:3663,0
DA:3664,0
DA:3665,0
DA:3666,0
DA:3667,0
DA:3669,0
DA:3670,0
DA:3672,0
DA:3673,0
DA:3675,0
DA:3676,0
DA:3678,0
DA:3679,0
DA:3681,0
DA:3682,0
DA:3684,0
DA:3686,0
DA:3687,0
DA:3688,0
DA:3690,0
DA:3691,0
DA:3692,0
DA:3693,0
DA:3695,0
DA:3696,0
DA:3697,0
DA:3699,0
DA:3700,0
DA:3701,0
DA:3704,0
DA:3705,0
DA:3706,0
DA:3707,0
DA:3717,453
DA:3718,453
DA:3719,453
DA:3721,453
DA:3722,453
DA:3724,0
DA:3725,0
DA:3734,0
DA:3735,0
DA:3738,0
DA:3739,0
DA:3740,0
DA:3741,0
DA:3742,0
DA:3743,0
DA:3744,0
DA:3745,0
DA:3747,0
DA:3775,0
DA:3777,0
DA:3780,0
DA:3782,0
DA:3784,7
DA:3785,7
DA:3786,7
DA:3788,7
DA:3792,0
DA:3793,0
DA:3794,0
DA:3795,0
DA:3796,0
DA:3797,0
DA:3798,0
DA:3800,0
DA:3803,2
DA:3804,2
DA:3805,2
DA:3807,2
DA:3811,0
DA:3813,0
DA:3817,0
DA:3818,0
DA:3819,0
DA:3820,0
DA:3821,0
DA:3823,0
DA:3826,0
DA:3828,0
DA:3829,0
DA:3830,0
DA:3831,0
DA:3832,0
DA:3833,0
DA:3837,0
DA:3838,0
DA:3839,0
DA:3840,0
DA:3843,0
DA:3846,0
DA:3848,0
DA:3849,0
DA:3850,0
DA:3851,0
DA:3852,0
DA:3853,0
DA:3857,0
DA:3858,0
DA:3859,0
DA:3860,0
DA:3863,0
DA:3866,0
DA:3867,0
DA:3868,0
DA:3870,0
DA:3871,0
DA:3876,0
DA:3877,0
DA:3882,0
DA:3883,0
DA:3885,0
DA:3888,0
DA:3889,0
DA:3892,0
DA:3894,0
DA:3896,0
DA:3898,0
DA:3900,0
DA:3901,0
DA:3903,41
DA:3905,6842
DA:3906,6842
DA:3907,6842
DA:3910,1936
DA:3911,1936
DA:3912,1936
DA:3915,0
DA:3916,0
DA:3919,0
DA:3920,0
DA:3921,0
DA:3922,0
DA:3925,0
DA:3926,0
DA:3927,0
DA:3929,0
DA:3930,0
DA:3932,0
DA:3933,0
DA:3935,0
DA:3937,0
DA:3938,0
DA:3941,0
DA:3942,0
DA:3944,0
DA:3945,0
DA:3948,0
DA:3949,0
DA:3952,1808
DA:3954,1808
DA:3956,0
DA:3958,0
DA:3960,0
DA:3961,0
DA:3963,0
DA:3964,0
DA:3965,0
DA:3967,0
DA:3970,45
DA:3971,45
DA:3972,45
DA:3974,45
DA:3975,45
DA:3976,0
DA:3977,0
DA:3978,0
DA:3980,0
DA:3983,45
DA:3984,45
DA:3985,45
DA:3987,45
DA:3988,45
DA:3989,0
DA:3990,0
DA:3991,0
DA:3993,0
DA:3996,0
DA:3997,0
DA:3998,0
DA:4000,0
DA:4001,0
DA:4002,0
DA:4003,0
DA:4004,0
DA:4006,0
DA:4009,0
DA:4010,0
DA:4011,0
DA:4013,0
DA:4014,0
DA:4015,0
DA:4016,0
DA:4017,0
DA:4019,0
DA:4025,0
DA:4027,0
DA:4028,0
DA:4030,0
DA:4031,0
DA:4033,0
DA:4034,0
DA:4039,0
DA:4044,0
DA:4045,0
DA:4046,0
DA:4047,0
DA:4048,0
DA:4049,0
DA:4050,0
DA:4051,0
DA:4052,0
DA:4053,0
DA:4055,0
DA:4056,0
DA:4057,0
DA:4058,0
DA:4059,0
DA:4060,0
DA:4061,0
DA:4062,0
DA:4063,0
DA:4065,0
DA:4066,0
DA:4067,0
DA:4068,0
DA:4070,0
DA:4071,0
DA:4072,0
DA:4073,0
DA:4074,0
DA:4075,0
DA:4076,0
DA:4078,0
DA:4079,0
DA:4080,0
DA:4081,0
DA:4084,0
DA:4086,0
DA:4090,0
DA:4092,0
DA:4095,0
DA:4097,0
DA:4099,0
DA:4101,0
DA:4103,0
DA:4104,0
DA:4105,0
DA:4106,0
DA:4107,0
DA:4109,0
DA:4111,0
DA:4112,0
DA:4113,0
DA:4115,0
DA:4117,0
DA:4118,0
DA:4121,0
DA:4125,0
DA:4128,0
DA:4129,0
DA:4130,0
DA:4131,0
DA:4132,0
DA:4133,0
DA:4134,0
DA:4135,0
DA:4136,0
DA:4137,0
DA:4138,0
DA:4139,0
DA:4140,0
DA:4143,0
DA:4146,0
DA:4147,0
DA:4148,0
DA:4149,0
DA:4150,0
DA:4153,0
DA:4154,0
DA:4155,0
DA:4158,0
DA:4161,0
DA:4270,0
DA:4272,0
DA:4273,0
DA:4274,0
DA:4275,0
DA:4276,0
DA:4277,0
DA:4278,0
DA:4280,0
DA:4282,0
DA:4283,0
DA:4286,0
DA:4288,0
DA:4289,0
DA:4290,0
DA:4291,0
DA:4296,0
DA:4298,0
DA:4303,0
DA:4310,0
DA:4313,0
DA:4314,0
DA:4317,0
DA:4319,0
DA:4320,0
DA:4323,0
DA:4324,0
DA:4325,0
DA:4326,0
DA:4327,0
DA:4329,0
DA:4330,0
DA:4331,0
DA:4333,0
DA:4336,0
DA:4337,0
DA:4342,0
DA:4343,0
DA:4345,0
DA:4349,0
DA:4352,0
DA:4355,0
DA:4357,0
DA:4358,0
DA:4360,0
DA:4361,0
DA:4362,0
DA:4363,0
DA:4364,0
DA:4366,0
DA:4369,0
DA:4370,0
DA:4372,0
DA:4374,0
DA:4375,0
DA:4377,0
DA:4378,0
DA:4379,0
DA:4381,0
DA:4382,0
DA:4383,0
DA:4385,0
DA:4388,0
DA:4389,0
DA:4390,0
DA:4392,0
DA:4393,0
DA:4394,0
DA:4395,0
DA:4398,0
DA:4399,0
DA:4401,0
DA:4404,0
DA:4405,0
DA:4406,0
DA:4408,0
DA:4409,0
DA:4410,0
DA:4411,0
DA:4412,0
DA:4414,0
DA:4417,0
DA:4437,0
DA:4438,0
DA:4439,0
DA:4440,0
DA:4441,0
DA:4442,0
DA:4443,0
DA:4444,0
DA:4445,0
DA:4448,0
DA:4449,0
DA:4450,0
DA:4452,0
DA:4453,0
DA:4457,0
DA:4458,0
DA:4459,0
DA:4460,0
DA:4461,0
DA:4462,0
DA:4463,0
DA:4464,0
DA:4465,0
DA:4466,0
DA:4467,0
DA:4468,0
DA:4469,0
DA:4470,0
DA:4471,0
DA:4472,0
DA:4473,0
DA:4474,0
DA:4475,0
DA:4476,0
DA:4477,0
DA:4478,0
DA:4479,0
DA:4480,0
DA:4481,0
DA:4482,0
DA:4483,0
DA:4484,0
DA:4493,0
DA:4494,0
DA:4497,0
DA:4498,0
DA:4499,0
DA:4500,0
DA:4501,0
DA:4504,0
DA:4505,0
DA:4506,0
DA:4507,0
DA:4508,0
DA:4510,0
DA:4513,0
DA:4514,0
DA:4517,0
DA:4518,0
DA:4532,0
DA:4534,0
DA:4536,0
DA:4538,0
DA:4539,0
DA:4540,0
DA:4541,0
DA:4542,0
DA:4543,0
DA:4546,0
DA:4547,0
DA:4548,0
DA:4549,0
DA:4550,0
DA:4551,0
DA:4552,0
DA:4553,0
DA:4554,0
DA:4555,0
DA:4556,0
DA:4557,0
DA:4558,0
DA:4559,0
DA:4560,0
DA:4561,0
DA:4565,0
DA:4566,0
DA:4567,0
DA:4568,0
DA:4570,0
DA:4571,0
DA:4572,0
DA:4573,0
DA:4574,0
DA:4575,0
DA:4576,0
DA:4577,0
DA:4578,0
DA:4579,0
DA:4581,0
DA:4582,0
DA:4583,0
DA:4584,0
DA:4585,0
DA:4586,0
DA:4587,0
DA:4588,0
DA:4589,0
DA:4590,0
DA:4591,0
DA:4592,0
DA:4593,0
DA:4595,0
DA:4596,0
DA:4598,0
DA:4605,0
DA:4606,0
DA:4607,0
DA:4608,0
DA:4609,0
DA:4610,0
DA:4611,0
DA:4612,0
DA:4613,0
DA:4616,0
DA:4617,0
DA:4618,0
DA:4619,0
DA:4620,0
DA:4621,0
DA:4622,0
DA:4623,0
DA:4624,0
DA:4625,0
DA:4626,0
DA:4627,0
DA:4628,0
DA:4629,0
DA:4630,0
DA:4634,0
DA:4635,0
DA:4636,0
DA:4638,0
DA:4639,0
DA:4641,0
DA:4642,0
DA:4643,0
DA:4644,0
DA:4645,0
DA:4646,0
DA:4647,0
DA:4648,0
DA:4649,0
DA:4650,0
DA:4652,0
DA:4653,0
DA:4654,0
DA:4656,0
DA:4657,0
DA:4658,0
DA:4659,0
DA:4660,0
DA:4661,0
DA:4662,0
DA:4663,0
DA:4664,0
DA:4666,0
DA:4667,0
DA:4668,0
DA:4669,0
DA:4670,0
DA:4671,0
DA:4672,0
DA:4674,0
DA:4676,0
DA:4677,0
DA:4678,0
DA:4679,0
DA:4681,0
DA:4682,0
DA:4683,0
DA:4684,0
DA:4685,0
DA:4686,0
DA:4688,0
DA:4689,0
DA:4690,0
DA:4691,0
DA:4693,0
DA:4694,0
DA:4696,0
DA:4697,0
DA:4698,0
DA:4700,0
DA:4701,0
DA:4702,0
DA:4703,0
DA:4704,0
DA:4707,0
DA:4708,0
DA:4709,0
DA:4710,0
DA:4711,0
DA:4712,0
DA:4714,0
DA:4717,0
DA:4719,0
DA:4720,0
DA:4721,0
DA:4722,0
DA:4723,0
DA:4724,0
DA:4725,0
DA:4726,0
DA:4728,0
DA:4730,0
DA:4731,0
DA:4732,0
DA:4733,0
DA:4734,0
DA:4735,0
DA:4737,0
DA:4738,0
DA:4740,0
DA:4741,0
DA:4743,0
DA:4746,0
DA:4747,0
DA:4748,0
DA:4750,0
DA:4751,0
DA:4753,0
DA:4754,0
DA:4755,0
DA:4756,0
DA:4757,0
DA:4758,0
DA:4759,0
DA:4761,0
DA:4764,0
DA:4765,0
DA:4766,0
DA:4767,0
DA:4769,0
DA:4771,0
DA:4772,0
DA:4773,0
DA:4774,0
DA:4776,0
DA:4777,0
DA:4778,0
DA:4780,0
DA:4781,0
DA:4782,0
DA:4783,0
DA:4784,0
DA:4785,0
DA:4786,0
DA:4787,0
DA:4788,0
DA:4792,0
DA:4795,0
DA:4796,0
DA:4797,0
DA:4799,0
DA:4800,0
DA:4801,0
DA:4802,0
DA:4804,0
DA:4806,0
DA:4807,0
DA:4808,0
DA:4809,0
DA:4815,0
DA:4816,0
DA:4817,0
DA:4819,0
DA:4820,0
DA:4821,0
DA:4822,0
DA:4823,0
DA:4824,0
DA:4825,0
DA:4826,0
DA:4827,0
DA:4828,0
DA:4829,0
DA:4830,0
DA:4831,0
DA:4832,0
DA:4834,0
DA:4835,0
DA:4836,0
DA:4837,0
DA:4838,0
DA:4839,0
DA:4840,0
DA:4841,0
DA:4842,0
DA:4843,0
DA:4844,0
DA:4845,0
DA:4846,0
DA:4847,0
DA:4848,0
DA:4852,0
DA:4853,0
DA:4854,0
DA:4856,0
DA:4857,0
DA:4859,0
DA:4860,0
DA:4861,0
DA:4862,0
DA:4863,0
DA:4864,0
DA:4865,0
DA:4866,0
DA:4867,0
DA:4868,0
DA:4870,0
DA:4871,0
DA:4872,0
DA:4874,0
DA:4875,0
DA:4876,0
DA:4877,0
DA:4878,0
DA:4879,0
DA:4880,0
DA:4881,0
DA:4882,0
DA:4884,0
DA:4885,0
DA:4886,0
DA:4887,0
DA:4888,0
DA:4889,0
DA:4890,0
DA:4892,0
DA:4894,0
DA:4895,0
DA:4896,0
DA:4897,0
DA:4899,0
DA:4900,0
DA:4901,0
DA:4902,0
DA:4903,0
DA:4904,0
DA:4906,0
DA:4907,0
DA:4908,0
DA:4909,0
DA:4911,0
DA:4912,0
DA:4913,0
DA:4914,0
DA:4915,0
DA:4917,0
DA:4918,0
DA:4919,0
DA:4921,0
DA:4922,0
DA:4923,0
DA:4924,0
DA:4925,0
DA:4928,0
DA:4929,0
DA:4930,0
DA:4931,0
DA:4932,0
DA:4933,0
DA:4935,0
DA:4938,0
DA:4940,0
DA:4941,0
DA:4942,0
DA:4943,0
DA:4944,0
DA:4945,0
DA:4946,0
DA:4947,0
DA:4949,0
DA:4951,0
DA:4952,0
DA:4953,0
DA:4954,0
DA:4955,0
DA:4956,0
DA:4958,0
DA:4959,0
DA:4961,0
DA:4962,0
DA:4964,0
DA:4967,0
DA:4968,0
DA:4969,0
DA:4971,0
DA:4972,0
DA:4974,0
DA:4979,0
DA:4980,0
DA:4982,0
DA:4983,0
DA:4984,0
DA:4985,0
DA:4986,0
DA:4987,0
DA:4989,0
DA:4991,0
DA:4992,0
DA:4993,0
DA:4994,0
DA:4996,0
DA:4997,0
DA:4998,0
DA:5000,0
DA:5001,0
DA:5002,0
DA:5003,0
DA:5004,0
DA:5005,0
DA:5006,0
DA:5008,0
DA:5009,0
DA:5011,0
DA:5014,0
DA:5015,0
DA:5016,0
DA:5018,0
DA:5019,0
DA:5020,0
DA:5022,0
DA:5023,0
DA:5025,0
DA:5026,0
DA:5027,0
DA:5028,0
DA:5084,0
DA:5091,0
DA:5092,0
DA:5093,0
DA:5094,0
DA:5097,0
DA:5098,0
DA:5099,0
DA:5100,0
DA:5101,0
DA:5102,0
DA:5103,0
DA:5104,0
DA:5105,0
DA:5106,0
DA:5107,0
DA:5108,0
DA:5109,0
DA:5110,0
DA:5111,0
DA:5113,0
DA:5114,0
DA:5115,0
DA:5116,0
DA:5117,0
DA:5118,0
DA:5119,0
DA:5120,0
DA:5121,0
DA:5122,0
DA:5123,0
DA:5124,0
DA:5125,0
DA:5127,0
DA:5128,0
DA:5132,0
DA:5133,0
DA:5134,0
DA:5136,0
DA:5137,0
DA:5139,0
DA:5140,0
DA:5141,0
DA:5142,0
DA:5143,0
DA:5144,0
DA:5145,0
DA:5146,0
DA:5147,0
DA:5148,0
DA:5150,0
DA:5151,0
DA:5152,0
DA:5154,0
DA:5155,0
DA:5156,0
DA:5157,0
DA:5158,0
DA:5159,0
DA:5160,0
DA:5161,0
DA:5162,0
DA:5163,0
DA:5165,0
DA:5166,0
DA:5167,0
DA:5168,0
DA:5169,0
DA:5170,0
DA:5171,0
DA:5173,0
DA:5175,0
DA:5176,0
DA:5177,0
DA:5178,0
DA:5180,0
DA:5181,0
DA:5182,0
DA:5183,0
DA:5184,0
DA:5185,0
DA:5187,0
DA:5188,0
DA:5189,0
DA:5190,0
DA:5192,0
DA:5193,0
DA:5194,0
DA:5195,0
DA:5196,0
DA:5198,0
DA:5199,0
DA:5200,0
DA:5202,0
DA:5203,0
DA:5204,0
DA:5205,0
DA:5206,0
DA:5209,0
DA:5210,0
DA:5211,0
DA:5212,0
DA:5213,0
DA:5214,0
DA:5215,0
DA:5216,0
DA:5218,0
DA:5219,0
DA:5220,0
DA:5223,0
DA:5225,0
DA:5226,0
DA:5227,0
DA:5228,0
DA:5229,0
DA:5230,0
DA:5231,0
DA:5232,0
DA:5234,0
DA:5236,0
DA:5237,0
DA:5238,0
DA:5239,0
DA:5240,0
DA:5241,0
DA:5243,0
DA:5244,0
DA:5246,0
DA:5247,0
DA:5249,0
DA:5252,0
DA:5253,0
DA:5254,0
DA:5256,0
DA:5257,0
DA:5259,0
DA:5265,0
DA:5267,0
DA:5269,0
DA:5271,0
DA:5272,0
DA:5273,0
DA:5274,0
DA:5275,0
DA:5276,0
DA:5278,0
DA:5280,0
DA:5281,0
DA:5282,0
DA:5283,0
DA:5285,0
DA:5286,0
DA:5287,0
DA:5288,0
DA:5289,0
DA:5291,0
DA:5292,0
DA:5293,0
DA:5294,0
DA:5295,0
DA:5296,0
DA:5297,0
DA:5299,0
DA:5300,0
DA:5302,0
DA:5305,0
DA:5307,0
DA:5308,0
DA:5309,0
DA:5310,0
DA:5312,0
DA:5313,0
DA:5314,0
DA:5319,0
DA:5320,0
DA:5321,0
DA:5322,0
DA:5328,0
DA:5331,0
DA:5333,0
DA:5334,0
DA:5335,0
DA:5336,0
DA:5337,0
DA:5338,0
DA:5339,0
DA:5340,0
DA:5341,0
DA:5342,0
DA:5343,0
DA:5344,0
DA:5345,0
DA:5347,0
DA:5349,0
DA:5350,0
DA:5351,0
DA:5352,0
DA:5353,0
DA:5355,0
DA:5357,0
DA:5358,0
DA:5359,0
DA:5360,0
DA:5361,0
DA:5363,0
DA:5364,0
DA:5365,0
DA:5367,0
DA:5368,0
DA:5369,0
DA:5372,0
DA:5374,0
DA:5375,0
DA:5376,0
DA:5377,0
DA:5378,0
DA:5379,0
DA:5380,0
DA:5381,0
DA:5382,0
DA:5383,0
DA:5384,0
DA:5385,0
DA:5386,0
DA:5387,0
DA:5388,0
DA:5389,0
DA:5390,0
DA:5391,0
DA:5392,0
DA:5393,0
DA:5394,0
DA:5395,0
DA:5396,0
DA:5399,0
DA:5401,0
DA:5402,0
DA:5405,0
DA:5407,0
DA:5408,0
DA:5409,0
DA:5410,0
DA:5411,0
DA:5412,0
DA:5413,0
DA:5415,0
DA:5417,0
DA:5418,0
DA:5419,0
DA:5420,0
DA:5421,0
DA:5424,0
DA:5425,0
DA:5426,0
DA:5427,0
DA:5428,0
LF:3139
LH:574
end_of_record
TN:
SF:/home/fsl/prog/tino/src/widget/BlockWidget.cpp
FN:3,_ZN6widget11BlockWidgetC2EPN4core5BlockEP7QWidget
FNDA:14,_ZN6widget11BlockWidgetC2EPN4core5BlockEP7QWidget
FNF:1
FNH:1
DA:3,14
DA:4,14
DA:6,14
DA:8,86
DA:9,144
DA:10,144
DA:11,72
DA:13,14
LF:8
LH:8
end_of_record
TN:
SF:/home/fsl/prog/tino/src/widget/BlockWidget.hpp
FN:13,_ZN6widget11BlockWidgetD2Ev
FN:13,_ZN6widget11BlockWidgetD0Ev
FNDA:14,_ZN6widget11BlockWidgetD0Ev
FNDA:14,_ZN6widget11BlockWidgetD2Ev
FNF:2
FNH:2
DA:13,28
LF:1
LH:1
end_of_record
TN:
SF:/home/fsl/prog/tino/src/widget/BtnContainer.cpp
FN:6,_ZN6widget12BtnContainerC2EPN4core4ByteEm
FN:13,_ZZN6widget12BtnContainerC4EPN4core4ByteEmENKUlvE_clEv
FN:21,_ZN6widget12BtnContainer6setClrEm
FNDA:0,_ZZN6widget12BtnContainerC4EPN4core4ByteEmENKUlvE_clEv
FNDA:640,_ZN6widget12BtnContainer6setClrEm
FNDA:160,_ZN6widget12BtnContainerC2EPN4core4ByteEm
FNF:3
FNH:2
DA:6,160
DA:8,160
DA:9,160
DA:11,800
DA:12,1280
DA:13,1280
DA:14,0
DA:15,0
DA:16,1280
DA:17,640
DA:19,160
DA:21,640
DA:23,640
DA:24,640
LF:14
LH:12
end_of_record
TN:
SF:/home/fsl/prog/tino/src/widget/BtnContainer.hpp
FN:14,_ZN6widget12BtnContainerD2Ev
FNDA:160,_ZN6widget12BtnContainerD2Ev
FNF:1
FNH:1
DA:14,160
LF:1
LH:1
end_of_record
TN:
SF:/home/fsl/prog/tino/src/widget/GroupWidget.cpp
FN:5,_ZN6widget11GroupWidgetC2EPN4core5GroupEP7QWidget
FNDA:72,_ZN6widget11GroupWidgetC2EPN4core5GroupEP7QWidget
FNF:1
FNH:1
DA:5,72
DA:6,72
DA:8,72
DA:11,72
DA:12,14
DA:13,94
DA:14,160
DA:15,160
DA:16,80
DA:17,80
DA:19,14
DA:20,14
DA:21,52
DA:22,76
DA:23,76
DA:24,38
DA:25,38
DA:27,14
DA:28,44
DA:29,44
DA:30,44
DA:31,44
DA:32,0
DA:33,0
DA:34,0
DA:36,72
LF:26
LH:23
end_of_record
TN:
SF:/home/fsl/prog/tino/src/widget/GroupWidget.hpp
FN:15,_ZN6widget11GroupWidgetD0Ev
FN:15,_ZN6widget11GroupWidgetD2Ev
FNDA:72,_ZN6widget11GroupWidgetD0Ev
FNDA:72,_ZN6widget11GroupWidgetD2Ev
FNF:2
FNH:2
DA:15,144
LF:1
LH:1
end_of_record
TN:
SF:/home/fsl/prog/tino/src/widget/HalfMask.cpp
FN:5,_ZN6widget8HalfMaskC2EPN4core4ByteEmP7QWidget
FNDA:160,_ZN6widget8HalfMaskC2EPN4core4ByteEmP7QWidget
FNF:1
FNH:1
DA:5,160
DA:6,160
DA:8,160
DA:10,320
DA:11,320
DA:13,800
DA:14,1280
DA:15,1280
DA:16,640
DA:17,640
DA:19,640
DA:21,160
LF:12
LH:12
end_of_record
TN:
SF:/home/fsl/prog/tino/src/widget/HalfMask.hpp
FN:17,_ZN6widget8HalfMaskD2Ev
FN:17,_ZN6widget8HalfMaskD0Ev
FNDA:160,_ZN6widget8HalfMaskD2Ev
FNDA:160,_ZN6widget8HalfMaskD0Ev
FNF:2
FNH:2
DA:17,320
LF:1
LH:1
end_of_record
TN:
SF:/home/fsl/prog/tino/src/widget/Joined.cpp
FN:8,_ZN6widget6JoinedC2EPN4core5GroupEP7QWidget
FN:28,_ZZN6widget6JoinedC4EPN4core5GroupEP7QWidgetENKUlvE_clEv
FNDA:0,_ZZN6widget6JoinedC4EPN4core5GroupEP7QWidgetENKUlvE_clEv
FNDA:44,_ZN6widget6JoinedC2EPN4core5GroupEP7QWidget
FNF:2
FNH:1
DA:8,44
DA:10,44
DA:11,44
DA:13,44
DA:14,44
DA:15,44
DA:16,44
DA:17,44
DA:19,44
DA:20,142
DA:21,196
DA:22,196
DA:23,98
DA:24,98
DA:26,44
DA:28,44
DA:29,0
DA:30,0
DA:31,0
DA:32,0
DA:34,0
DA:35,44
LF:22
LH:17
end_of_record
TN:
SF:/home/fsl/prog/tino/src/widget/Joined.hpp
FN:15,_ZN6widget6JoinedD2Ev
FN:15,_ZN6widget6JoinedD0Ev
FNDA:44,_ZN6widget6JoinedD0Ev
FNDA:44,_ZN6widget6JoinedD2Ev
FNF:2
FNH:2
DA:15,88
LF:1
LH:1
end_of_record
TN:
SF:/home/fsl/prog/tino/src/widget/Mask.cpp
FN:6,_ZN6widget4MaskC2EPN4core4ByteEbP7QWidget
FN:22,_ZN6widget4Mask5valAtEm
FN:27,_ZN6widget4Mask11getStyleBtnEm
FN:32,_ZN6widget4Mask8clickBtnEm
FNDA:0,_ZN6widget4Mask5valAtEm
FNDA:0,_ZN6widget4Mask11getStyleBtnEm
FNDA:0,_ZN6widget4Mask8clickBtnEm
FNDA:80,_ZN6widget4MaskC2EPN4core4ByteEbP7QWidget
FNF:4
FNH:1
DA:6,80
DA:7,80
DA:9,80
DA:10,0
DA:11,80
DA:12,80
DA:14,240
DA:15,160
DA:16,160
DA:17,160
DA:18,160
DA:20,80
DA:22,0
DA:24,0
DA:27,0
DA:29,0
DA:32,0
DA:34,0
DA:35,0
LF:19
LH:11
end_of_record
TN:
SF:/home/fsl/prog/tino/src/widget/Mask.hpp
FN:17,_ZN6widget4MaskD0Ev
FN:17,_ZN6widget4MaskD2Ev
FNDA:80,_ZN6widget4MaskD2Ev
FNDA:80,_ZN6widget4MaskD0Ev
FNF:2
FNH:2
DA:17,160
LF:1
LH:1
end_of_record
TN:
SF:/home/fsl/prog/tino/src/widget/ScrollBlock.cpp
FN:5,_ZN11ScrollBlockC2EPN4core5BlockEP7QWidget
FN:27,_ZN11ScrollBlock7refreshEv
FNDA:7,_ZN11ScrollBlock7refreshEv
FNDA:7,_ZN11ScrollBlockC2EPN4core5BlockEP7QWidget
FNF:2
FNH:2
DA:5,7
DA:7,7
DA:8,7
DA:10,7
DA:11,7
DA:12,7
DA:13,7
DA:15,7
DA:16,7
DA:18,7
DA:19,7
DA:21,7
DA:22,7
DA:24,7
DA:25,7
DA:27,7
DA:29,7
DA:30,0
DA:31,0
DA:33,7
DA:34,7
DA:36,7
DA:37,7
DA:38,7
DA:39,7
LF:25
LH:23
end_of_record
TN:
SF:/home/fsl/prog/tino/src/widget/Value.cpp
FN:7,_ZN6widget5ValueC2EPN4core4ByteEbP7QWidget
FN:22,_ZZN6widget5ValueC4EPN4core4ByteEbP7QWidgetENKUlvE_clEv
FNDA:38,_ZN6widget5ValueC2EPN4core4ByteEbP7QWidget
FNDA:0,_ZZN6widget5ValueC4EPN4core4ByteEbP7QWidgetENKUlvE_clEv
FNF:2
FNH:1
DA:7,38
DA:8,38
DA:10,38
DA:11,38
DA:12,0
DA:13,38
DA:15,38
DA:16,38
DA:17,38
DA:18,38
DA:19,38
DA:21,38
DA:22,0
DA:24,38
DA:25,38
DA:26,38
LF:16
LH:14
end_of_record
TN:
SF:/home/fsl/prog/tino/src/widget/Value.hpp
FN:18,_ZN6widget5ValueD0Ev
FN:18,_ZN6widget5ValueD2Ev
FNDA:38,_ZN6widget5ValueD2Ev
FNDA:38,_ZN6widget5ValueD0Ev
FNF:2
FNH:2
DA:18,76
LF:1
LH:1
end_of_record
TN:
SF:/usr/include/c++/8/array
FN:55,_ZNSt14__array_traitsINSt7__cxx1112basic_stringIcSt11char_traitsIcESaIcEEELm3EE6_S_refERA3_KS5_m
FN:185,_ZNSt5arrayINSt7__cxx1112basic_stringIcSt11char_traitsIcESaIcEEELm3EEixEm
FNDA:0,_ZNSt5arrayINSt7__cxx1112basic_stringIcSt11char_traitsIcESaIcEEELm3EEixEm
FNDA:0,_ZNSt14__array_traitsINSt7__cxx1112basic_stringIcSt11char_traitsIcESaIcEEELm3EE6_S_refERA3_KS5_m
FNF:2
FNH:0
DA:55,0
DA:56,0
DA:185,0
DA:186,0
LF:4
LH:0
end_of_record
TN:
SF:/usr/include/c++/8/atomic
FN:672,_ZNSt6atomicIiEC2Ei
FNDA:730,_ZNSt6atomicIiEC2Ei
FNF:1
FNH:1
DA:672,730
LF:1
LH:1
end_of_record
TN:
SF:/usr/include/c++/8/bits/basic_string.tcc
FN:132,_ZNSt7__cxx1112basic_stringIcSt11char_traitsIcESaIcEE9_M_createERmm
FN:206,_ZNSt7__cxx1112basic_stringIcSt11char_traitsIcESaIcEE12_M_constructIPKcEEvT_S8_St20forward_iterator_tag
FN:206,_ZNSt7__cxx1112basic_stringIcSt11char_traitsIcESaIcEE12_M_constructIPcEEvT_S7_St20forward_iterator_tag
FN:237,_ZNSt7__cxx1112basic_stringIcSt11char_traitsIcESaIcEE12_M_constructEmc
FN:254,_ZNSt7__cxx1112basic_stringIcSt11char_traitsIcESaIcEE9_M_assignERKS4_
FN:280,_ZNSt7__cxx1112basic_stringIcSt11char_traitsIcESaIcEE7reserveEm
FN:310,_ZNSt7__cxx1112basic_stringIcSt11char_traitsIcESaIcEE9_M_mutateEmmPKcm
FN:334,_ZNSt7__cxx1112basic_stringIcSt11char_traitsIcESaIcEE8_M_eraseEmm
FN:347,_ZNSt7__cxx1112basic_stringIcSt11char_traitsIcESaIcEE6resizeEmc
FN:359,_ZNSt7__cxx1112basic_stringIcSt11char_traitsIcESaIcEE9_M_appendEPKcm
FN:392,_ZNSt7__cxx1112basic_stringIcSt11char_traitsIcESaIcEE14_M_replace_auxEmmmc
FN:421,_ZNSt7__cxx1112basic_stringIcSt11char_traitsIcESaIcEE10_M_replaceEmmPKcm
FN:1157,_ZStplIcSt11char_traitsIcESaIcEENSt7__cxx1112basic_stringIT_T0_T1_EEPKS5_RKS8_
FN:1187,_ZNKSt7__cxx1112basic_stringIcSt11char_traitsIcESaIcEE4findEPKcmm
FN:1223,_ZNKSt7__cxx1112basic_stringIcSt11char_traitsIcESaIcEE4findEcm
FN:1417,_ZNKSt7__cxx1112basic_stringIcSt11char_traitsIcESaIcEE7compareEPKc
FNDA:392,_ZNSt7__cxx1112basic_stringIcSt11char_traitsIcESaIcEE9_M_createERmm
FNDA:2,_ZNSt7__cxx1112basic_stringIcSt11char_traitsIcESaIcEE9_M_mutateEmmPKcm
FNDA:0,_ZNSt7__cxx1112basic_stringIcSt11char_traitsIcESaIcEE9_M_appendEPKcm
FNDA:0,_ZNSt7__cxx1112basic_stringIcSt11char_traitsIcESaIcEE14_M_replace_auxEmmmc
FNDA:0,_ZNSt7__cxx1112basic_stringIcSt11char_traitsIcESaIcEE8_M_eraseEmm
FNDA:473,_ZNSt7__cxx1112basic_stringIcSt11char_traitsIcESaIcEE12_M_constructIPKcEEvT_S8_St20forward_iterator_tag
FNDA:16,_ZNSt7__cxx1112basic_stringIcSt11char_traitsIcESaIcEE10_M_replaceEmmPKcm
FNDA:0,_ZNSt7__cxx1112basic_stringIcSt11char_traitsIcESaIcEE12_M_constructEmc
FNDA:0,_ZNKSt7__cxx1112basic_stringIcSt11char_traitsIcESaIcEE4findEcm
FNDA:53,_ZNSt7__cxx1112basic_stringIcSt11char_traitsIcESaIcEE9_M_assignERKS4_
FNDA:0,_ZNKSt7__cxx1112basic_stringIcSt11char_traitsIcESaIcEE7compareEPKc
FNDA:4970,_ZNSt7__cxx1112basic_stringIcSt11char_traitsIcESaIcEE12_M_constructIPcEEvT_S7_St20forward_iterator_tag
FNDA:0,_ZNSt7__cxx1112basic_stringIcSt11char_traitsIcESaIcEE7reserveEm
FNDA:0,_ZNKSt7__cxx1112basic_stringIcSt11char_traitsIcESaIcEE4findEPKcmm
FNDA:0,_ZStplIcSt11char_traitsIcESaIcEENSt7__cxx1112basic_stringIT_T0_T1_EEPKS5_RKS8_
FNDA:0,_ZNSt7__cxx1112basic_stringIcSt11char_traitsIcESaIcEE6resizeEmc
FNF:16
FNH:6
DA:132,392
DA:137,392
DA:138,0
DA:143,392
DA:145,13
DA:147,13
DA:148,0
DA:153,392
DA:206,5443
DA:211,5443
DA:212,0
DA:215,5443
DA:217,5443
DA:219,295
DA:220,295
DA:225,5443
DA:232,5443
DA:233,5443
DA:234,4970
DA:239,4970
DA:240,0
DA:243,4970
DA:245,4970
DA:247,267
DA:248,267
DA:253,4970
DA:254,0
DA:257,0
DA:259,0
DA:260,4970
DA:261,4970
DA:262,473
DA:264,0
DA:265,0
DA:266,0
DA:267,473
DA:268,0
DA:271,473
DA:272,0
DA:273,473
DA:274,0
DA:275,28
DA:276,28
DA:281,473
DA:288,473
DA:289,473
DA:293,0
DA:296,0
DA:298,0
DA:299,0
DA:302,0
DA:303,0
DA:305,0
DA:306,0
DA:310,53
DA:313,53
DA:314,0
DA:315,53
DA:316,53
DA:317,0
DA:318,53
DA:319,0
DA:320,16
DA:321,16
DA:322,16
DA:323,16
DA:324,16
DA:325,0
DA:327,53
DA:328,24
DA:329,0
DA:330,53
DA:332,53
DA:336,0
DA:340,0
DA:341,0
DA:343,0
DA:344,0
DA:346,0
DA:347,0
DA:349,0
DA:350,0
DA:351,0
DA:352,0
DA:353,0
DA:355,0
DA:357,0
DA:358,0
DA:359,0
DA:362,0
DA:364,0
DA:366,2
DA:367,0
DA:370,2
DA:372,2
DA:373,2
DA:375,2
DA:376,0
DA:377,2
DA:378,2
DA:379,2
DA:380,0
DA:381,0
DA:383,2
DA:384,2
DA:385,2
DA:386,2
DA:390,0
DA:393,0
DA:395,0
DA:396,0
DA:398,0
DA:399,0
DA:403,0
DA:406,0
DA:407,0
DA:408,0
DA:409,0
DA:410,0
DA:411,0
DA:415,0
DA:418,0
DA:420,0
DA:421,0
DA:422,0
DA:423,0
DA:425,0
DA:426,0
DA:427,0
DA:428,0
DA:429,0
DA:430,0
DA:432,0
DA:434,0
DA:435,0
DA:437,0
DA:438,0
DA:439,0
DA:440,0
DA:445,0
DA:446,0
DA:447,0
DA:448,0
DA:449,0
DA:451,0
DA:452,0
DA:453,0
DA:454,0
DA:455,0
DA:457,0
DA:458,0
DA:459,0
DA:461,0
DA:462,0
DA:463,0
DA:466,0
DA:468,0
DA:469,0
DA:471,0
DA:472,0
DA:477,16
DA:481,16
DA:483,16
DA:484,16
DA:486,16
DA:488,14
DA:490,14
DA:491,14
DA:493,14
DA:494,0
DA:495,14
DA:496,13
DA:501,0
DA:502,0
DA:503,0
DA:504,0
DA:505,0
DA:507,0
DA:508,0
DA:509,0
DA:510,0
DA:513,0
DA:514,0
DA:515,0
DA:522,2
DA:524,16
DA:525,16
DA:1187,0
DA:1192,0
DA:1194,0
DA:1195,0
DA:1196,0
DA:1197,0
DA:1199,0
DA:1200,0
DA:1201,0
DA:1202,0
DA:1203,0
DA:1205,0
DA:1208,0
DA:1209,0
DA:1210,0
DA:1213,0
DA:1214,0
DA:1215,0
DA:1216,0
DA:1218,0
DA:1219,0
DA:1220,0
DA:1221,0
DA:1222,0
DA:1223,0
DA:1224,0
DA:1279,0
DA:1282,0
DA:1283,0
DA:1284,0
DA:1286,0
DA:1287,0
DA:1288,0
DA:1289,0
DA:1290,0
DA:1292,0
DA:1473,0
DA:1477,0
DA:1478,0
DA:1479,0
DA:1480,0
DA:1481,0
DA:1482,0
DA:1483,0
LF:231
LH:73
end_of_record
TN:
SF:/usr/include/c++/8/bits/deque.tcc
FN:162,_ZNSt5dequeIPN4Json5ValueESaIS2_EE12emplace_backIJS2_EEERS2_DpOT_
FN:348,_ZNSt5dequeIN4Json9OurReader9ErrorInfoESaIS2_EE17_M_default_appendEm
FN:348,_ZNSt5dequeIN4Json6Reader9ErrorInfoESaIS2_EE17_M_default_appendEm
FN:479,_ZNSt5dequeIPN4Json5ValueESaIS2_EE16_M_push_back_auxIJS2_EEEvDpOT_
FN:479,_ZNSt5dequeIN4Json6Reader9ErrorInfoESaIS2_EE16_M_push_back_auxIJRKS2_EEEvDpOT_
FN:479,_ZNSt5dequeIN4Json9OurReader9ErrorInfoESaIS2_EE16_M_push_back_auxIJRKS2_EEEvDpOT_
FN:547,_ZNSt5dequeIPN4Json5ValueESaIS2_EE15_M_pop_back_auxEv
FN:846,_ZNSt5dequeIN4Json6Reader9ErrorInfoESaIS2_EE19_M_destroy_data_auxESt15_Deque_iteratorIS2_RS2_PS2_ES8_
FN:846,_ZNSt5dequeIN4Json9OurReader9ErrorInfoESaIS2_EE19_M_destroy_data_auxESt15_Deque_iteratorIS2_RS2_PS2_ES8_
FN:893,_ZNSt5dequeIN4Json9OurReader9ErrorInfoESaIS2_EE23_M_new_elements_at_backEm
FN:893,_ZNSt5dequeIN4Json6Reader9ErrorInfoESaIS2_EE23_M_new_elements_at_backEm
FN:918,_ZNSt5dequeIN4Json6Reader9ErrorInfoESaIS2_EE17_M_reallocate_mapEmb
FN:918,_ZNSt5dequeIPN4Json5ValueESaIS2_EE17_M_reallocate_mapEmb
FN:918,_ZNSt5dequeIN4Json9OurReader9ErrorInfoESaIS2_EE17_M_reallocate_mapEmb
FNDA:0,_ZNSt5dequeIN4Json9OurReader9ErrorInfoESaIS2_EE16_M_push_back_auxIJRKS2_EEEvDpOT_
FNDA:0,_ZNSt5dequeIN4Json6Reader9ErrorInfoESaIS2_EE19_M_destroy_data_auxESt15_Deque_iteratorIS2_RS2_PS2_ES8_
FNDA:4,_ZNSt5dequeIN4Json9OurReader9ErrorInfoESaIS2_EE19_M_destroy_data_auxESt15_Deque_iteratorIS2_RS2_PS2_ES8_
FNDA:0,_ZNSt5dequeIN4Json9OurReader9ErrorInfoESaIS2_EE23_M_new_elements_at_backEm
FNDA:0,_ZNSt5dequeIN4Json9OurReader9ErrorInfoESaIS2_EE17_M_reallocate_mapEmb
FNDA:0,_ZNSt5dequeIN4Json6Reader9ErrorInfoESaIS2_EE23_M_new_elements_at_backEm
FNDA:1808,_ZNSt5dequeIPN4Json5ValueESaIS2_EE12emplace_backIJS2_EEERS2_DpOT_
FNDA:0,_ZNSt5dequeIN4Json6Reader9ErrorInfoESaIS2_EE17_M_reallocate_mapEmb
FNDA:0,_ZNSt5dequeIN4Json9OurReader9ErrorInfoESaIS2_EE17_M_default_appendEm
FNDA:0,_ZNSt5dequeIN4Json6Reader9ErrorInfoESaIS2_EE16_M_push_back_auxIJRKS2_EEEvDpOT_
FNDA:0,_ZNSt5dequeIPN4Json5ValueESaIS2_EE16_M_push_back_auxIJS2_EEEvDpOT_
FNDA:0,_ZNSt5dequeIPN4Json5ValueESaIS2_EE17_M_reallocate_mapEmb
FNDA:0,_ZNSt5dequeIN4Json6Reader9ErrorInfoESaIS2_EE17_M_default_appendEm
FNDA:0,_ZNSt5dequeIPN4Json5ValueESaIS2_EE15_M_pop_back_auxEv
FNF:14
FNH:2
DA:162,1808
DA:165,3616
DA:166,1808
DA:168,1808
DA:171,1808
DA:174,0
DA:176,1808
DA:348,0
DA:351,0
DA:353,0
DA:356,0
DA:358,0
DA:359,0
DA:361,0
DA:363,0
DA:364,0
DA:365,0
DA:368,0
DA:369,0
DA:372,0
DA:374,0
DA:377,0
DA:379,0
DA:380,0
DA:382,0
DA:384,0
DA:385,0
DA:386,0
DA:389,0
DA:390,0
DA:393,0
DA:395,0
DA:398,0
DA:400,0
DA:401,0
DA:403,0
DA:405,0
DA:406,0
DA:407,0
DA:410,0
DA:521,0
DA:529,0
DA:530,0
DA:534,0
DA:540,0
DA:542,0
DA:544,0
DA:546,0
DA:547,0
DA:549,0
DA:550,0
DA:558,0
DA:559,0
DA:563,0
DA:569,0
DA:571,0
DA:573,0
DA:575,0
DA:576,0
DA:578,0
DA:579,0
DA:587,0
DA:588,0
DA:592,0
DA:598,0
DA:600,0
DA:602,0
DA:604,0
DA:605,0
DA:607,0
DA:608,0
DA:616,0
DA:617,0
DA:621,0
DA:627,0
DA:629,0
DA:631,0
DA:633,0
DA:634,0
DA:636,0
DA:676,0
DA:679,0
DA:680,0
DA:681,0
DA:682,0
DA:684,0
DA:975,4
DA:978,4
DA:979,4
DA:980,0
DA:981,0
DA:983,4
DA:985,0
DA:986,0
DA:987,0
DA:988,0
DA:991,4
DA:992,4
DA:993,4
DA:994,4
DA:997,4
DA:998,4
DA:999,0
DA:1000,0
DA:1002,4
DA:1004,0
DA:1005,0
DA:1006,0
DA:1007,0
DA:1010,4
DA:1011,4
DA:1012,4
DA:1013,0
DA:1016,0
DA:1017,0
DA:1018,0
DA:1019,0
DA:1021,0
DA:1023,0
DA:1024,0
DA:1025,0
DA:1026,0
DA:1029,0
DA:1030,0
DA:1031,0
DA:1060,0
DA:1063,0
DA:1064,0
DA:1066,0
DA:1067,0
DA:1068,0
DA:1072,0
DA:1073,0
DA:1075,0
DA:1077,0
DA:1078,0
DA:1079,0
DA:1081,0
DA:1082,0
DA:1085,0
DA:1086,0
DA:1088,0
DA:1089,0
DA:1090,0
DA:1094,0
DA:1095,0
DA:1097,0
DA:1099,0
DA:1100,0
DA:1101,0
DA:1103,0
DA:1104,0
DA:1107,0
DA:1108,0
DA:1110,0
DA:1111,0
DA:1112,0
DA:1116,0
DA:1117,0
DA:1119,0
DA:1121,0
DA:1122,0
DA:1123,0
DA:1125,0
DA:1129,0
DA:1132,0
DA:1133,0
DA:1134,0
DA:1137,0
DA:1139,0
DA:1140,0
DA:1141,0
DA:1142,0
DA:1143,0
DA:1144,0
DA:1147,0
DA:1148,0
DA:1149,0
DA:1153,0
DA:1154,0
DA:1157,0
DA:1158,0
DA:1159,0
DA:1160,0
DA:1161,0
DA:1163,0
DA:1165,0
DA:1166,0
DA:1169,0
DA:1170,0
DA:1171,0
DA:1172,0
DA:1175,0
DA:1176,0
DA:1177,0
DA:1180,0
DA:1182,0
DA:1183,0
DA:1184,0
DA:1185,0
DA:1186,0
DA:1187,0
DA:1190,0
DA:1191,0
DA:1192,0
DA:1196,0
DA:1197,0
DA:1200,0
DA:1201,0
DA:1202,0
DA:1203,0
DA:1204,0
DA:1206,0
DA:1208,0
DA:1209,0
DA:1212,0
DA:1213,0
DA:1214,0
DA:1215,0
DA:1218,0
DA:1219,0
DA:1220,0
DA:1223,0
DA:1225,0
DA:1226,0
DA:1227,0
DA:1228,0
DA:1229,0
DA:1230,0
DA:1233,0
DA:1234,0
DA:1235,0
DA:1239,0
DA:1240,0
DA:1243,0
DA:1244,0
DA:1245,0
DA:1246,0
DA:1247,0
DA:1249,0
DA:1251,0
DA:1252,0
DA:1255,0
DA:1256,0
DA:1257,0
DA:1258,0
DA:1261,0
DA:1262,0
DA:1263,0
DA:1266,0
DA:1268,0
DA:1269,0
DA:1270,0
DA:1271,0
DA:1272,0
DA:1273,0
DA:1276,0
DA:1277,0
DA:1278,0
DA:1282,0
DA:1283,0
DA:1286,0
DA:1287,0
DA:1288,0
DA:1289,0
DA:1290,0
DA:1292,0
DA:1294,0
DA:1295,0
DA:1298,0
DA:1299,0
DA:1300,0
LF:272
LH:20
end_of_record
TN:
SF:/usr/include/c++/8/bits/vector.tcc
FN:66,_ZNSt6vectorINSt7__cxx1112basic_stringIcSt11char_traitsIcESaIcEEESaIS5_EE7reserveEm
FN:66,_ZNSt6vectorIPKN4Json12PathArgumentESaIS3_EE7reserveEm
FN:97,_ZNSt6vectorIP9QSplitterSaIS1_EE12emplace_backIJS1_EEERS1_DpOT_
FN:97,_ZNSt6vectorIPKN4Json12PathArgumentESaIS3_EE12emplace_backIJS3_EEERS3_DpOT_
FN:97,_ZNSt6vectorINSt7__cxx1112basic_stringIcSt11char_traitsIcESaIcEEESaIS5_EE12emplace_backIJS5_EEERS5_DpOT_
FN:97,_ZNSt6vectorISt10unique_ptrIN6widget4MaskESt14default_deleteIS2_EESaIS5_EE12emplace_backIJS5_EEERS5_DpOT_
FN:97,_ZNSt6vectorIP6QLabelSaIS1_EE12emplace_backIJS1_EEERS1_DpOT_
FN:97,_ZNSt6vectorIN4Json12PathArgumentESaIS1_EE12emplace_backIJS1_EEERS1_DpOT_
FN:97,_ZNSt6vectorISt10unique_ptrI11ScrollBlockSt14default_deleteIS1_EESaIS4_EE12emplace_backIJS4_EEERS4_DpOT_
FN:97,_ZNSt6vectorISt4pairISt10unique_ptrI11QPushButtonSt14default_deleteIS2_EESt8functionIFvvEEESaIS9_EE12emplace_backIJS0_IS5_ZN6widget12BtnContainerC4EPN4core4ByteEmEUlvE_EEEERS9_DpOT_
FN:97,_ZNSt6vectorISt10unique_ptrIN6widget8HalfMaskESt14default_deleteIS2_EESaIS5_EE12emplace_backIJS5_EEERS5_DpOT_
FN:97,_ZNSt6vectorISt10unique_ptrIN6widget11GroupWidgetESt14default_deleteIS2_EESaIS5_EE12emplace_backIJS5_EEERS5_DpOT_
FN:97,_ZNSt6vectorISt10unique_ptrIN6widget5ValueESt14default_deleteIS2_EESaIS5_EE12emplace_backIJS5_EEERS5_DpOT_
FN:172,_ZNSt6vectorIN4core5BlockESaIS1_EE8_M_eraseEN9__gnu_cxx17__normal_iteratorIPS1_S3_EES7_
FN:186,_ZNSt6vectorIN4core4ByteESaIS1_EEaSERKS3_
FN:186,_ZNSt6vectorINSt7__cxx1112basic_stringIcSt11char_traitsIcESaIcEEESaIS5_EEaSERKS7_
FN:186,_ZNSt6vectorIN4core5GroupESaIS1_EEaSERKS3_
FN:413,_ZNSt6vectorIN4core5GroupESaIS1_EE17_M_realloc_insertIJRKS1_EEEvN9__gnu_cxx17__normal_iteratorIPS1_S3_EEDpOT_
FN:413,_ZNSt6vectorIP9QSplitterSaIS1_EE17_M_realloc_insertIJS1_EEEvN9__gnu_cxx17__normal_iteratorIPS1_S3_EEDpOT_
FN:413,_ZNSt6vectorISt10unique_ptrIN6widget5ValueESt14default_deleteIS2_EESaIS5_EE17_M_realloc_insertIJS5_EEEvN9__gnu_cxx17__normal_iteratorIPS5_S7_EEDpOT_
FN:413,_ZNSt6vectorIN4core5BlockESaIS1_EE17_M_realloc_insertIJRKS1_EEEvN9__gnu_cxx17__normal_iteratorIPS1_S3_EEDpOT_
FN:413,_ZNSt6vectorISt4pairISt10unique_ptrI11QPushButtonSt14default_deleteIS2_EESt8functionIFvvEEESaIS9_EE17_M_realloc_insertIJS0_IS5_ZN6widget12BtnContainerC4EPN4core4ByteEmEUlvE_EEEEvN9__gnu_cxx17__normal_iteratorIPS9_SB_EEDpOT_
FN:413,_ZNSt6vectorISt10unique_ptrIN6widget4MaskESt14default_deleteIS2_EESaIS5_EE17_M_realloc_insertIJS5_EEEvN9__gnu_cxx17__normal_iteratorIPS5_S7_EEDpOT_
FN:413,_ZNSt6vectorISt10unique_ptrIN6widget8HalfMaskESt14default_deleteIS2_EESaIS5_EE17_M_realloc_insertIJS5_EEEvN9__gnu_cxx17__normal_iteratorIPS5_S7_EEDpOT_
FN:413,_ZNSt6vectorINSt7__cxx1112basic_stringIcSt11char_traitsIcESaIcEEESaIS5_EE17_M_realloc_insertIJRKS5_EEEvN9__gnu_cxx17__normal_iteratorIPS5_S7_EEDpOT_
FN:413,_ZNSt6vectorIN4Json6Reader15StructuredErrorESaIS2_EE17_M_realloc_insertIJRKS2_EEEvN9__gnu_cxx17__normal_iteratorIPS2_S4_EEDpOT_
FN:413,_ZNSt6vectorIN4Json12PathArgumentESaIS1_EE17_M_realloc_insertIJRKS1_EEEvN9__gnu_cxx17__normal_iteratorIPS1_S3_EEDpOT_
FN:413,_ZNSt6vectorISt10unique_ptrIN6widget11GroupWidgetESt14default_deleteIS2_EESaIS5_EE17_M_realloc_insertIJS5_EEEvN9__gnu_cxx17__normal_iteratorIPS5_S7_EEDpOT_
FN:413,_ZNSt6vectorIN4core4ByteESaIS1_EE17_M_realloc_insertIJRKS1_EEEvN9__gnu_cxx17__normal_iteratorIPS1_S3_EEDpOT_
FN:413,_ZNSt6vectorINSt7__cxx1112basic_stringIcSt11char_traitsIcESaIcEEESaIS5_EE17_M_realloc_insertIJS5_EEEvN9__gnu_cxx17__normal_iteratorIPS5_S7_EEDpOT_
FN:413,_ZNSt6vectorIN4Json12PathArgumentESaIS1_EE17_M_realloc_insertIJS1_EEEvN9__gnu_cxx17__normal_iteratorIPS1_S3_EEDpOT_
FN:413,_ZNSt6vectorIPKN4Json12PathArgumentESaIS3_EE17_M_realloc_insertIJS3_EEEvN9__gnu_cxx17__normal_iteratorIPS3_S5_EEDpOT_
FN:413,_ZNSt6vectorISt10unique_ptrI11ScrollBlockSt14default_deleteIS1_EESaIS4_EE17_M_realloc_insertIJS4_EEEvN9__gnu_cxx17__normal_iteratorIPS4_S6_EEDpOT_
FN:413,_ZNSt6vectorIN4Json9OurReader15StructuredErrorESaIS2_EE17_M_realloc_insertIJRKS2_EEEvN9__gnu_cxx17__normal_iteratorIPS2_S4_EEDpOT_
FN:413,_ZNSt6vectorIP6QLabelSaIS1_EE17_M_realloc_insertIJS1_EEEvN9__gnu_cxx17__normal_iteratorIPS1_S3_EEDpOT_
FN:841,_ZNSt6vectorIbSaIbEE13_M_insert_auxESt13_Bit_iteratorb
FNDA:0,_ZNSt6vectorIPKN4Json12PathArgumentESaIS3_EE12emplace_backIJS3_EEERS3_DpOT_
FNDA:160,_ZNSt6vectorISt10unique_ptrIN6widget8HalfMaskESt14default_deleteIS2_EESaIS5_EE17_M_realloc_insertIJS5_EEEvN9__gnu_cxx17__normal_iteratorIPS5_S7_EEDpOT_
FNDA:50,_ZNSt6vectorISt10unique_ptrIN6widget4MaskESt14default_deleteIS2_EESaIS5_EE17_M_realloc_insertIJS5_EEEvN9__gnu_cxx17__normal_iteratorIPS5_S7_EEDpOT_
FNDA:0,_ZNSt6vectorIPKN4Json12PathArgumentESaIS3_EE7reserveEm
FNDA:3,_ZNSt6vectorIP9QSplitterSaIS1_EE12emplace_backIJS1_EEERS1_DpOT_
FNDA:0,_ZNSt6vectorINSt7__cxx1112basic_stringIcSt11char_traitsIcESaIcEEESaIS5_EE7reserveEm
FNDA:480,_ZNSt6vectorISt4pairISt10unique_ptrI11QPushButtonSt14default_deleteIS2_EESt8functionIFvvEEESaIS9_EE17_M_realloc_insertIJS0_IS5_ZN6widget12BtnContainerC4EPN4core4ByteEmEUlvE_EEEEvN9__gnu_cxx17__normal_iteratorIPS9_SB_EEDpOT_
FNDA:4,_ZNSt6vectorIN4core5BlockESaIS1_EE17_M_realloc_insertIJRKS1_EEEvN9__gnu_cxx17__normal_iteratorIPS1_S3_EEDpOT_
FNDA:38,_ZNSt6vectorISt10unique_ptrIN6widget5ValueESt14default_deleteIS2_EESaIS5_EE17_M_realloc_insertIJS5_EEEvN9__gnu_cxx17__normal_iteratorIPS5_S7_EEDpOT_
FNDA:22,_ZNSt6vectorIN4core5GroupESaIS1_EE17_M_realloc_insertIJRKS1_EEEvN9__gnu_cxx17__normal_iteratorIPS1_S3_EEDpOT_
FNDA:3,_ZNSt6vectorIP9QSplitterSaIS1_EE17_M_realloc_insertIJS1_EEEvN9__gnu_cxx17__normal_iteratorIPS1_S3_EEDpOT_
FNDA:0,_ZNSt6vectorIN4Json9OurReader15StructuredErrorESaIS2_EE17_M_realloc_insertIJRKS2_EEEvN9__gnu_cxx17__normal_iteratorIPS2_S4_EEDpOT_
FNDA:98,_ZNSt6vectorIP6QLabelSaIS1_EE17_M_realloc_insertIJS1_EEEvN9__gnu_cxx17__normal_iteratorIPS1_S3_EEDpOT_
FNDA:0,_ZNSt6vectorIN4core5GroupESaIS1_EEaSERKS3_
FNDA:38,_ZNSt6vectorISt10unique_ptrIN6widget5ValueESt14default_deleteIS2_EESaIS5_EE12emplace_backIJS5_EEERS5_DpOT_
FNDA:108,_ZNSt6vectorIbSaIbEE13_M_insert_auxESt13_Bit_iteratorb
FNDA:72,_ZNSt6vectorISt10unique_ptrIN6widget11GroupWidgetESt14default_deleteIS2_EESaIS5_EE12emplace_backIJS5_EEERS5_DpOT_
FNDA:6,_ZNSt6vectorISt10unique_ptrI11ScrollBlockSt14default_deleteIS1_EESaIS4_EE17_M_realloc_insertIJS4_EEEvN9__gnu_cxx17__normal_iteratorIPS4_S6_EEDpOT_
FNDA:0,_ZNSt6vectorIPKN4Json12PathArgumentESaIS3_EE17_M_realloc_insertIJS3_EEEvN9__gnu_cxx17__normal_iteratorIPS3_S5_EEDpOT_
FNDA:0,_ZNSt6vectorINSt7__cxx1112basic_stringIcSt11char_traitsIcESaIcEEESaIS5_EEaSERKS7_
FNDA:640,_ZNSt6vectorISt4pairISt10unique_ptrI11QPushButtonSt14default_deleteIS2_EESt8functionIFvvEEESaIS9_EE12emplace_backIJS0_IS5_ZN6widget12BtnContainerC4EPN4core4ByteEmEUlvE_EEEERS9_DpOT_
FNDA:0,_ZNSt6vectorIN4Json12PathArgumentESaIS1_EE17_M_realloc_insertIJS1_EEEvN9__gnu_cxx17__normal_iteratorIPS1_S3_EEDpOT_
FNDA:160,_ZNSt6vectorISt10unique_ptrIN6widget8HalfMaskESt14default_deleteIS2_EESaIS5_EE12emplace_backIJS5_EEERS5_DpOT_
FNDA:7,_ZNSt6vectorISt10unique_ptrI11ScrollBlockSt14default_deleteIS1_EESaIS4_EE12emplace_backIJS4_EEERS4_DpOT_
FNDA:160,_ZNSt6vectorINSt7__cxx1112basic_stringIcSt11char_traitsIcESaIcEEESaIS5_EE17_M_realloc_insertIJS5_EEEvN9__gnu_cxx17__normal_iteratorIPS5_S7_EEDpOT_
FNDA:2,_ZNSt6vectorIN4core5BlockESaIS1_EE8_M_eraseEN9__gnu_cxx17__normal_iteratorIPS1_S3_EES7_
FNDA:44,_ZNSt6vectorISt10unique_ptrIN6widget11GroupWidgetESt14default_deleteIS2_EESaIS5_EE17_M_realloc_insertIJS5_EEEvN9__gnu_cxx17__normal_iteratorIPS5_S7_EEDpOT_
FNDA:93,_ZNSt6vectorIN4core4ByteESaIS1_EE17_M_realloc_insertIJRKS1_EEEvN9__gnu_cxx17__normal_iteratorIPS1_S3_EEDpOT_
FNDA:0,_ZNSt6vectorIN4Json12PathArgumentESaIS1_EE12emplace_backIJS1_EEERS1_DpOT_
FNDA:98,_ZNSt6vectorIP6QLabelSaIS1_EE12emplace_backIJS1_EEERS1_DpOT_
FNDA:0,_ZNSt6vectorIN4Json12PathArgumentESaIS1_EE17_M_realloc_insertIJRKS1_EEEvN9__gnu_cxx17__normal_iteratorIPS1_S3_EEDpOT_
FNDA:0,_ZNSt6vectorIN4core4ByteESaIS1_EEaSERKS3_
FNDA:0,_ZNSt6vectorIN4Json6Reader15StructuredErrorESaIS2_EE17_M_realloc_insertIJRKS2_EEEvN9__gnu_cxx17__normal_iteratorIPS2_S4_EEDpOT_
FNDA:0,_ZNSt6vectorINSt7__cxx1112basic_stringIcSt11char_traitsIcESaIcEEESaIS5_EE17_M_realloc_insertIJRKS5_EEEvN9__gnu_cxx17__normal_iteratorIPS5_S7_EEDpOT_
FNDA:80,_ZNSt6vectorISt10unique_ptrIN6widget4MaskESt14default_deleteIS2_EESaIS5_EE12emplace_backIJS5_EEERS5_DpOT_
FNDA:320,_ZNSt6vectorINSt7__cxx1112basic_stringIcSt11char_traitsIcESaIcEEESaIS5_EE12emplace_backIJS5_EEERS5_DpOT_
FNF:36
FNH:23
DA:66,0
DA:69,0
DA:70,0
DA:71,0
DA:73,0
DA:74,0
DA:78,0
DA:79,0
DA:80,0
DA:81,0
DA:82,0
DA:83,0
DA:84,0
DA:85,0
DA:87,0
DA:88,0
DA:91,0
DA:92,0
DA:93,0
DA:95,0
DA:96,0
DA:97,1418
DA:100,1418
DA:101,0
DA:102,0
DA:103,379
DA:104,0
DA:105,379
DA:106,0
DA:107,0
DA:109,1039
DA:110,0
DA:111,1418
DA:113,0
DA:114,45
DA:115,0
DA:117,45
DA:118,0
DA:120,1
DA:122,1
DA:123,0
DA:124,0
DA:125,0
DA:126,44
DA:127,0
DA:128,45
DA:129,0
DA:131,83
DA:134,83
DA:137,30
DA:139,30
DA:141,0
DA:143,53
DA:144,0
DA:145,83
DA:147,0
DA:149,0
DA:153,0
DA:155,0
DA:158,0
DA:161,0
DA:164,0
DA:166,0
DA:170,0
DA:172,2
DA:175,2
DA:177,1
DA:178,0
DA:179,1
DA:181,2
DA:183,0
DA:186,0
DA:187,0
DA:189,0
DA:192,0
DA:193,0
DA:195,0
DA:196,0
DA:198,0
DA:199,0
DA:200,0
DA:201,0
DA:202,0
DA:203,0
DA:204,0
DA:205,0
DA:206,0
DA:207,0
DA:211,0
DA:212,0
DA:214,0
DA:216,0
DA:217,0
DA:218,0
DA:219,0
DA:220,0
DA:221,0
DA:222,0
DA:224,0
DA:226,0
DA:227,0
DA:231,0
DA:233,0
DA:234,0
DA:236,0
DA:238,0
DA:240,0
DA:413,1061
DA:422,1061
DA:424,1061
DA:425,1061
DA:426,1061
DA:427,1061
DA:428,1061
DA:436,1061
DA:437,1061
DA:443,1061
DA:447,1158
DA:448,1061
DA:450,1061
DA:454,1061
DA:455,1061
DA:456,97
DA:457,0
DA:458,97
DA:459,97
DA:460,97
DA:461,97
DA:462,97
DA:463,0
DA:464,0
DA:465,0
DA:468,1061
DA:469,2122
DA:470,1158
DA:471,1158
DA:472,1061
DA:473,1061
DA:474,1061
DA:475,160
DA:477,97
DA:481,97
DA:482,97
DA:484,257
DA:486,160
DA:487,160
DA:488,257
DA:489,257
DA:490,160
DA:491,0
DA:493,0
DA:494,0
DA:495,0
DA:497,0
DA:498,160
DA:499,160
DA:502,97
DA:503,194
DA:504,97
DA:505,257
DA:506,97
DA:507,97
DA:508,97
DA:509,204
DA:510,160
DA:512,160
DA:516,160
DA:517,160
DA:518,44
DA:519,0
DA:520,44
DA:521,44
DA:522,44
DA:523,44
DA:524,44
DA:525,0
DA:526,0
DA:527,0
DA:530,160
DA:531,320
DA:532,204
DA:533,204
DA:534,160
DA:535,160
DA:536,160
DA:537,4
DA:538,0
DA:539,44
DA:542,0
DA:543,44
DA:544,44
DA:545,0
DA:546,48
DA:548,4
DA:549,4
DA:550,48
DA:551,48
DA:552,4
DA:553,0
DA:554,0
DA:555,0
DA:556,0
DA:557,0
DA:558,0
DA:559,0
DA:560,4
DA:561,4
DA:563,0
DA:564,44
DA:565,88
DA:566,44
DA:567,48
DA:568,44
DA:569,44
DA:570,44
DA:571,57
DA:572,4
DA:574,4
DA:578,4
DA:579,4
DA:580,53
DA:581,0
DA:582,53
DA:583,53
DA:584,53
DA:585,53
DA:586,53
DA:587,0
DA:588,0
DA:589,0
DA:592,4
DA:593,8
DA:594,57
DA:595,57
DA:596,4
DA:597,4
DA:598,4
DA:599,22
DA:600,0
DA:601,53
DA:604,0
DA:605,53
DA:606,53
DA:607,0
DA:608,75
DA:610,22
DA:611,22
DA:612,75
DA:613,75
DA:614,22
DA:615,0
DA:616,0
DA:617,0
DA:618,0
DA:619,0
DA:620,0
DA:621,0
DA:622,22
DA:623,22
DA:625,0
DA:626,53
DA:627,106
DA:628,53
DA:629,75
DA:630,53
DA:631,53
DA:632,53
DA:633,22
DA:634,22
DA:636,22
DA:640,22
DA:641,22
DA:643,0
DA:644,0
DA:645,0
DA:646,0
DA:647,0
DA:649,0
DA:650,0
DA:651,0
DA:654,22
DA:655,44
DA:656,22
DA:657,22
DA:658,22
DA:659,22
DA:660,22
DA:661,93
DA:662,0
DA:666,0
DA:667,0
DA:669,0
DA:670,93
DA:672,93
DA:673,93
DA:674,93
DA:675,93
DA:676,93
DA:678,0
DA:679,0
DA:680,0
DA:682,0
DA:683,0
DA:684,93
DA:685,93
DA:687,0
DA:688,0
DA:689,0
DA:690,0
DA:691,93
DA:692,0
DA:693,0
DA:694,0
DA:695,93
DA:696,93
DA:698,93
DA:702,93
DA:703,93
DA:705,0
DA:706,0
DA:707,0
DA:708,0
DA:709,0
DA:711,0
DA:712,0
DA:713,0
DA:716,93
DA:717,186
DA:718,93
DA:719,93
DA:720,93
DA:721,93
DA:722,93
DA:724,0
DA:728,0
DA:729,0
DA:731,0
DA:735,0
DA:736,0
DA:738,0
DA:740,0
DA:741,0
DA:742,0
DA:744,0
DA:745,0
DA:746,0
DA:749,0
DA:750,0
DA:751,0
DA:752,0
DA:753,0
DA:754,0
DA:755,0
DA:756,0
DA:765,0
DA:767,0
DA:768,0
DA:769,0
DA:770,0
DA:771,0
DA:779,0
DA:780,0
DA:786,0
DA:790,0
DA:791,0
DA:793,0
DA:797,0
DA:798,0
DA:800,0
DA:802,0
DA:803,0
DA:804,0
DA:806,0
DA:807,0
DA:808,0
DA:811,0
DA:812,0
DA:813,0
DA:814,0
DA:815,0
DA:816,0
DA:817,0
DA:818,0
DA:827,0
DA:829,0
DA:830,0
DA:831,0
DA:832,0
DA:833,0
DA:841,0
DA:842,0
DA:848,0
DA:852,0
DA:853,0
DA:855,0
DA:859,0
DA:860,0
DA:862,0
DA:864,0
DA:865,0
DA:866,0
DA:868,0
DA:869,0
DA:870,0
DA:873,0
DA:874,0
DA:875,0
DA:876,0
DA:877,0
DA:878,0
DA:879,0
DA:880,0
DA:889,0
DA:891,0
DA:892,0
DA:893,0
DA:894,0
DA:895,0
DA:903,0
DA:904,0
DA:910,0
DA:914,0
DA:915,0
DA:917,0
DA:921,0
DA:922,0
DA:924,0
DA:926,0
DA:927,0
DA:928,0
DA:930,0
DA:931,0
DA:932,0
DA:935,0
DA:936,0
DA:937,0
DA:938,0
DA:939,0
DA:940,0
DA:941,0
DA:942,0
DA:951,0
DA:953,0
DA:954,0
DA:955,0
DA:956,0
DA:957,0
DA:965,0
DA:966,0
DA:972,0
DA:976,0
DA:977,0
DA:979,0
DA:983,0
DA:984,0
DA:986,0
DA:988,0
DA:989,0
DA:990,0
DA:992,0
DA:993,0
DA:994,0
DA:997,0
DA:998,0
DA:999,0
DA:1000,0
DA:1001,0
DA:1002,0
DA:1003,0
DA:1089,108
DA:1092,108
DA:1094,0
DA:1096,0
DA:1097,0
DA:1101,108
DA:1103,108
DA:1104,108
DA:1105,108
DA:1106,108
DA:1107,108
DA:1108,108
DA:1109,108
DA:1110,108
DA:1111,108
DA:1113,108
LF:485
LH:191
end_of_record
TN:
SF:/usr/include/c++/8/cmath
FN:542,_ZSt10fpclassifyd
FN:566,_ZSt8isfinited
FN:619,_ZSt5isnand
FNDA:0,_ZSt8isfinited
FNDA:0,_ZSt10fpclassifyd
FNDA:0,_ZSt5isnand
FNF:3
FNH:0
DA:542,0
DA:543,0
DA:544,0
DA:566,0
DA:567,0
DA:619,0
DA:620,0
LF:7
LH:0
end_of_record
TN:
SF:/usr/include/c++/8/initializer_list
FN:71,_ZNKSt16initializer_listIN4core5GroupEE4sizeEv
FN:71,_ZNKSt16initializer_listIbE4sizeEv
FN:71,_ZNKSt16initializer_listINSt7__cxx1112basic_stringIcSt11char_traitsIcESaIcEEEE4sizeEv
FN:71,_ZNKSt16initializer_listIN4core4ByteEE4sizeEv
FN:75,_ZNKSt16initializer_listINSt7__cxx1112basic_stringIcSt11char_traitsIcESaIcEEEE5beginEv
FN:75,_ZNKSt16initializer_listIN4core5GroupEE5beginEv
FN:75,_ZNKSt16initializer_listIbE5beginEv
FN:75,_ZNKSt16initializer_listIN4core4ByteEE5beginEv
FN:79,_ZNKSt16initializer_listINSt7__cxx1112basic_stringIcSt11char_traitsIcESaIcEEEE3endEv
FN:79,_ZNKSt16initializer_listIN4core4ByteEE3endEv
FN:79,_ZNKSt16initializer_listIbE3endEv
FN:79,_ZNKSt16initializer_listIN4core5GroupEE3endEv
FNDA:0,_ZNKSt16initializer_listIN4core4ByteEE3endEv
FNDA:0,_ZNKSt16initializer_listIbE4sizeEv
FNDA:0,_ZNKSt16initializer_listIbE3endEv
FNDA:0,_ZNKSt16initializer_listINSt7__cxx1112basic_stringIcSt11char_traitsIcESaIcEEEE3endEv
FNDA:0,_ZNKSt16initializer_listIN4core5GroupEE4sizeEv
FNDA:0,_ZNKSt16initializer_listIN4core4ByteEE4sizeEv
FNDA:0,_ZNKSt16initializer_listINSt7__cxx1112basic_stringIcSt11char_traitsIcESaIcEEEE4sizeEv
FNDA:0,_ZNKSt16initializer_listIN4core5GroupEE3endEv
FNDA:0,_ZNKSt16initializer_listIbE5beginEv
FNDA:0,_ZNKSt16initializer_listIN4core4ByteEE5beginEv
FNDA:0,_ZNKSt16initializer_listIN4core5GroupEE5beginEv
FNDA:0,_ZNKSt16initializer_listINSt7__cxx1112basic_stringIcSt11char_traitsIcESaIcEEEE5beginEv
FNF:12
FNH:0
DA:71,0
DA:75,0
DA:79,0
LF:3
LH:0
end_of_record
TN:
SF:/usr/include/c++/8/istream
FN:980,_ZStrsISt14basic_ifstreamIcSt11char_traitsIcEERN4Json5ValueEENSt9enable_ifIXsrSt6__and_IJSt6__not_ISt19is_lvalue_referenceIT_EESt33__is_convertible_to_basic_istreamISB_ESt16__is_extractableINSF_14__istream_typeEOT0_vEEE5valueESH_E4typeEOSB_SJ_
FNDA:2,_ZStrsISt14basic_ifstreamIcSt11char_traitsIcEERN4Json5ValueEENSt9enable_ifIXsrSt6__and_IJSt6__not_ISt19is_lvalue_referenceIT_EESt33__is_convertible_to_basic_istreamISB_ESt16__is_extractableINSF_14__istream_typeEOT0_vEEE5valueESH_E4typeEOSB_SJ_
FNF:1
FNH:1
DA:980,2
DA:982,2
DA:983,2
DA:984,2
LF:4
LH:4
end_of_record
TN:
SF:/usr/include/c++/8/limits
FN:1715,_ZNSt14numeric_limitsIdE8infinityEv
FN:1718,_ZNSt14numeric_limitsIdE9quiet_NaNEv
FNDA:0,_ZNSt14numeric_limitsIdE8infinityEv
FNDA:0,_ZNSt14numeric_limitsIdE9quiet_NaNEv
FNF:2
FNH:0
DA:1715,0
DA:1718,0
LF:2
LH:0
end_of_record
TN:
SF:/usr/include/c++/8/new
FN:168,_ZnwmPv
FN:174,_ZdlPvS_
FNDA:0,_ZdlPvS_
FNDA:17965,_ZnwmPv
FNF:2
FNH:1
DA:168,17965
DA:169,17965
DA:174,0
LF:3
LH:2
end_of_record
TN:
SF:/usr/include/c++/8/thread
FN:82,_ZNSt6thread2idC2Ev
FN:118,_ZNSt6threadC2IZN9Connector8openPortEvEUlvE_JEvEEOT_DpOT0_
FN:137,_ZNSt6threadD2Ev
FN:163,_ZNKSt6thread8joinableEv
FN:192,_ZNSt6thread11_State_implINS_8_InvokerISt5tupleIJZN9Connector8openPortEvEUlvE_EEEEEC2EOS6_
FN:196,_ZNSt6thread11_State_implINS_8_InvokerISt5tupleIJZN9Connector8openPortEvEUlvE_EEEEE6_M_runEv
FN:204,_ZNSt6thread13_S_make_stateINS_8_InvokerISt5tupleIJZN9Connector8openPortEvEUlvE_EEEEEESt10unique_ptrINS_6_StateESt14default_deleteIS8_EEOT_
FN:241,_ZNSt6thread8_InvokerISt5tupleIJZN9Connector8openPortEvEUlvE_EEE9_M_invokeIJLm0EEEEDTcl8__invokespcl10_S_declvalIXT_EEEEESt12_Index_tupleIJXspT_EEE
FN:250,_ZNSt6thread8_InvokerISt5tupleIJZN9Connector8openPortEvEUlvE_EEEclEv
FN:264,_ZNSt6thread14__make_invokerIZN9Connector8openPortEvEUlvE_JEEENS_8_InvokerISt5tupleIJNSt5decayIT_E4typeEDpNS5_IT0_E4typeEEEEEOS6_DpOS9_
FN:277,_ZSteqNSt6thread2idES0_
FNDA:0,_ZSteqNSt6thread2idES0_
FNDA:0,_ZNSt6thread11_State_implINS_8_InvokerISt5tupleIJZN9Connector8openPortEvEUlvE_EEEEE6_M_runEv
FNDA:0,_ZNSt6thread11_State_implINS_8_InvokerISt5tupleIJZN9Connector8openPortEvEUlvE_EEEEEC2EOS6_
FNDA:0,_ZNSt6thread14__make_invokerIZN9Connector8openPortEvEUlvE_JEEENS_8_InvokerISt5tupleIJNSt5decayIT_E4typeEDpNS5_IT0_E4typeEEEEEOS6_DpOS9_
FNDA:0,_ZNSt6threadD2Ev
FNDA:0,_ZNSt6thread8_InvokerISt5tupleIJZN9Connector8openPortEvEUlvE_EEE9_M_invokeIJLm0EEEEDTcl8__invokespcl10_S_declvalIXT_EEEEESt12_Index_tupleIJXspT_EEE
FNDA:0,_ZNSt6threadC2IZN9Connector8openPortEvEUlvE_JEvEEOT_DpOT0_
FNDA:0,_ZNSt6thread13_S_make_stateINS_8_InvokerISt5tupleIJZN9Connector8openPortEvEUlvE_EEEEEESt10unique_ptrINS_6_StateESt14default_deleteIS8_EEOT_
FNDA:0,_ZNSt6thread2idC2Ev
FNDA:0,_ZNSt6thread8_InvokerISt5tupleIJZN9Connector8openPortEvEUlvE_EEEclEv
FNDA:0,_ZNKSt6thread8joinableEv
FNF:11
FNH:0
DA:82,0
DA:118,0
DA:119,0
DA:127,0
DA:131,0
DA:135,0
DA:137,0
DA:138,0
DA:139,0
DA:140,0
DA:141,0
DA:163,0
DA:164,0
DA:192,0
DA:193,0
DA:196,0
DA:204,0
DA:207,0
DA:241,0
DA:244,0
DA:250,0
DA:253,0
DA:264,0
DA:268,0
DA:277,0
DA:283,0
LF:26
LH:0
end_of_record
TN:
SF:/usr/include/c++/8/tuple
FN:76,_ZNSt10_Head_baseILm1ESt14default_deleteIN6widget5ValueEELb1EEC2Ev
FN:76,_ZNSt10_Head_baseILm1ESt14default_deleteI11ScrollBlockELb1EEC2Ev
FN:76,_ZNSt10_Head_baseILm1ESt14default_deleteIN6widget8HalfMaskEELb1EEC2Ev
FN:76,_ZNSt10_Head_baseILm1ESt14default_deleteIN4Json10CharReaderEELb1EEC2Ev
FN:76,_ZNSt10_Head_baseILm1ESt14default_deleteI11QPushButtonELb1EEC2Ev
FN:76,_ZNSt10_Head_baseILm1ESt14default_deleteIN6widget12BtnContainerEELb1EEC2Ev
FN:76,_ZNSt10_Head_baseILm1ESt14default_deleteIN4Json12StreamWriterEELb1EEC2Ev
FN:76,_ZNSt10_Head_baseILm1ESt14default_deleteIN6widget4MaskEELb1EEC2Ev
FN:76,_ZNSt10_Head_baseILm1ESt14default_deleteIN6widget11GroupWidgetEELb1EEC2Ev
FN:76,_ZNSt10_Head_baseILm1ESt14default_deleteISt5arrayINSt7__cxx1112basic_stringIcSt11char_traitsIcESaIcEEELm3EEELb1EEC2Ev
FN:76,_ZNSt10_Head_baseILm1ESt14default_deleteIN6widget6JoinedEELb1EEC2Ev
FN:76,_ZNSt10_Head_baseILm1ESt14default_deleteINSt6thread6_StateEELb1EEC2Ev
FN:86,_ZNSt10_Head_baseILm1ESt14default_deleteIN6widget11GroupWidgetEELb1EEC2IS3_EEOT_
FN:86,_ZNSt10_Head_baseILm1ESt14default_deleteISt5arrayINSt7__cxx1112basic_stringIcSt11char_traitsIcESaIcEEELm3EEELb1EEC2IS9_EEOT_
FN:86,_ZNSt10_Head_baseILm1ESt14default_deleteIN6widget4MaskEELb1EEC2IS3_EEOT_
FN:86,_ZNSt10_Head_baseILm1ESt14default_deleteIN6widget5ValueEELb1EEC2IS3_EEOT_
FN:86,_ZNSt10_Head_baseILm1ESt14default_deleteI11QPushButtonELb1EEC2IS2_EEOT_
FN:86,_ZNSt10_Head_baseILm1ESt14default_deleteI11ScrollBlockELb1EEC2IS2_EEOT_
FN:86,_ZNSt10_Head_baseILm1ESt14default_deleteIN6widget8HalfMaskEELb1EEC2IS3_EEOT_
FN:113,_ZNSt10_Head_baseILm1ESt14default_deleteIN6widget5ValueEELb1EE7_M_headERS4_
FN:113,_ZNSt10_Head_baseILm1ESt14default_deleteINSt6thread6_StateEELb1EE7_M_headERS4_
FN:113,_ZNSt10_Head_baseILm1ESt14default_deleteI11QPushButtonELb1EE7_M_headERS3_
FN:113,_ZNSt10_Head_baseILm1ESt14default_deleteISt5arrayINSt7__cxx1112basic_stringIcSt11char_traitsIcESaIcEEELm3EEELb1EE7_M_headERSA_
FN:113,_ZNSt10_Head_baseILm1ESt14default_deleteI11ScrollBlockELb1EE7_M_headERS3_
FN:113,_ZNSt10_Head_baseILm1ESt14default_deleteIN6widget8HalfMaskEELb1EE7_M_headERS4_
FN:113,_ZNSt10_Head_baseILm1ESt14default_deleteIN4Json12StreamWriterEELb1EE7_M_headERS4_
FN:113,_ZNSt10_Head_baseILm1ESt14default_deleteIN6widget12BtnContainerEELb1EE7_M_headERS4_
FN:113,_ZNSt10_Head_baseILm1ESt14default_deleteIN4Json10CharReaderEELb1EE7_M_headERS4_
FN:113,_ZNSt10_Head_baseILm1ESt14default_deleteIN6widget6JoinedEELb1EE7_M_headERS4_
FN:113,_ZNSt10_Head_baseILm1ESt14default_deleteIN6widget4MaskEELb1EE7_M_headERS4_
FN:113,_ZNSt10_Head_baseILm1ESt14default_deleteIN6widget11GroupWidgetEELb1EE7_M_headERS4_
FN:122,_ZNSt10_Head_baseILm0EPN6widget4MaskELb0EEC2Ev
FN:122,_ZNSt10_Head_baseILm0EP11ScrollBlockLb0EEC2Ev
FN:122,_ZNSt10_Head_baseILm0EPN6widget12BtnContainerELb0EEC2Ev
FN:122,_ZNSt10_Head_baseILm0EPN4Json12StreamWriterELb0EEC2Ev
FN:122,_ZNSt10_Head_baseILm0EPN6widget11GroupWidgetELb0EEC2Ev
FN:122,_ZNSt10_Head_baseILm0EPN6widget6JoinedELb0EEC2Ev
FN:122,_ZNSt10_Head_baseILm0EPN4Json10CharReaderELb0EEC2Ev
FN:122,_ZNSt10_Head_baseILm0EPNSt6thread6_StateELb0EEC2Ev
FN:122,_ZNSt10_Head_baseILm0EPN6widget5ValueELb0EEC2Ev
FN:122,_ZNSt10_Head_baseILm0EPSt5arrayINSt7__cxx1112basic_stringIcSt11char_traitsIcESaIcEEELm3EELb0EEC2Ev
FN:122,_ZNSt10_Head_baseILm0EP11QPushButtonLb0EEC2Ev
FN:122,_ZNSt10_Head_baseILm0EPN6widget8HalfMaskELb0EEC2Ev
FN:125,_ZNSt10_Head_baseILm0ERKN4Json5Value8CZStringELb0EEC2ES4_
FN:132,_ZNSt10_Head_baseILm0EP11ScrollBlockLb0EEC2IRS1_EEOT_
FN:132,_ZNSt10_Head_baseILm0EP11QPushButtonLb0EEC2IRS1_EEOT_
FN:132,_ZNSt10_Head_baseILm0EPN6widget4MaskELb0EEC2IRS2_EEOT_
FN:132,_ZNSt10_Head_baseILm0EPN6widget11GroupWidgetELb0EEC2IRS2_EEOT_
FN:132,_ZNSt10_Head_baseILm0EPSt5arrayINSt7__cxx1112basic_stringIcSt11char_traitsIcESaIcEEELm3EELb0EEC2IRS8_EEOT_
FN:132,_ZNSt10_Head_baseILm0EPN6widget5ValueELb0EEC2IRS2_EEOT_
FN:132,_ZNSt10_Head_baseILm0EZN9Connector8openPortEvEUlvE_Lb0EEC2IS1_EEOT_
FN:132,_ZNSt10_Head_baseILm0EPN6widget8HalfMaskELb0EEC2IRS2_EEOT_
FN:160,_ZNSt10_Head_baseILm0EPN4Json12StreamWriterELb0EE7_M_headERS3_
FN:160,_ZNSt10_Head_baseILm0EPN6widget8HalfMaskELb0EE7_M_headERS3_
FN:160,_ZNSt10_Head_baseILm0EPNSt6thread6_StateELb0EE7_M_headERS3_
FN:160,_ZNSt10_Head_baseILm0EP11QPushButtonLb0EE7_M_headERS2_
FN:160,_ZNSt10_Head_baseILm0EPN6widget6JoinedELb0EE7_M_headERS3_
FN:160,_ZNSt10_Head_baseILm0EPN6widget11GroupWidgetELb0EE7_M_headERS3_
FN:160,_ZNSt10_Head_baseILm0EPSt5arrayINSt7__cxx1112basic_stringIcSt11char_traitsIcESaIcEEELm3EELb0EE7_M_headERS9_
FN:160,_ZNSt10_Head_baseILm0ERKN4Json5Value8CZStringELb0EE7_M_headERS5_
FN:160,_ZNSt10_Head_baseILm0EPN6widget4MaskELb0EE7_M_headERS3_
FN:160,_ZNSt10_Head_baseILm0EP11ScrollBlockLb0EE7_M_headERS2_
FN:160,_ZNSt10_Head_baseILm0EPN4Json10CharReaderELb0EE7_M_headERS3_
FN:160,_ZNSt10_Head_baseILm0EPN6widget5ValueELb0EE7_M_headERS3_
FN:160,_ZNSt10_Head_baseILm0EZN9Connector8openPortEvEUlvE_Lb0EE7_M_headERS2_
FN:160,_ZNSt10_Head_baseILm0EPN6widget12BtnContainerELb0EE7_M_headERS3_
FN:163,_ZNSt10_Head_baseILm0EPN6widget8HalfMaskELb0EE7_M_headERKS3_
FN:163,_ZNSt10_Head_baseILm0EPN4Json12StreamWriterELb0EE7_M_headERKS3_
FN:163,_ZNSt10_Head_baseILm0EPN6widget4MaskELb0EE7_M_headERKS3_
FN:163,_ZNSt10_Head_baseILm0EP11ScrollBlockLb0EE7_M_headERKS2_
FN:163,_ZNSt10_Head_baseILm0EPN6widget12BtnContainerELb0EE7_M_headERKS3_
FN:163,_ZNSt10_Head_baseILm0EPN6widget6JoinedELb0EE7_M_headERKS3_
FN:163,_ZNSt10_Head_baseILm0EPN6widget5ValueELb0EE7_M_headERKS3_
FN:163,_ZNSt10_Head_baseILm0EP11QPushButtonLb0EE7_M_headERKS2_
FN:163,_ZNSt10_Head_baseILm0EPSt5arrayINSt7__cxx1112basic_stringIcSt11char_traitsIcESaIcEEELm3EELb0EE7_M_headERKS9_
FN:163,_ZNSt10_Head_baseILm0EPN4Json10CharReaderELb0EE7_M_headERKS3_
FN:163,_ZNSt10_Head_baseILm0EPN6widget11GroupWidgetELb0EE7_M_headERKS3_
FN:195,_ZNSt11_Tuple_implILm0EJP11ScrollBlockSt14default_deleteIS0_EEE7_M_headERS4_
FN:195,_ZNSt11_Tuple_implILm0EJPN6widget4MaskESt14default_deleteIS1_EEE7_M_headERS5_
FN:195,_ZNSt11_Tuple_implILm0EJPNSt6thread6_StateESt14default_deleteIS1_EEE7_M_headERS5_
FN:195,_ZNSt11_Tuple_implILm0EJPN4Json12StreamWriterESt14default_deleteIS1_EEE7_M_headERS5_
FN:195,_ZNSt11_Tuple_implILm0EJPN6widget11GroupWidgetESt14default_deleteIS1_EEE7_M_headERS5_
FN:195,_ZNSt11_Tuple_implILm0EJPN6widget5ValueESt14default_deleteIS1_EEE7_M_headERS5_
FN:195,_ZNSt11_Tuple_implILm0EJP11QPushButtonSt14default_deleteIS0_EEE7_M_headERS4_
FN:195,_ZNSt11_Tuple_implILm0EJPN4Json10CharReaderESt14default_deleteIS1_EEE7_M_headERS5_
FN:195,_ZNSt11_Tuple_implILm0EJPSt5arrayINSt7__cxx1112basic_stringIcSt11char_traitsIcESaIcEEELm3EESt14default_deleteIS7_EEE7_M_headERSB_
FN:195,_ZNSt11_Tuple_implILm0EJPN6widget6JoinedESt14default_deleteIS1_EEE7_M_headERS5_
FN:195,_ZNSt11_Tuple_implILm0EJPN6widget12BtnContainerESt14default_deleteIS1_EEE7_M_headERS5_
FN:195,_ZNSt11_Tuple_implILm0EJPN6widget8HalfMaskESt14default_deleteIS1_EEE7_M_headERS5_
FN:198,_ZNSt11_Tuple_implILm0EJPN6widget8HalfMaskESt14default_deleteIS1_EEE7_M_headERKS5_
FN:198,_ZNSt11_Tuple_implILm0EJPN4Json10CharReaderESt14default_deleteIS1_EEE7_M_headERKS5_
FN:198,_ZNSt11_Tuple_implILm0EJPN6widget12BtnContainerESt14default_deleteIS1_EEE7_M_headERKS5_
FN:198,_ZNSt11_Tuple_implILm0EJPSt5arrayINSt7__cxx1112basic_stringIcSt11char_traitsIcESaIcEEELm3EESt14default_deleteIS7_EEE7_M_headERKSB_
FN:198,_ZNSt11_Tuple_implILm0EJPN6widget4MaskESt14default_deleteIS1_EEE7_M_headERKS5_
FN:198,_ZNSt11_Tuple_implILm0EJPN6widget5ValueESt14default_deleteIS1_EEE7_M_headERKS5_
FN:198,_ZNSt11_Tuple_implILm0EJPN6widget6JoinedESt14default_deleteIS1_EEE7_M_headERKS5_
FN:198,_ZNSt11_Tuple_implILm0EJPN4Json12StreamWriterESt14default_deleteIS1_EEE7_M_headERKS5_
FN:198,_ZNSt11_Tuple_implILm0EJP11ScrollBlockSt14default_deleteIS0_EEE7_M_headERKS4_
FN:198,_ZNSt11_Tuple_implILm0EJPN6widget11GroupWidgetESt14default_deleteIS1_EEE7_M_headERKS5_
FN:198,_ZNSt11_Tuple_implILm0EJP11QPushButtonSt14default_deleteIS0_EEE7_M_headERKS4_
FN:206,_ZNSt11_Tuple_implILm0EJPN4Json12StreamWriterESt14default_deleteIS1_EEEC2Ev
FN:206,_ZNSt11_Tuple_implILm0EJPN6widget5ValueESt14default_deleteIS1_EEEC2Ev
FN:206,_ZNSt11_Tuple_implILm0EJPNSt6thread6_StateESt14default_deleteIS1_EEEC2Ev
FN:206,_ZNSt11_Tuple_implILm0EJPN6widget12BtnContainerESt14default_deleteIS1_EEEC2Ev
FN:206,_ZNSt11_Tuple_implILm0EJP11ScrollBlockSt14default_deleteIS0_EEEC2Ev
FN:206,_ZNSt11_Tuple_implILm0EJPN6widget4MaskESt14default_deleteIS1_EEEC2Ev
FN:206,_ZNSt11_Tuple_implILm0EJPN6widget6JoinedESt14default_deleteIS1_EEEC2Ev
FN:206,_ZNSt11_Tuple_implILm0EJPSt5arrayINSt7__cxx1112basic_stringIcSt11char_traitsIcESaIcEEELm3EESt14default_deleteIS7_EEEC2Ev
FN:206,_ZNSt11_Tuple_implILm0EJPN6widget8HalfMaskESt14default_deleteIS1_EEEC2Ev
FN:206,_ZNSt11_Tuple_implILm0EJPN4Json10CharReaderESt14default_deleteIS1_EEEC2Ev
FN:206,_ZNSt11_Tuple_implILm0EJP11QPushButtonSt14default_deleteIS0_EEEC2Ev
FN:206,_ZNSt11_Tuple_implILm0EJPN6widget11GroupWidgetESt14default_deleteIS1_EEEC2Ev
FN:216,_ZNSt11_Tuple_implILm0EJPN6widget8HalfMaskESt14default_deleteIS1_EEEC2IRS2_JS4_EvEEOT_DpOT0_
FN:216,_ZNSt11_Tuple_implILm0EJP11QPushButtonSt14default_deleteIS0_EEEC2IRS1_JS3_EvEEOT_DpOT0_
FN:216,_ZNSt11_Tuple_implILm0EJPSt5arrayINSt7__cxx1112basic_stringIcSt11char_traitsIcESaIcEEELm3EESt14default_deleteIS7_EEEC2IRS8_JSA_EvEEOT_DpOT0_
FN:216,_ZNSt11_Tuple_implILm0EJPN6widget4MaskESt14default_deleteIS1_EEEC2IRS2_JS4_EvEEOT_DpOT0_
FN:216,_ZNSt11_Tuple_implILm0EJPN6widget11GroupWidgetESt14default_deleteIS1_EEEC2IRS2_JS4_EvEEOT_DpOT0_
FN:216,_ZNSt11_Tuple_implILm0EJPN6widget5ValueESt14default_deleteIS1_EEEC2IRS2_JS4_EvEEOT_DpOT0_
FN:216,_ZNSt11_Tuple_implILm0EJP11ScrollBlockSt14default_deleteIS0_EEEC2IRS1_JS3_EvEEOT_DpOT0_
FN:351,_ZNSt11_Tuple_implILm1EJSt14default_deleteIN6widget8HalfMaskEEEE7_M_headERS4_
FN:351,_ZNSt11_Tuple_implILm1EJSt14default_deleteISt5arrayINSt7__cxx1112basic_stringIcSt11char_traitsIcESaIcEEELm3EEEEE7_M_headERSA_
FN:351,_ZNSt11_Tuple_implILm1EJSt14default_deleteI11ScrollBlockEEE7_M_headERS3_
FN:351,_ZNSt11_Tuple_implILm1EJSt14default_deleteIN4Json10CharReaderEEEE7_M_headERS4_
FN:351,_ZNSt11_Tuple_implILm1EJSt14default_deleteIN6widget6JoinedEEEE7_M_headERS4_
FN:351,_ZNSt11_Tuple_implILm1EJSt14default_deleteIN4Json12StreamWriterEEEE7_M_headERS4_
FN:351,_ZNSt11_Tuple_implILm1EJSt14default_deleteIN6widget4MaskEEEE7_M_headERS4_
FN:351,_ZNSt11_Tuple_implILm1EJSt14default_deleteIN6widget11GroupWidgetEEEE7_M_headERS4_
FN:351,_ZNSt11_Tuple_implILm0EJZN9Connector8openPortEvEUlvE_EE7_M_headERS2_
FN:351,_ZNSt11_Tuple_implILm1EJSt14default_deleteIN6widget5ValueEEEE7_M_headERS4_
FN:351,_ZNSt11_Tuple_implILm1EJSt14default_deleteINSt6thread6_StateEEEE7_M_headERS4_
FN:351,_ZNSt11_Tuple_implILm0EJRKN4Json5Value8CZStringEEE7_M_headERS5_
FN:351,_ZNSt11_Tuple_implILm1EJSt14default_deleteI11QPushButtonEEE7_M_headERS3_
FN:351,_ZNSt11_Tuple_implILm1EJSt14default_deleteIN6widget12BtnContainerEEEE7_M_headERS4_
FN:356,_ZNSt11_Tuple_implILm1EJSt14default_deleteIN6widget5ValueEEEEC2Ev
FN:356,_ZNSt11_Tuple_implILm1EJSt14default_deleteIN6widget8HalfMaskEEEEC2Ev
FN:356,_ZNSt11_Tuple_implILm1EJSt14default_deleteIN4Json10CharReaderEEEEC2Ev
FN:356,_ZNSt11_Tuple_implILm1EJSt14default_deleteIN6widget12BtnContainerEEEEC2Ev
FN:356,_ZNSt11_Tuple_implILm1EJSt14default_deleteISt5arrayINSt7__cxx1112basic_stringIcSt11char_traitsIcESaIcEEELm3EEEEEC2Ev
FN:356,_ZNSt11_Tuple_implILm1EJSt14default_deleteIN4Json12StreamWriterEEEEC2Ev
FN:356,_ZNSt11_Tuple_implILm1EJSt14default_deleteIN6widget6JoinedEEEEC2Ev
FN:356,_ZNSt11_Tuple_implILm1EJSt14default_deleteI11QPushButtonEEEC2Ev
FN:356,_ZNSt11_Tuple_implILm1EJSt14default_deleteIN6widget11GroupWidgetEEEEC2Ev
FN:356,_ZNSt11_Tuple_implILm1EJSt14default_deleteIN6widget4MaskEEEEC2Ev
FN:356,_ZNSt11_Tuple_implILm1EJSt14default_deleteI11ScrollBlockEEEC2Ev
FN:356,_ZNSt11_Tuple_implILm1EJSt14default_deleteINSt6thread6_StateEEEEC2Ev
FN:360,_ZNSt11_Tuple_implILm0EJRKN4Json5Value8CZStringEEEC2ES4_
FN:365,_ZNSt11_Tuple_implILm1EJSt14default_deleteISt5arrayINSt7__cxx1112basic_stringIcSt11char_traitsIcESaIcEEELm3EEEEEC2IS9_EEOT_
FN:365,_ZNSt11_Tuple_implILm1EJSt14default_deleteIN6widget8HalfMaskEEEEC2IS3_EEOT_
FN:365,_ZNSt11_Tuple_implILm0EJZN9Connector8openPortEvEUlvE_EEC2IS1_EEOT_
FN:365,_ZNSt11_Tuple_implILm1EJSt14default_deleteIN6widget5ValueEEEEC2IS3_EEOT_
FN:365,_ZNSt11_Tuple_implILm1EJSt14default_deleteI11ScrollBlockEEEC2IS2_EEOT_
FN:365,_ZNSt11_Tuple_implILm1EJSt14default_deleteIN6widget4MaskEEEEC2IS3_EEOT_
FN:365,_ZNSt11_Tuple_implILm1EJSt14default_deleteIN6widget11GroupWidgetEEEEC2IS3_EEOT_
FN:365,_ZNSt11_Tuple_implILm1EJSt14default_deleteI11QPushButtonEEEC2IS2_EEOT_
FN:371,_ZNSt11_Tuple_implILm0EJRKN4Json5Value8CZStringEEEC2EOS5_
FN:371,_ZNSt11_Tuple_implILm0EJZN9Connector8openPortEvEUlvE_EEC2EOS2_
FN:608,_ZNSt5tupleIJRKN4Json5Value8CZStringEEEC2IvLb1EEES4_
FN:646,_ZNSt5tupleIJZN9Connector8openPortEvEUlvE_EEC2IJS1_ELb1EEEDpOT_
FN:662,_ZNSt5tupleIJZN9Connector8openPortEvEUlvE_EEC2EOS2_
FN:662,_ZNSt5tupleIJRKN4Json5Value8CZStringEEEC2EOS5_
FN:919,_ZNSt5tupleIJPN6widget8HalfMaskESt14default_deleteIS1_EEEC2IS2_S4_Lb1EEEv
FN:919,_ZNSt5tupleIJPN6widget11GroupWidgetESt14default_deleteIS1_EEEC2IS2_S4_Lb1EEEv
FN:919,_ZNSt5tupleIJP11QPushButtonSt14default_deleteIS0_EEEC2IS1_S3_Lb1EEEv
FN:919,_ZNSt5tupleIJPN6widget6JoinedESt14default_deleteIS1_EEEC2IS2_S4_Lb1EEEv
FN:919,_ZNSt5tupleIJPN4Json10CharReaderESt14default_deleteIS1_EEEC2IS2_S4_Lb1EEEv
FN:919,_ZNSt5tupleIJPSt5arrayINSt7__cxx1112basic_stringIcSt11char_traitsIcESaIcEEELm3EESt14default_deleteIS7_EEEC1IS8_SA_Lb1EEEv
FN:919,_ZNSt5tupleIJPN4Json12StreamWriterESt14default_deleteIS1_EEEC2IS2_S4_Lb1EEEv
FN:919,_ZNSt5tupleIJPN6widget12BtnContainerESt14default_deleteIS1_EEEC2IS2_S4_Lb1EEEv
FN:919,_ZNSt5tupleIJPN6widget4MaskESt14default_deleteIS1_EEEC2IS2_S4_Lb1EEEv
FN:919,_ZNSt5tupleIJP11ScrollBlockSt14default_deleteIS0_EEEC2IS1_S3_Lb1EEEv
FN:919,_ZNSt5tupleIJPN6widget5ValueESt14default_deleteIS1_EEEC2IS2_S4_Lb1EEEv
FN:919,_ZNSt5tupleIJPNSt6thread6_StateESt14default_deleteIS1_EEEC2IS2_S4_Lb1EEEv
FN:971,_ZNSt5tupleIJPN6widget4MaskESt14default_deleteIS1_EEEC2IRS2_S4_Lb1EEEOT_OT0_
FN:971,_ZNSt5tupleIJPN6widget11GroupWidgetESt14default_deleteIS1_EEEC2IRS2_S4_Lb1EEEOT_OT0_
FN:971,_ZNSt5tupleIJP11ScrollBlockSt14default_deleteIS0_EEEC2IRS1_S3_Lb1EEEOT_OT0_
FN:971,_ZNSt5tupleIJPN6widget8HalfMaskESt14default_deleteIS1_EEEC2IRS2_S4_Lb1EEEOT_OT0_
FN:971,_ZNSt5tupleIJPN6widget5ValueESt14default_deleteIS1_EEEC2IRS2_S4_Lb1EEEOT_OT0_
FN:971,_ZNSt5tupleIJP11QPushButtonSt14default_deleteIS0_EEEC2IRS1_S3_Lb1EEEOT_OT0_
FN:971,_ZNSt5tupleIJPSt5arrayINSt7__cxx1112basic_stringIcSt11char_traitsIcESaIcEEELm3EESt14default_deleteIS7_EEEC2IRS8_SA_Lb1EEEOT_OT0_
FN:1303,_ZSt12__get_helperILm0EPN6widget8HalfMaskEJSt14default_deleteIS1_EEERT0_RSt11_Tuple_implIXT_EJS5_DpT1_EE
FN:1303,_ZSt12__get_helperILm1ESt14default_deleteIN6widget5ValueEEJEERT0_RSt11_Tuple_implIXT_EJS4_DpT1_EE
FN:1303,_ZSt12__get_helperILm0EPN6widget5ValueEJSt14default_deleteIS1_EEERT0_RSt11_Tuple_implIXT_EJS5_DpT1_EE
FN:1303,_ZSt12__get_helperILm0EPN6widget6JoinedEJSt14default_deleteIS1_EEERT0_RSt11_Tuple_implIXT_EJS5_DpT1_EE
FN:1303,_ZSt12__get_helperILm0EPN6widget11GroupWidgetEJSt14default_deleteIS1_EEERT0_RSt11_Tuple_implIXT_EJS5_DpT1_EE
FN:1303,_ZSt12__get_helperILm0EPN6widget12BtnContainerEJSt14default_deleteIS1_EEERT0_RSt11_Tuple_implIXT_EJS5_DpT1_EE
FN:1303,_ZSt12__get_helperILm1ESt14default_deleteIN6widget8HalfMaskEEJEERT0_RSt11_Tuple_implIXT_EJS4_DpT1_EE
FN:1303,_ZSt12__get_helperILm0EPN6widget4MaskEJSt14default_deleteIS1_EEERT0_RSt11_Tuple_implIXT_EJS5_DpT1_EE
FN:1303,_ZSt12__get_helperILm0EPN4Json12StreamWriterEJSt14default_deleteIS1_EEERT0_RSt11_Tuple_implIXT_EJS5_DpT1_EE
FN:1303,_ZSt12__get_helperILm0EP11QPushButtonJSt14default_deleteIS0_EEERT0_RSt11_Tuple_implIXT_EJS4_DpT1_EE
FN:1303,_ZSt12__get_helperILm1ESt14default_deleteINSt6thread6_StateEEJEERT0_RSt11_Tuple_implIXT_EJS4_DpT1_EE
FN:1303,_ZSt12__get_helperILm0EPSt5arrayINSt7__cxx1112basic_stringIcSt11char_traitsIcESaIcEEELm3EEJSt14default_deleteIS7_EEERT0_RSt11_Tuple_implIXT_EJSB_DpT1_EE
FN:1303,_ZSt12__get_helperILm1ESt14default_deleteIN4Json12StreamWriterEEJEERT0_RSt11_Tuple_implIXT_EJS4_DpT1_EE
FN:1303,_ZSt12__get_helperILm1ESt14default_deleteIN4Json10CharReaderEEJEERT0_RSt11_Tuple_implIXT_EJS4_DpT1_EE
FN:1303,_ZSt12__get_helperILm1ESt14default_deleteIN6widget12BtnContainerEEJEERT0_RSt11_Tuple_implIXT_EJS4_DpT1_EE
FN:1303,_ZSt12__get_helperILm1ESt14default_deleteI11QPushButtonEJEERT0_RSt11_Tuple_implIXT_EJS3_DpT1_EE
FN:1303,_ZSt12__get_helperILm0EPNSt6thread6_StateEJSt14default_deleteIS1_EEERT0_RSt11_Tuple_implIXT_EJS5_DpT1_EE
FN:1303,_ZSt12__get_helperILm0EPN4Json10CharReaderEJSt14default_deleteIS1_EEERT0_RSt11_Tuple_implIXT_EJS5_DpT1_EE
FN:1303,_ZSt12__get_helperILm1ESt14default_deleteIN6widget6JoinedEEJEERT0_RSt11_Tuple_implIXT_EJS4_DpT1_EE
FN:1303,_ZSt12__get_helperILm0EZN9Connector8openPortEvEUlvE_JEERT0_RSt11_Tuple_implIXT_EJS2_DpT1_EE
FN:1303,_ZSt12__get_helperILm0ERKN4Json5Value8CZStringEJEERT0_RSt11_Tuple_implIXT_EJS5_DpT1_EE
FN:1303,_ZSt12__get_helperILm1ESt14default_deleteI11ScrollBlockEJEERT0_RSt11_Tuple_implIXT_EJS3_DpT1_EE
FN:1303,_ZSt12__get_helperILm1ESt14default_deleteISt5arrayINSt7__cxx1112basic_stringIcSt11char_traitsIcESaIcEEELm3EEEJEERT0_RSt11_Tuple_implIXT_EJSA_DpT1_EE
FN:1303,_ZSt12__get_helperILm1ESt14default_deleteIN6widget4MaskEEJEERT0_RSt11_Tuple_implIXT_EJS4_DpT1_EE
FN:1303,_ZSt12__get_helperILm0EP11ScrollBlockJSt14default_deleteIS0_EEERT0_RSt11_Tuple_implIXT_EJS4_DpT1_EE
FN:1303,_ZSt12__get_helperILm1ESt14default_deleteIN6widget11GroupWidgetEEJEERT0_RSt11_Tuple_implIXT_EJS4_DpT1_EE
FN:1308,_ZSt12__get_helperILm0EPN6widget12BtnContainerEJSt14default_deleteIS1_EEERKT0_RKSt11_Tuple_implIXT_EJS5_DpT1_EE
FN:1308,_ZSt12__get_helperILm0EPN6widget4MaskEJSt14default_deleteIS1_EEERKT0_RKSt11_Tuple_implIXT_EJS5_DpT1_EE
FN:1308,_ZSt12__get_helperILm0EP11QPushButtonJSt14default_deleteIS0_EEERKT0_RKSt11_Tuple_implIXT_EJS4_DpT1_EE
FN:1308,_ZSt12__get_helperILm0EPN6widget6JoinedEJSt14default_deleteIS1_EEERKT0_RKSt11_Tuple_implIXT_EJS5_DpT1_EE
FN:1308,_ZSt12__get_helperILm0EPN6widget11GroupWidgetEJSt14default_deleteIS1_EEERKT0_RKSt11_Tuple_implIXT_EJS5_DpT1_EE
FN:1308,_ZSt12__get_helperILm0EPN4Json12StreamWriterEJSt14default_deleteIS1_EEERKT0_RKSt11_Tuple_implIXT_EJS5_DpT1_EE
FN:1308,_ZSt12__get_helperILm0EPN4Json10CharReaderEJSt14default_deleteIS1_EEERKT0_RKSt11_Tuple_implIXT_EJS5_DpT1_EE
FN:1308,_ZSt12__get_helperILm0EPN6widget5ValueEJSt14default_deleteIS1_EEERKT0_RKSt11_Tuple_implIXT_EJS5_DpT1_EE
FN:1308,_ZSt12__get_helperILm0EPSt5arrayINSt7__cxx1112basic_stringIcSt11char_traitsIcESaIcEEELm3EEJSt14default_deleteIS7_EEERKT0_RKSt11_Tuple_implIXT_EJSB_DpT1_EE
FN:1308,_ZSt12__get_helperILm0EP11ScrollBlockJSt14default_deleteIS0_EEERKT0_RKSt11_Tuple_implIXT_EJS4_DpT1_EE
FN:1308,_ZSt12__get_helperILm0EPN6widget8HalfMaskEJSt14default_deleteIS1_EEERKT0_RKSt11_Tuple_implIXT_EJS5_DpT1_EE
FN:1314,_ZSt3getILm1EJPN6widget4MaskESt14default_deleteIS1_EEERNSt13tuple_elementIXT_ESt5tupleIJDpT0_EEE4typeERS9_
FN:1314,_ZSt3getILm1EJPN4Json10CharReaderESt14default_deleteIS1_EEERNSt13tuple_elementIXT_ESt5tupleIJDpT0_EEE4typeERS9_
FN:1314,_ZSt3getILm0EJPNSt6thread6_StateESt14default_deleteIS1_EEERNSt13tuple_elementIXT_ESt5tupleIJDpT0_EEE4typeERS9_
FN:1314,_ZSt3getILm1EJPN4Json12StreamWriterESt14default_deleteIS1_EEERNSt13tuple_elementIXT_ESt5tupleIJDpT0_EEE4typeERS9_
FN:1314,_ZSt3getILm1EJP11QPushButtonSt14default_deleteIS0_EEERNSt13tuple_elementIXT_ESt5tupleIJDpT0_EEE4typeERS8_
FN:1314,_ZSt3getILm0EJP11ScrollBlockSt14default_deleteIS0_EEERNSt13tuple_elementIXT_ESt5tupleIJDpT0_EEE4typeERS8_
FN:1314,_ZSt3getILm0EJZN9Connector8openPortEvEUlvE_EERNSt13tuple_elementIXT_ESt5tupleIJDpT0_EEE4typeERS6_
FN:1314,_ZSt3getILm0EJPN6widget11GroupWidgetESt14default_deleteIS1_EEERNSt13tuple_elementIXT_ESt5tupleIJDpT0_EEE4typeERS9_
FN:1314,_ZSt3getILm1EJPN6widget11GroupWidgetESt14default_deleteIS1_EEERNSt13tuple_elementIXT_ESt5tupleIJDpT0_EEE4typeERS9_
FN:1314,_ZSt3getILm0EJPN6widget4MaskESt14default_deleteIS1_EEERNSt13tuple_elementIXT_ESt5tupleIJDpT0_EEE4typeERS9_
FN:1314,_ZSt3getILm0EJRKN4Json5Value8CZStringEEERNSt13tuple_elementIXT_ESt5tupleIJDpT0_EEE4typeERS9_
FN:1314,_ZSt3getILm0EJPN4Json10CharReaderESt14default_deleteIS1_EEERNSt13tuple_elementIXT_ESt5tupleIJDpT0_EEE4typeERS9_
FN:1314,_ZSt3getILm0EJPN6widget12BtnContainerESt14default_deleteIS1_EEERNSt13tuple_elementIXT_ESt5tupleIJDpT0_EEE4typeERS9_
FN:1314,_ZSt3getILm0EJPN6widget6JoinedESt14default_deleteIS1_EEERNSt13tuple_elementIXT_ESt5tupleIJDpT0_EEE4typeERS9_
FN:1314,_ZSt3getILm1EJPN6widget6JoinedESt14default_deleteIS1_EEERNSt13tuple_elementIXT_ESt5tupleIJDpT0_EEE4typeERS9_
FN:1314,_ZSt3getILm1EJPN6widget12BtnContainerESt14default_deleteIS1_EEERNSt13tuple_elementIXT_ESt5tupleIJDpT0_EEE4typeERS9_
FN:1314,_ZSt3getILm0EJP11QPushButtonSt14default_deleteIS0_EEERNSt13tuple_elementIXT_ESt5tupleIJDpT0_EEE4typeERS8_
FN:1314,_ZSt3getILm1EJPSt5arrayINSt7__cxx1112basic_stringIcSt11char_traitsIcESaIcEEELm3EESt14default_deleteIS7_EEERNSt13tuple_elementIXT_ESt5tupleIJDpT0_EEE4typeERSF_
FN:1314,_ZSt3getILm0EJPN4Json12StreamWriterESt14default_deleteIS1_EEERNSt13tuple_elementIXT_ESt5tupleIJDpT0_EEE4typeERS9_
FN:1314,_ZSt3getILm0EJPN6widget5ValueESt14default_deleteIS1_EEERNSt13tuple_elementIXT_ESt5tupleIJDpT0_EEE4typeERS9_
FN:1314,_ZSt3getILm0EJPSt5arrayINSt7__cxx1112basic_stringIcSt11char_traitsIcESaIcEEELm3EESt14default_deleteIS7_EEERNSt13tuple_elementIXT_ESt5tupleIJDpT0_EEE4typeERSF_
FN:1314,_ZSt3getILm1EJPN6widget8HalfMaskESt14default_deleteIS1_EEERNSt13tuple_elementIXT_ESt5tupleIJDpT0_EEE4typeERS9_
FN:1314,_ZSt3getILm1EJP11ScrollBlockSt14default_deleteIS0_EEERNSt13tuple_elementIXT_ESt5tupleIJDpT0_EEE4typeERS8_
FN:1314,_ZSt3getILm0EJPN6widget8HalfMaskESt14default_deleteIS1_EEERNSt13tuple_elementIXT_ESt5tupleIJDpT0_EEE4typeERS9_
FN:1314,_ZSt3getILm1EJPN6widget5ValueESt14default_deleteIS1_EEERNSt13tuple_elementIXT_ESt5tupleIJDpT0_EEE4typeERS9_
FN:1314,_ZSt3getILm1EJPNSt6thread6_StateESt14default_deleteIS1_EEERNSt13tuple_elementIXT_ESt5tupleIJDpT0_EEE4typeERS9_
FN:1320,_ZSt3getILm0EJP11QPushButtonSt14default_deleteIS0_EEERKNSt13tuple_elementIXT_ESt5tupleIJDpT0_EEE4typeERKS8_
FN:1320,_ZSt3getILm0EJPSt5arrayINSt7__cxx1112basic_stringIcSt11char_traitsIcESaIcEEELm3EESt14default_deleteIS7_EEERKNSt13tuple_elementIXT_ESt5tupleIJDpT0_EEE4typeERKSF_
FN:1320,_ZSt3getILm0EJPN6widget8HalfMaskESt14default_deleteIS1_EEERKNSt13tuple_elementIXT_ESt5tupleIJDpT0_EEE4typeERKS9_
FN:1320,_ZSt3getILm0EJPN4Json12StreamWriterESt14default_deleteIS1_EEERKNSt13tuple_elementIXT_ESt5tupleIJDpT0_EEE4typeERKS9_
FN:1320,_ZSt3getILm0EJP11ScrollBlockSt14default_deleteIS0_EEERKNSt13tuple_elementIXT_ESt5tupleIJDpT0_EEE4typeERKS8_
FN:1320,_ZSt3getILm0EJPN6widget12BtnContainerESt14default_deleteIS1_EEERKNSt13tuple_elementIXT_ESt5tupleIJDpT0_EEE4typeERKS9_
FN:1320,_ZSt3getILm0EJPN6widget11GroupWidgetESt14default_deleteIS1_EEERKNSt13tuple_elementIXT_ESt5tupleIJDpT0_EEE4typeERKS9_
FN:1320,_ZSt3getILm0EJPN4Json10CharReaderESt14default_deleteIS1_EEERKNSt13tuple_elementIXT_ESt5tupleIJDpT0_EEE4typeERKS9_
FN:1320,_ZSt3getILm0EJPN6widget6JoinedESt14default_deleteIS1_EEERKNSt13tuple_elementIXT_ESt5tupleIJDpT0_EEE4typeERKS9_
FN:1320,_ZSt3getILm0EJPN6widget4MaskESt14default_deleteIS1_EEERKNSt13tuple_elementIXT_ESt5tupleIJDpT0_EEE4typeERKS9_
FN:1320,_ZSt3getILm0EJPN6widget5ValueESt14default_deleteIS1_EEERKNSt13tuple_elementIXT_ESt5tupleIJDpT0_EEE4typeERKS9_
FN:1326,_ZSt3getILm0EJZN9Connector8openPortEvEUlvE_EEONSt13tuple_elementIXT_ESt5tupleIJDpT0_EEE4typeEOS6_
FN:1652,_ZNSt4pairIKN4Json5Value8CZStringES1_EC2IJRS3_EJEEESt21piecewise_construct_tSt5tupleIJDpT_EES8_IJDpT0_EE
FN:1664,_ZNSt4pairIKN4Json5Value8CZStringES1_EC2IJRS3_EJLm0EEJEJEEERSt5tupleIJDpT_EERS7_IJDpT1_EESt12_Index_tupleIJXspT0_EEESG_IJXspT2_EEE
FNDA:160,_ZNSt10_Head_baseILm0EPN6widget8HalfMaskELb0EEC2Ev
FNDA:4320,_ZNSt11_Tuple_implILm0EJP11QPushButtonSt14default_deleteIS0_EEE7_M_headERKS4_
FNDA:800,_ZNSt11_Tuple_implILm0EJPN6widget8HalfMaskESt14default_deleteIS1_EEE7_M_headERS5_
FNDA:480,_ZNSt11_Tuple_implILm1EJSt14default_deleteIN6widget12BtnContainerEEEE7_M_headERS4_
FNDA:72,_ZNSt11_Tuple_implILm0EJPN6widget11GroupWidgetESt14default_deleteIS1_EEEC2Ev
FNDA:0,_ZNSt11_Tuple_implILm0EJRKN4Json5Value8CZStringEEE7_M_headERS5_
FNDA:2400,_ZNSt11_Tuple_implILm1EJSt14default_deleteI11QPushButtonEEE7_M_headERS3_
FNDA:236,_ZSt12__get_helperILm1ESt14default_deleteIN6widget11GroupWidgetEEJEERT0_RSt11_Tuple_implIXT_EJS4_DpT1_EE
FNDA:240,_ZNSt10_Head_baseILm0EPN6widget8HalfMaskELb0EEC2IRS2_EEOT_
FNDA:44,_ZSt12__get_helperILm0EP11ScrollBlockJSt14default_deleteIS0_EEERT0_RSt11_Tuple_implIXT_EJS4_DpT1_EE
FNDA:0,_ZNSt11_Tuple_implILm1EJSt14default_deleteINSt6thread6_StateEEEEC2Ev
FNDA:0,_ZNSt11_Tuple_implILm0EJZN9Connector8openPortEvEUlvE_EEC2EOS2_
FNDA:236,_ZNSt11_Tuple_implILm0EJPN6widget11GroupWidgetESt14default_deleteIS1_EEE7_M_headERKS5_
FNDA:800,_ZNSt10_Head_baseILm0EPN6widget12BtnContainerELb0EE7_M_headERS3_
FNDA:560,_ZSt12__get_helperILm0EPN6widget8HalfMaskEJSt14default_deleteIS1_EEERKT0_RKSt11_Tuple_implIXT_EJS5_DpT1_EE
FNDA:112,_ZSt3getILm0EJPN6widget5ValueESt14default_deleteIS1_EEERKNSt13tuple_elementIXT_ESt5tupleIJDpT0_EEE4typeERKS9_
FNDA:10550,_ZNSt10_Head_baseILm0EPSt5arrayINSt7__cxx1112basic_stringIcSt11char_traitsIcESaIcEEELm3EELb0EEC2Ev
FNDA:236,_ZNSt10_Head_baseILm0EPN6widget11GroupWidgetELb0EE7_M_headERKS3_
FNDA:640,_ZNSt10_Head_baseILm0EP11QPushButtonLb0EEC2Ev
FNDA:80,_ZNSt11_Tuple_implILm1EJSt14default_deleteIN6widget4MaskEEEEC2Ev
FNDA:7,_ZNSt11_Tuple_implILm1EJSt14default_deleteI11ScrollBlockEEEC2Ev
FNDA:22,_ZNSt11_Tuple_implILm0EJP11ScrollBlockSt14default_deleteIS0_EEE7_M_headERKS4_
FNDA:0,_ZNSt4pairIKN4Json5Value8CZStringES1_EC2IJRS3_EJEEESt21piecewise_construct_tSt5tupleIJDpT_EES8_IJDpT0_EE
FNDA:640,_ZNSt11_Tuple_implILm0EJP11QPushButtonSt14default_deleteIS0_EEEC2Ev
FNDA:0,_ZNSt11_Tuple_implILm0EJRKN4Json5Value8CZStringEEEC2EOS5_
FNDA:0,_ZSt3getILm1EJPNSt6thread6_StateESt14default_deleteIS1_EEERNSt13tuple_elementIXT_ESt5tupleIJDpT0_EEE4typeERS9_
FNDA:38,_ZNSt10_Head_baseILm0EPN6widget5ValueELb0EEC2Ev
FNDA:72,_ZNSt11_Tuple_implILm1EJSt14default_deleteIN6widget11GroupWidgetEEEEC2Ev
FNDA:0,_ZNSt11_Tuple_implILm1EJSt14default_deleteINSt6thread6_StateEEEE7_M_headERS4_
FNDA:0,_ZNSt10_Head_baseILm0EZN9Connector8openPortEvEUlvE_Lb0EE7_M_headERS2_
FNDA:22,_ZSt12__get_helperILm0EP11ScrollBlockJSt14default_deleteIS0_EEERKT0_RKSt11_Tuple_implIXT_EJS4_DpT1_EE
FNDA:224,_ZNSt10_Head_baseILm0EPN6widget5ValueELb0EE7_M_headERS3_
FNDA:0,_ZNSt10_Head_baseILm0EPNSt6thread6_StateELb0EEC2Ev
FNDA:240,_ZNSt10_Head_baseILm1ESt14default_deleteIN6widget8HalfMaskEELb1EEC2IS3_EEOT_
FNDA:116,_ZNSt10_Head_baseILm1ESt14default_deleteIN6widget6JoinedEELb1EEC2Ev
FNDA:112,_ZSt3getILm1EJPN6widget5ValueESt14default_deleteIS1_EEERNSt13tuple_elementIXT_ESt5tupleIJDpT0_EEE4typeERS9_
FNDA:0,_ZNSt10_Head_baseILm1ESt14default_deleteINSt6thread6_StateEELb1EEC2Ev
FNDA:15661,_ZSt12__get_helperILm0EPSt5arrayINSt7__cxx1112basic_stringIcSt11char_traitsIcESaIcEEELm3EEJSt14default_deleteIS7_EEERKT0_RKSt11_Tuple_implIXT_EJSB_DpT1_EE
FNDA:266,_ZSt3getILm0EJPN6widget4MaskESt14default_deleteIS1_EEERKNSt13tuple_elementIXT_ESt5tupleIJDpT0_EEE4typeERKS9_
FNDA:266,_ZSt12__get_helperILm1ESt14default_deleteIN6widget4MaskEEJEERT0_RSt11_Tuple_implIXT_EJS4_DpT1_EE
FNDA:22,_ZSt3getILm1EJP11ScrollBlockSt14default_deleteIS0_EEERNSt13tuple_elementIXT_ESt5tupleIJDpT0_EEE4typeERS8_
FNDA:10550,_ZNSt10_Head_baseILm1ESt14default_deleteISt5arrayINSt7__cxx1112basic_stringIcSt11char_traitsIcESaIcEEELm3EEELb1EEC2Ev
FNDA:800,_ZSt3getILm0EJPN6widget8HalfMaskESt14default_deleteIS1_EEERNSt13tuple_elementIXT_ESt5tupleIJDpT0_EEE4typeERS9_
FNDA:88,_ZSt3getILm0EJPN6widget6JoinedESt14default_deleteIS1_EEERKNSt13tuple_elementIXT_ESt5tupleIJDpT0_EEE4typeERKS9_
FNDA:2,_ZNSt10_Head_baseILm0EPN4Json10CharReaderELb0EE7_M_headERKS3_
FNDA:112,_ZSt12__get_helperILm0EPN6widget5ValueEJSt14default_deleteIS1_EEERKT0_RKSt11_Tuple_implIXT_EJS5_DpT1_EE
FNDA:15661,_ZNSt10_Head_baseILm0EPSt5arrayINSt7__cxx1112basic_stringIcSt11char_traitsIcESaIcEEELm3EELb0EE7_M_headERKS9_
FNDA:15,_ZNSt11_Tuple_implILm0EJP11ScrollBlockSt14default_deleteIS0_EEEC2IRS1_JS3_EvEEOT_DpOT0_
FNDA:4,_ZNSt10_Head_baseILm0EPN4Json10CharReaderELb0EE7_M_headERS3_
FNDA:0,_ZNSt11_Tuple_implILm0EJPN4Json12StreamWriterESt14default_deleteIS1_EEE7_M_headERKS5_
FNDA:0,_ZNSt5tupleIJPNSt6thread6_StateESt14default_deleteIS1_EEEC2IS2_S4_Lb1EEEv
FNDA:2,_ZSt3getILm0EJPN4Json10CharReaderESt14default_deleteIS1_EEERKNSt13tuple_elementIXT_ESt5tupleIJDpT0_EEE4typeERKS9_
FNDA:38,_ZNSt5tupleIJPN6widget5ValueESt14default_deleteIS1_EEEC2IS2_S4_Lb1EEEv
FNDA:266,_ZNSt10_Head_baseILm1ESt14default_deleteIN6widget4MaskEELb1EE7_M_headERS4_
FNDA:80,_ZNSt10_Head_baseILm1ESt14default_deleteIN6widget4MaskEELb1EEC2Ev
FNDA:236,_ZNSt10_Head_baseILm1ESt14default_deleteIN6widget11GroupWidgetEELb1EE7_M_headERS4_
FNDA:74,_ZNSt11_Tuple_implILm0EJPN6widget5ValueESt14default_deleteIS1_EEEC2IRS2_JS4_EvEEOT_DpOT0_
FNDA:72,_ZNSt10_Head_baseILm1ESt14default_deleteIN6widget11GroupWidgetEELb1EEC2Ev
FNDA:400,_ZSt3getILm1EJPN6widget8HalfMaskESt14default_deleteIS1_EEERNSt13tuple_elementIXT_ESt5tupleIJDpT0_EEE4typeERS9_
FNDA:112,_ZNSt11_Tuple_implILm1EJSt14default_deleteIN6widget5ValueEEEE7_M_headERS4_
FNDA:35030,_ZSt3getILm0EJPSt5arrayINSt7__cxx1112basic_stringIcSt11char_traitsIcESaIcEEELm3EESt14default_deleteIS7_EEERNSt13tuple_elementIXT_ESt5tupleIJDpT0_EEE4typeERSF_
FNDA:17597,_ZSt12__get_helperILm1ESt14default_deleteISt5arrayINSt7__cxx1112basic_stringIcSt11char_traitsIcESaIcEEELm3EEEJEERT0_RSt11_Tuple_implIXT_EJSA_DpT1_EE
FNDA:236,_ZSt3getILm0EJPN6widget11GroupWidgetESt14default_deleteIS1_EEERKNSt13tuple_elementIXT_ESt5tupleIJDpT0_EEE4typeERKS9_
FNDA:0,_ZSt12__get_helperILm0ERKN4Json5Value8CZStringEJEERT0_RSt11_Tuple_implIXT_EJS5_DpT1_EE
FNDA:3360,_ZSt3getILm0EJPN6widget12BtnContainerESt14default_deleteIS1_EEERKNSt13tuple_elementIXT_ESt5tupleIJDpT0_EEE4typeERKS9_
FNDA:22,_ZSt12__get_helperILm1ESt14default_deleteI11ScrollBlockEJEERT0_RSt11_Tuple_implIXT_EJS3_DpT1_EE
FNDA:800,_ZNSt11_Tuple_implILm0EJPN6widget12BtnContainerESt14default_deleteIS1_EEE7_M_headERS5_
FNDA:248,_ZNSt11_Tuple_implILm0EJPN6widget6JoinedESt14default_deleteIS1_EEE7_M_headERS5_
FNDA:0,_ZSt3getILm0EJPN4Json12StreamWriterESt14default_deleteIS1_EEERKNSt13tuple_elementIXT_ESt5tupleIJDpT0_EEE4typeERKS9_
FNDA:22,_ZSt3getILm0EJP11ScrollBlockSt14default_deleteIS0_EEERKNSt13tuple_elementIXT_ESt5tupleIJDpT0_EEE4typeERKS8_
FNDA:41,_ZNSt5tupleIJPSt5arrayINSt7__cxx1112basic_stringIcSt11char_traitsIcESaIcEEELm3EESt14default_deleteIS7_EEEC2IRS8_SA_Lb1EEEOT_OT0_
FNDA:0,_ZSt12__get_helperILm0EZN9Connector8openPortEvEUlvE_JEERT0_RSt11_Tuple_implIXT_EJS2_DpT1_EE
FNDA:164,_ZNSt11_Tuple_implILm0EJPN6widget11GroupWidgetESt14default_deleteIS1_EEEC2IRS2_JS4_EvEEOT_DpOT0_
FNDA:224,_ZSt3getILm0EJPN6widget5ValueESt14default_deleteIS1_EEERNSt13tuple_elementIXT_ESt5tupleIJDpT0_EEE4typeERS9_
FNDA:1760,_ZNSt5tupleIJP11QPushButtonSt14default_deleteIS0_EEEC2IRS1_S3_Lb1EEEOT_OT0_
FNDA:4320,_ZNSt10_Head_baseILm0EP11QPushButtonLb0EE7_M_headERKS2_
FNDA:112,_ZNSt10_Head_baseILm0EPN6widget5ValueELb0EE7_M_headERKS3_
FNDA:2,_ZNSt10_Head_baseILm0EPN4Json10CharReaderELb0EEC2Ev
FNDA:2,_ZNSt11_Tuple_implILm0EJPN4Json10CharReaderESt14default_deleteIS1_EEEC2Ev
FNDA:132,_ZNSt10_Head_baseILm1ESt14default_deleteIN6widget6JoinedEELb1EE7_M_headERS4_
FNDA:2,_ZSt12__get_helperILm0EPN4Json10CharReaderEJSt14default_deleteIS1_EEERKT0_RKSt11_Tuple_implIXT_EJS5_DpT1_EE
FNDA:7,_ZNSt5tupleIJP11ScrollBlockSt14default_deleteIS0_EEEC2IS1_S3_Lb1EEEv
FNDA:80,_ZNSt5tupleIJPN6widget4MaskESt14default_deleteIS1_EEEC2IS2_S4_Lb1EEEv
FNDA:88,_ZNSt10_Head_baseILm0EPN6widget6JoinedELb0EE7_M_headERKS3_
FNDA:116,_ZNSt10_Head_baseILm0EPN6widget6JoinedELb0EEC2Ev
FNDA:72,_ZNSt10_Head_baseILm0EPN6widget11GroupWidgetELb0EEC2Ev
FNDA:160,_ZNSt11_Tuple_implILm0EJPN6widget8HalfMaskESt14default_deleteIS1_EEEC2Ev
FNDA:132,_ZSt12__get_helperILm1ESt14default_deleteIN6widget6JoinedEEJEERT0_RSt11_Tuple_implIXT_EJS4_DpT1_EE
FNDA:4,_ZSt12__get_helperILm0EPN4Json10CharReaderEJSt14default_deleteIS1_EEERT0_RSt11_Tuple_implIXT_EJS5_DpT1_EE
FNDA:74,_ZNSt5tupleIJPN6widget5ValueESt14default_deleteIS1_EEEC2IRS2_S4_Lb1EEEOT_OT0_
FNDA:1760,_ZNSt11_Tuple_implILm1EJSt14default_deleteI11QPushButtonEEEC2IS2_EEOT_
FNDA:0,_ZNSt11_Tuple_implILm0EJZN9Connector8openPortEvEUlvE_EE7_M_headERS2_
FNDA:0,_ZNSt10_Head_baseILm1ESt14default_deleteIN4Json12StreamWriterEELb1EEC2Ev
FNDA:240,_ZNSt5tupleIJPN6widget8HalfMaskESt14default_deleteIS1_EEEC2IRS2_S4_Lb1EEEOT_OT0_
FNDA:2,_ZNSt10_Head_baseILm1ESt14default_deleteIN4Json10CharReaderEELb1EE7_M_headERS4_
FNDA:0,_ZSt12__get_helperILm0EPN4Json12StreamWriterEJSt14default_deleteIS1_EEERKT0_RKSt11_Tuple_implIXT_EJS5_DpT1_EE
FNDA:186,_ZNSt11_Tuple_implILm0EJPN6widget4MaskESt14default_deleteIS1_EEEC2IRS2_JS4_EvEEOT_DpOT0_
FNDA:532,_ZNSt10_Head_baseILm0EPN6widget4MaskELb0EE7_M_headERS3_
FNDA:164,_ZNSt11_Tuple_implILm1EJSt14default_deleteIN6widget11GroupWidgetEEEEC2IS3_EEOT_
FNDA:0,_ZSt3getILm0EJPN4Json12StreamWriterESt14default_deleteIS1_EEERNSt13tuple_elementIXT_ESt5tupleIJDpT0_EEE4typeERS9_
FNDA:0,_ZSt12__get_helperILm0EPNSt6thread6_StateEJSt14default_deleteIS1_EEERT0_RSt11_Tuple_implIXT_EJS5_DpT1_EE
FNDA:44,_ZNSt10_Head_baseILm0EP11ScrollBlockLb0EE7_M_headERS2_
FNDA:560,_ZSt3getILm0EJPN6widget8HalfMaskESt14default_deleteIS1_EEERKNSt13tuple_elementIXT_ESt5tupleIJDpT0_EEE4typeERKS9_
FNDA:15,_ZNSt10_Head_baseILm1ESt14default_deleteI11ScrollBlockELb1EEC2IS2_EEOT_
FNDA:2400,_ZSt12__get_helperILm1ESt14default_deleteI11QPushButtonEJEERT0_RSt11_Tuple_implIXT_EJS3_DpT1_EE
FNDA:0,_ZNSt10_Head_baseILm0EZN9Connector8openPortEvEUlvE_Lb0EEC2IS1_EEOT_
FNDA:74,_ZNSt10_Head_baseILm1ESt14default_deleteIN6widget5ValueEELb1EEC2IS3_EEOT_
FNDA:1760,_ZNSt10_Head_baseILm1ESt14default_deleteI11QPushButtonELb1EEC2IS2_EEOT_
FNDA:320,_ZNSt10_Head_baseILm1ESt14default_deleteIN6widget12BtnContainerEELb1EEC2Ev
FNDA:480,_ZNSt10_Head_baseILm1ESt14default_deleteIN6widget12BtnContainerEELb1EE7_M_headERS4_
FNDA:186,_ZNSt10_Head_baseILm1ESt14default_deleteIN6widget4MaskEELb1EEC2IS3_EEOT_
FNDA:480,_ZSt12__get_helperILm1ESt14default_deleteIN6widget12BtnContainerEEJEERT0_RSt11_Tuple_implIXT_EJS4_DpT1_EE
FNDA:88,_ZNSt11_Tuple_implILm0EJPN6widget6JoinedESt14default_deleteIS1_EEE7_M_headERKS5_
FNDA:640,_ZNSt10_Head_baseILm1ESt14default_deleteI11QPushButtonELb1EEC2Ev
FNDA:4800,_ZSt3getILm0EJP11QPushButtonSt14default_deleteIS0_EEERNSt13tuple_elementIXT_ESt5tupleIJDpT0_EEE4typeERS8_
FNDA:17597,_ZSt3getILm1EJPSt5arrayINSt7__cxx1112basic_stringIcSt11char_traitsIcESaIcEEELm3EESt14default_deleteIS7_EEERNSt13tuple_elementIXT_ESt5tupleIJDpT0_EEE4typeERSF_
FNDA:0,_ZNSt10_Head_baseILm0EPN4Json12StreamWriterELb0EEC2Ev
FNDA:2,_ZSt12__get_helperILm1ESt14default_deleteIN4Json10CharReaderEEJEERT0_RSt11_Tuple_implIXT_EJS4_DpT1_EE
FNDA:0,_ZNSt10_Head_baseILm1ESt14default_deleteIN4Json12StreamWriterEELb1EE7_M_headERS4_
FNDA:0,_ZSt12__get_helperILm1ESt14default_deleteIN4Json12StreamWriterEEJEERT0_RSt11_Tuple_implIXT_EJS4_DpT1_EE
FNDA:3360,_ZNSt10_Head_baseILm0EPN6widget12BtnContainerELb0EE7_M_headERKS3_
FNDA:15,_ZNSt5tupleIJP11ScrollBlockSt14default_deleteIS0_EEEC2IRS1_S3_Lb1EEEOT_OT0_
FNDA:0,_ZNSt10_Head_baseILm0ERKN4Json5Value8CZStringELb0EE7_M_headERS5_
FNDA:10550,_ZNSt11_Tuple_implILm0EJPSt5arrayINSt7__cxx1112basic_stringIcSt11char_traitsIcESaIcEEELm3EESt14default_deleteIS7_EEEC2Ev
FNDA:41,_ZNSt10_Head_baseILm1ESt14default_deleteISt5arrayINSt7__cxx1112basic_stringIcSt11char_traitsIcESaIcEEELm3EEELb1EEC2IS9_EEOT_
FNDA:320,_ZNSt5tupleIJPN6widget12BtnContainerESt14default_deleteIS1_EEEC2IS2_S4_Lb1EEEv
FNDA:35030,_ZNSt11_Tuple_implILm0EJPSt5arrayINSt7__cxx1112basic_stringIcSt11char_traitsIcESaIcEEELm3EESt14default_deleteIS7_EEE7_M_headERSB_
FNDA:22,_ZNSt10_Head_baseILm0EP11ScrollBlockLb0EE7_M_headERKS2_
FNDA:480,_ZSt3getILm1EJPN6widget12BtnContainerESt14default_deleteIS1_EEERNSt13tuple_elementIXT_ESt5tupleIJDpT0_EEE4typeERS9_
FNDA:400,_ZNSt10_Head_baseILm1ESt14default_deleteIN6widget8HalfMaskEELb1EE7_M_headERS4_
FNDA:164,_ZNSt5tupleIJPN6widget11GroupWidgetESt14default_deleteIS1_EEEC2IRS2_S4_Lb1EEEOT_OT0_
FNDA:248,_ZSt3getILm0EJPN6widget6JoinedESt14default_deleteIS1_EEERNSt13tuple_elementIXT_ESt5tupleIJDpT0_EEE4typeERS9_
FNDA:35030,_ZSt12__get_helperILm0EPSt5arrayINSt7__cxx1112basic_stringIcSt11char_traitsIcESaIcEEELm3EEJSt14default_deleteIS7_EEERT0_RSt11_Tuple_implIXT_EJSB_DpT1_EE
FNDA:0,_ZNSt5tupleIJPN4Json12StreamWriterESt14default_deleteIS1_EEEC2IS2_S4_Lb1EEEv
FNDA:132,_ZSt3getILm1EJPN6widget6JoinedESt14default_deleteIS1_EEERNSt13tuple_elementIXT_ESt5tupleIJDpT0_EEE4typeERS9_
FNDA:164,_ZNSt10_Head_baseILm1ESt14default_deleteIN6widget11GroupWidgetEELb1EEC2IS3_EEOT_
FNDA:186,_ZNSt11_Tuple_implILm1EJSt14default_deleteIN6widget4MaskEEEEC2IS3_EEOT_
FNDA:236,_ZNSt11_Tuple_implILm1EJSt14default_deleteIN6widget11GroupWidgetEEEE7_M_headERS4_
FNDA:41,_ZNSt11_Tuple_implILm0EJPSt5arrayINSt7__cxx1112basic_stringIcSt11char_traitsIcESaIcEEELm3EESt14default_deleteIS7_EEEC2IRS8_JSA_EvEEOT_DpOT0_
FNDA:320,_ZNSt10_Head_baseILm0EPN6widget12BtnContainerELb0EEC2Ev
FNDA:35030,_ZNSt10_Head_baseILm0EPSt5arrayINSt7__cxx1112basic_stringIcSt11char_traitsIcESaIcEEELm3EELb0EE7_M_headERS9_
FNDA:186,_ZNSt5tupleIJPN6widget4MaskESt14default_deleteIS1_EEEC2IRS2_S4_Lb1EEEOT_OT0_
FNDA:116,_ZNSt11_Tuple_implILm0EJPN6widget6JoinedESt14default_deleteIS1_EEEC2Ev
FNDA:236,_ZSt12__get_helperILm0EPN6widget11GroupWidgetEJSt14default_deleteIS1_EEERKT0_RKSt11_Tuple_implIXT_EJS5_DpT1_EE
FNDA:0,_ZSt3getILm0EJRKN4Json5Value8CZStringEEERNSt13tuple_elementIXT_ESt5tupleIJDpT0_EEE4typeERS9_
FNDA:4,_ZSt3getILm0EJPN4Json10CharReaderESt14default_deleteIS1_EEERNSt13tuple_elementIXT_ESt5tupleIJDpT0_EEE4typeERS9_
FNDA:74,_ZNSt10_Head_baseILm0EPN6widget5ValueELb0EEC2IRS2_EEOT_
FNDA:15,_ZNSt11_Tuple_implILm1EJSt14default_deleteI11ScrollBlockEEEC2IS2_EEOT_
FNDA:800,_ZSt3getILm0EJPN6widget12BtnContainerESt14default_deleteIS1_EEERNSt13tuple_elementIXT_ESt5tupleIJDpT0_EEE4typeERS9_
FNDA:41,_ZNSt10_Head_baseILm0EPSt5arrayINSt7__cxx1112basic_stringIcSt11char_traitsIcESaIcEEELm3EELb0EEC2IRS8_EEOT_
FNDA:4800,_ZSt12__get_helperILm0EP11QPushButtonJSt14default_deleteIS0_EEERT0_RSt11_Tuple_implIXT_EJS4_DpT1_EE
FNDA:0,_ZSt12__get_helperILm1ESt14default_deleteINSt6thread6_StateEEJEERT0_RSt11_Tuple_implIXT_EJS4_DpT1_EE
FNDA:0,_ZSt12__get_helperILm0EPN4Json12StreamWriterEJSt14default_deleteIS1_EEERT0_RSt11_Tuple_implIXT_EJS5_DpT1_EE
FNDA:4,_ZNSt11_Tuple_implILm0EJPN4Json10CharReaderESt14default_deleteIS1_EEE7_M_headERS5_
FNDA:80,_ZNSt11_Tuple_implILm0EJPN6widget4MaskESt14default_deleteIS1_EEEC2Ev
FNDA:10550,_ZNSt5tupleIJPSt5arrayINSt7__cxx1112basic_stringIcSt11char_traitsIcESaIcEEELm3EESt14default_deleteIS7_EEEC1IS8_SA_Lb1EEEv
FNDA:532,_ZSt12__get_helperILm0EPN6widget4MaskEJSt14default_deleteIS1_EEERT0_RSt11_Tuple_implIXT_EJS5_DpT1_EE
FNDA:164,_ZNSt10_Head_baseILm0EPN6widget11GroupWidgetELb0EEC2IRS2_EEOT_
FNDA:74,_ZNSt11_Tuple_implILm1EJSt14default_deleteIN6widget5ValueEEEEC2IS3_EEOT_
FNDA:532,_ZSt3getILm0EJPN6widget4MaskESt14default_deleteIS1_EEERNSt13tuple_elementIXT_ESt5tupleIJDpT0_EEE4typeERS9_
FNDA:0,_ZNSt5tupleIJRKN4Json5Value8CZStringEEEC2EOS5_
FNDA:0,_ZSt3getILm0EJZN9Connector8openPortEvEUlvE_EEONSt13tuple_elementIXT_ESt5tupleIJDpT0_EEE4typeEOS6_
FNDA:4800,_ZNSt11_Tuple_implILm0EJP11QPushButtonSt14default_deleteIS0_EEE7_M_headERS4_
FNDA:266,_ZNSt10_Head_baseILm0EPN6widget4MaskELb0EE7_M_headERKS3_
FNDA:2,_ZNSt10_Head_baseILm1ESt14default_deleteIN4Json10CharReaderEELb1EEC2Ev
FNDA:266,_ZNSt11_Tuple_implILm1EJSt14default_deleteIN6widget4MaskEEEE7_M_headERS4_
FNDA:640,_ZNSt11_Tuple_implILm1EJSt14default_deleteI11QPushButtonEEEC2Ev
FNDA:0,_ZNSt5tupleIJZN9Connector8openPortEvEUlvE_EEC2IJS1_ELb1EEEDpOT_
FNDA:224,_ZNSt11_Tuple_implILm0EJPN6widget5ValueESt14default_deleteIS1_EEE7_M_headERS5_
FNDA:1760,_ZNSt11_Tuple_implILm0EJP11QPushButtonSt14default_deleteIS0_EEEC2IRS1_JS3_EvEEOT_DpOT0_
FNDA:2,_ZNSt5tupleIJPN4Json10CharReaderESt14default_deleteIS1_EEEC2IS2_S4_Lb1EEEv
FNDA:472,_ZNSt10_Head_baseILm0EPN6widget11GroupWidgetELb0EE7_M_headERS3_
FNDA:116,_ZNSt11_Tuple_implILm1EJSt14default_deleteIN6widget6JoinedEEEEC2Ev
FNDA:0,_ZNSt11_Tuple_implILm1EJSt14default_deleteIN4Json12StreamWriterEEEE7_M_headERS4_
FNDA:472,_ZNSt11_Tuple_implILm0EJPN6widget11GroupWidgetESt14default_deleteIS1_EEE7_M_headERS5_
FNDA:112,_ZNSt11_Tuple_implILm0EJPN6widget5ValueESt14default_deleteIS1_EEE7_M_headERKS5_
FNDA:400,_ZSt12__get_helperILm1ESt14default_deleteIN6widget8HalfMaskEEJEERT0_RSt11_Tuple_implIXT_EJS4_DpT1_EE
FNDA:0,_ZNSt11_Tuple_implILm0EJPN4Json12StreamWriterESt14default_deleteIS1_EEE7_M_headERS5_
FNDA:15661,_ZNSt11_Tuple_implILm0EJPSt5arrayINSt7__cxx1112basic_stringIcSt11char_traitsIcESaIcEEELm3EESt14default_deleteIS7_EEE7_M_headERKSB_
FNDA:7,_ZNSt10_Head_baseILm0EP11ScrollBlockLb0EEC2Ev
FNDA:160,_ZNSt10_Head_baseILm1ESt14default_deleteIN6widget8HalfMaskEELb1EEC2Ev
FNDA:266,_ZNSt11_Tuple_implILm0EJPN6widget4MaskESt14default_deleteIS1_EEE7_M_headERKS5_
FNDA:132,_ZNSt11_Tuple_implILm1EJSt14default_deleteIN6widget6JoinedEEEE7_M_headERS4_
FNDA:22,_ZNSt10_Head_baseILm1ESt14default_deleteI11ScrollBlockELb1EE7_M_headERS3_
FNDA:88,_ZSt12__get_helperILm0EPN6widget6JoinedEJSt14default_deleteIS1_EEERKT0_RKSt11_Tuple_implIXT_EJS5_DpT1_EE
FNDA:0,_ZNSt4pairIKN4Json5Value8CZStringES1_EC2IJRS3_EJLm0EEJEJEEERSt5tupleIJDpT_EERS7_IJDpT1_EESt12_Index_tupleIJXspT0_EEESG_IJXspT2_EEE
FNDA:236,_ZSt3getILm1EJPN6widget11GroupWidgetESt14default_deleteIS1_EEERNSt13tuple_elementIXT_ESt5tupleIJDpT0_EEE4typeERS9_
FNDA:0,_ZNSt11_Tuple_implILm0EJPNSt6thread6_StateESt14default_deleteIS1_EEE7_M_headERS5_
FNDA:0,_ZNSt11_Tuple_implILm1EJSt14default_deleteIN4Json12StreamWriterEEEEC2Ev
FNDA:3360,_ZNSt11_Tuple_implILm0EJPN6widget12BtnContainerESt14default_deleteIS1_EEE7_M_headERKS5_
FNDA:7,_ZNSt11_Tuple_implILm0EJP11ScrollBlockSt14default_deleteIS0_EEEC2Ev
FNDA:7,_ZNSt10_Head_baseILm1ESt14default_deleteI11ScrollBlockELb1EEC2Ev
FNDA:186,_ZNSt10_Head_baseILm0EPN6widget4MaskELb0EEC2IRS2_EEOT_
FNDA:4320,_ZSt12__get_helperILm0EP11QPushButtonJSt14default_deleteIS0_EEERKT0_RKSt11_Tuple_implIXT_EJS4_DpT1_EE
FNDA:10550,_ZNSt11_Tuple_implILm1EJSt14default_deleteISt5arrayINSt7__cxx1112basic_stringIcSt11char_traitsIcESaIcEEELm3EEEEEC2Ev
FNDA:248,_ZNSt10_Head_baseILm0EPN6widget6JoinedELb0EE7_M_headERS3_
FNDA:472,_ZSt12__get_helperILm0EPN6widget11GroupWidgetEJSt14default_deleteIS1_EEERT0_RSt11_Tuple_implIXT_EJS5_DpT1_EE
FNDA:2,_ZNSt11_Tuple_implILm1EJSt14default_deleteIN4Json10CharReaderEEEE7_M_headERS4_
FNDA:248,_ZSt12__get_helperILm0EPN6widget6JoinedEJSt14default_deleteIS1_EEERT0_RSt11_Tuple_implIXT_EJS5_DpT1_EE
FNDA:0,_ZNSt11_Tuple_implILm0EJZN9Connector8openPortEvEUlvE_EEC2IS1_EEOT_
FNDA:116,_ZNSt5tupleIJPN6widget6JoinedESt14default_deleteIS1_EEEC2IS2_S4_Lb1EEEv
FNDA:472,_ZSt3getILm0EJPN6widget11GroupWidgetESt14default_deleteIS1_EEERNSt13tuple_elementIXT_ESt5tupleIJDpT0_EEE4typeERS9_
FNDA:800,_ZSt12__get_helperILm0EPN6widget12BtnContainerEJSt14default_deleteIS1_EEERT0_RSt11_Tuple_implIXT_EJS5_DpT1_EE
FNDA:38,_ZNSt10_Head_baseILm1ESt14default_deleteIN6widget5ValueEELb1EEC2Ev
FNDA:17597,_ZNSt10_Head_baseILm1ESt14default_deleteISt5arrayINSt7__cxx1112basic_stringIcSt11char_traitsIcESaIcEEELm3EEELb1EE7_M_headERSA_
FNDA:224,_ZSt12__get_helperILm0EPN6widget5ValueEJSt14default_deleteIS1_EEERT0_RSt11_Tuple_implIXT_EJS5_DpT1_EE
FNDA:2,_ZNSt11_Tuple_implILm0EJPN4Json10CharReaderESt14default_deleteIS1_EEE7_M_headERKS5_
FNDA:532,_ZNSt11_Tuple_implILm0EJPN6widget4MaskESt14default_deleteIS1_EEE7_M_headERS5_
FNDA:0,_ZNSt10_Head_baseILm0ERKN4Json5Value8CZStringELb0EEC2ES4_
FNDA:0,_ZNSt10_Head_baseILm0EPNSt6thread6_StateELb0EE7_M_headERS3_
FNDA:640,_ZNSt5tupleIJP11QPushButtonSt14default_deleteIS0_EEEC2IS1_S3_Lb1EEEv
FNDA:4800,_ZNSt10_Head_baseILm0EP11QPushButtonLb0EE7_M_headERS2_
FNDA:1760,_ZNSt10_Head_baseILm0EP11QPushButtonLb0EEC2IRS1_EEOT_
FNDA:266,_ZSt12__get_helperILm0EPN6widget4MaskEJSt14default_deleteIS1_EEERKT0_RKSt11_Tuple_implIXT_EJS5_DpT1_EE
FNDA:0,_ZNSt5tupleIJZN9Connector8openPortEvEUlvE_EEC2EOS2_
FNDA:112,_ZSt12__get_helperILm1ESt14default_deleteIN6widget5ValueEEJEERT0_RSt11_Tuple_implIXT_EJS4_DpT1_EE
FNDA:2400,_ZNSt10_Head_baseILm1ESt14default_deleteI11QPushButtonELb1EE7_M_headERS3_
FNDA:72,_ZNSt5tupleIJPN6widget11GroupWidgetESt14default_deleteIS1_EEEC2IS2_S4_Lb1EEEv
FNDA:0,_ZSt3getILm0EJZN9Connector8openPortEvEUlvE_EERNSt13tuple_elementIXT_ESt5tupleIJDpT0_EEE4typeERS6_
FNDA:22,_ZNSt11_Tuple_implILm1EJSt14default_deleteI11ScrollBlockEEE7_M_headERS3_
FNDA:320,_ZNSt11_Tuple_implILm1EJSt14default_deleteIN6widget12BtnContainerEEEEC2Ev
FNDA:240,_ZNSt11_Tuple_implILm1EJSt14default_deleteIN6widget8HalfMaskEEEEC2IS3_EEOT_
FNDA:800,_ZNSt10_Head_baseILm0EPN6widget8HalfMaskELb0EE7_M_headERS3_
FNDA:240,_ZNSt11_Tuple_implILm0EJPN6widget8HalfMaskESt14default_deleteIS1_EEEC2IRS2_JS4_EvEEOT_DpOT0_
FNDA:44,_ZSt3getILm0EJP11ScrollBlockSt14default_deleteIS0_EEERNSt13tuple_elementIXT_ESt5tupleIJDpT0_EEE4typeERS8_
FNDA:800,_ZSt12__get_helperILm0EPN6widget8HalfMaskEJSt14default_deleteIS1_EEERT0_RSt11_Tuple_implIXT_EJS5_DpT1_EE
FNDA:0,_ZNSt10_Head_baseILm0EPN4Json12StreamWriterELb0EE7_M_headERS3_
FNDA:0,_ZSt3getILm1EJPN4Json12StreamWriterESt14default_deleteIS1_EEERNSt13tuple_elementIXT_ESt5tupleIJDpT0_EEE4typeERS9_
FNDA:2400,_ZSt3getILm1EJP11QPushButtonSt14default_deleteIS0_EEERNSt13tuple_elementIXT_ESt5tupleIJDpT0_EEE4typeERS8_
FNDA:44,_ZNSt11_Tuple_implILm0EJP11ScrollBlockSt14default_deleteIS0_EEE7_M_headERS4_
FNDA:112,_ZNSt10_Head_baseILm1ESt14default_deleteIN6widget5ValueEELb1EE7_M_headERS4_
FNDA:320,_ZNSt11_Tuple_implILm0EJPN6widget12BtnContainerESt14default_deleteIS1_EEEC2Ev
FNDA:80,_ZNSt10_Head_baseILm0EPN6widget4MaskELb0EEC2Ev
FNDA:0,_ZNSt10_Head_baseILm1ESt14default_deleteINSt6thread6_StateEELb1EE7_M_headERS4_
FNDA:0,_ZNSt11_Tuple_implILm0EJPNSt6thread6_StateESt14default_deleteIS1_EEEC2Ev
FNDA:160,_ZNSt5tupleIJPN6widget8HalfMaskESt14default_deleteIS1_EEEC2IS2_S4_Lb1EEEv
FNDA:0,_ZSt3getILm0EJPNSt6thread6_StateESt14default_deleteIS1_EEERNSt13tuple_elementIXT_ESt5tupleIJDpT0_EEE4typeERS9_
FNDA:160,_ZNSt11_Tuple_implILm1EJSt14default_deleteIN6widget8HalfMaskEEEEC2Ev
FNDA:15661,_ZSt3getILm0EJPSt5arrayINSt7__cxx1112basic_stringIcSt11char_traitsIcESaIcEEELm3EESt14default_deleteIS7_EEERKNSt13tuple_elementIXT_ESt5tupleIJDpT0_EEE4typeERKSF_
FNDA:2,_ZNSt11_Tuple_implILm1EJSt14default_deleteIN4Json10CharReaderEEEEC2Ev
FNDA:38,_ZNSt11_Tuple_implILm0EJPN6widget5ValueESt14default_deleteIS1_EEEC2Ev
FNDA:3360,_ZSt12__get_helperILm0EPN6widget12BtnContainerEJSt14default_deleteIS1_EEERKT0_RKSt11_Tuple_implIXT_EJS5_DpT1_EE
FNDA:0,_ZNSt10_Head_baseILm0EPN4Json12StreamWriterELb0EE7_M_headERKS3_
FNDA:2,_ZSt3getILm1EJPN4Json10CharReaderESt14default_deleteIS1_EEERNSt13tuple_elementIXT_ESt5tupleIJDpT0_EEE4typeERS9_
FNDA:17597,_ZNSt11_Tuple_implILm1EJSt14default_deleteISt5arrayINSt7__cxx1112basic_stringIcSt11char_traitsIcESaIcEEELm3EEEEE7_M_headERSA_
FNDA:560,_ZNSt10_Head_baseILm0EPN6widget8HalfMaskELb0EE7_M_headERKS3_
FNDA:41,_ZNSt11_Tuple_implILm1EJSt14default_deleteISt5arrayINSt7__cxx1112basic_stringIcSt11char_traitsIcESaIcEEELm3EEEEEC2IS9_EEOT_
FNDA:266,_ZSt3getILm1EJPN6widget4MaskESt14default_deleteIS1_EEERNSt13tuple_elementIXT_ESt5tupleIJDpT0_EEE4typeERS9_
FNDA:0,_ZNSt11_Tuple_implILm0EJPN4Json12StreamWriterESt14default_deleteIS1_EEEC2Ev
FNDA:400,_ZNSt11_Tuple_implILm1EJSt14default_deleteIN6widget8HalfMaskEEEE7_M_headERS4_
FNDA:0,_ZNSt5tupleIJRKN4Json5Value8CZStringEEEC2IvLb1EEES4_
FNDA:4320,_ZSt3getILm0EJP11QPushButtonSt14default_deleteIS0_EEERKNSt13tuple_elementIXT_ESt5tupleIJDpT0_EEE4typeERKS8_
FNDA:38,_ZNSt11_Tuple_implILm1EJSt14default_deleteIN6widget5ValueEEEEC2Ev
FNDA:0,_ZNSt11_Tuple_implILm0EJRKN4Json5Value8CZStringEEEC2ES4_
FNDA:15,_ZNSt10_Head_baseILm0EP11ScrollBlockLb0EEC2IRS1_EEOT_
FNDA:560,_ZNSt11_Tuple_implILm0EJPN6widget8HalfMaskESt14default_deleteIS1_EEE7_M_headERKS5_
FNF:256
FNH:205
DA:76,11985
DA:77,11985
DA:78,38
DA:79,38
DA:80,82
DA:81,82
DA:82,10666
DA:83,10666
DA:86,2179
DA:87,2179
DA:92,301
DA:93,301
DA:94,74
DA:95,74
DA:96,186
DA:97,186
DA:113,3538
DA:119,17599
DA:122,1199
DA:123,1709
DA:128,10552
DA:129,10552
DA:130,0
DA:131,0
DA:132,2415
DA:133,2415
DA:134,10588
DA:135,10588
DA:136,80
DA:137,80
DA:138,116
DA:139,116
DA:144,41
DA:145,41
DA:148,260
DA:149,260
DA:150,74
DA:151,74
DA:152,186
DA:153,186
DA:160,6916
DA:163,8498
DA:172,35034
DA:175,15663
DA:180,1004
DA:183,466
DA:195,6916
DA:198,8498
DA:206,1199
DA:207,36233
DA:210,15663
DA:215,1004
DA:216,2179
DA:218,13197
DA:219,10552
DA:220,0
DA:221,0
DA:222,2
DA:223,2
DA:224,10550
DA:225,10550
DA:226,234
DA:227,234
DA:228,38
DA:229,38
DA:230,80
DA:231,80
DA:232,116
DA:233,116
DA:234,41
DA:236,41
DA:242,260
DA:244,260
DA:245,74
DA:247,74
DA:248,186
DA:250,186
DA:351,3538
DA:356,1199
DA:357,1199
DA:365,2179
DA:366,2179
DA:369,17599
DA:371,0
DA:373,0
DA:374,10552
DA:375,10552
DA:376,0
DA:377,0
DA:378,2
DA:379,2
DA:380,10550
DA:381,10550
DA:383,510
DA:384,0
DA:385,0
DA:388,234
DA:389,275
DA:390,79
DA:391,38
DA:392,80
DA:393,80
DA:394,116
DA:395,116
DA:397,0
DA:403,260
DA:404,260
DA:405,74
DA:406,74
DA:407,186
DA:408,186
DA:632,0
DA:633,0
DA:646,0
DA:647,0
DA:662,0
DA:686,0
DA:919,1199
DA:920,1199
DA:943,10552
DA:944,10552
DA:945,0
DA:946,0
DA:947,2
DA:948,2
DA:949,10550
DA:950,10550
DA:961,234
DA:962,234
DA:963,38
DA:964,38
DA:965,80
DA:966,80
DA:967,116
DA:968,116
DA:971,2179
DA:972,2179
DA:1001,41
DA:1002,41
DA:1019,260
DA:1020,260
DA:1021,74
DA:1022,74
DA:1023,186
DA:1024,186
DA:1303,10454
DA:1304,10454
DA:1305,3058
DA:1306,3058
DA:1307,6116
DA:1308,6116
DA:1309,480
DA:1310,480
DA:1311,800
DA:1312,9298
DA:1313,8498
DA:1314,0
DA:1315,0
DA:1316,3360
DA:1317,3360
DA:1318,8534
DA:1319,8534
DA:1320,2658
DA:1321,2658
DA:1322,5316
DA:1323,5316
DA:1324,1200
DA:1325,1200
DA:1326,1680
DA:1327,1680
DA:1328,5378
DA:1329,5378
DA:1330,0
DA:1331,0
DA:1332,480
DA:1333,53113
DA:1334,57353
DA:1335,4720
DA:1336,0
DA:1337,0
DA:1338,3360
DA:1339,20957
DA:1340,18157
DA:1341,562
DA:1342,2
DA:1343,0
DA:1344,0
DA:1345,35030
DA:1346,35030
DA:1347,4
DA:1348,4
DA:1352,15663
DA:1353,15663
DA:1354,0
DA:1355,1514
DA:1356,17175
DA:1357,15773
DA:1358,114
DA:1359,268
DA:1360,266
DA:1361,132
DA:1362,132
DA:1363,224
DA:1364,52857
DA:1365,53165
DA:1366,532
DA:1367,248
DA:1368,248
DA:1369,0
DA:1370,17597
DA:1371,17597
DA:1372,468
DA:1373,468
DA:1374,88
DA:1375,88
DA:1376,35142
DA:1377,35142
DA:1378,270
DA:1379,270
DA:1384,17177
DA:1385,17177
DA:1386,112
DA:1387,112
DA:1388,15927
DA:1389,15927
DA:1390,134
DA:1391,134
DA:1392,224
DA:1393,224
DA:1394,532
DA:1395,532
DA:1396,248
DA:1397,248
DA:1402,466
DA:1403,466
DA:1404,88
DA:1405,88
DA:1406,112
DA:1407,112
DA:1408,266
DA:1409,266
DA:1722,0
DA:1727,0
DA:1728,0
DA:1734,0
DA:1737,0
DA:1738,0
DA:1739,0
LF:248
LH:212
end_of_record
